

   1               	        .data
   2               	        .align 2
   3               	environ:
   4 0000 0000 0000 	        .long 0
   5               	 	.align	2
   6               	
   7               	.extern main
   8               	.extern exit
   9               	.extern monitor_begin
  10               	.extern hardware_init_hook
  11               	.extern software_init_hook
  12               	.extern atexit
  13               	.extern __do_global_dtors
  14               	.extern __bss_start
  15               	.extern _end
  16               	
  17               	.global start
  18               	
  19               	.text
  20               	.even
  21               		/* See if user supplied their own stack (__stack != 0).  If not, then
  22               		 * default to using the value of %sp as set by the ROM monitor.
  23               		 */
  24 0000 207C 0000 		movel	#__stack, %a0
  24      0000 
  25 0006 B1FC 0000 		cmpl	#0, %a0
  25      0000 
  26 000c 6702      		jbeq    1f
  27 000e 2E48      		movel	%a0, %sp
  28               	1:
  29               		/* set up initial stack frame */
  30 0010 4E56 FFF8 		link	%a6, #-8
  31               	
  32               		/* zero out the bss section */
  33 0014 223C 0000 		movel	#__bss_start, %d1
  33      0000 
  34 001a 203C 0000 		movel	#_end, %d0
  34      0000 
  35 0020 B280      		cmpl	%d0, %d1
  36 0022 6712      		jbeq	3f
  37 0024 2041      		movl	%d1, %a0
  38 0026 9081      		subl	%d1, %d0
  39 0028 5380      		subql	#1, %d0
  40               	2:
  41 002a 4218      		clrb	(%a0)+
  42 002c 51C8 FFFC 		dbra	%d0, 2b
  43 0030 4240      		clrw	%d0
  44 0032 5380      		subql	#1, %d0
  45 0034 64F4      		jbcc	2b
  46               	3:
  47               		/* jmp monitor initialize after making up  bss */
  48 0036 4EF9 0000 		jmp	monitor_begin
  48      0000 
  49               	start:
  50               		/* monitor returns here.
  51               		 * re-setup stack for C programs.
  52               	         * See if user supplied their own stack (__stack != 0).  If not, then


  53               		 * default to using the value of %sp as set by the ROM monitor.
  54               		 */
  55 003c 207C 0000 		movel	#__stack, %a0
  55      0000 
  56 0042 B1FC 0000 		cmpl	#0, %a0
  56      0000 
  57 0048 6702      		jbeq    skip
  58 004a 2E48      		movel	%a0, %sp
  59               	skip:
  60               		/* set up initial stack frame */
  61 004c 4E56 FFF8 		link	%a6, #-8
  62               	
  63               		/*
  64               		 * initialize target specific stuff. Only execute these
  65               		 * functions it they exist.
  66               		 */
  67 0050 41F9 0000 		lea	hardware_init_hook, %a0
  67      0000 
  68 0056 B1FC 0000 		cmpl	#0, %a0
  68      0000 
  69 005c 6702      		jbeq	4f
  70 005e 4E90      		jsr     (%a0)
  71               	4:
  72 0060 41F9 0000 		lea	software_init_hook, %a0
  72      0000 
  73 0066 B1FC 0000 		cmpl	#0, %a0
  73      0000 
  74 006c 6702      		jbeq	5f
  75 006e 4E90      		jsr     (%a0)
  76               	5:
  77               	
  78               		/*
  79               		 * call the main routine from the application to get it going.
  80               		 * main (argc, argv, environ)
  81               		 * we pass argv as a pointer to NULL.
  82               		 */
  83               	
  84               		/* put __do_global_dtors in the atexit list so 
  85               		 * the destructors get run */
  86               	/* 
  87               		movel	#__do_global_dtors,(%sp)
  88               		jsr	atexit
  89               		movel	#__FINI_SECTION__,(%sp)
  90               		jsr	atexit
  91               		jsr	__INIT_SECTION__
  92               	*/
  93               		
  94               		** setup argv, argc and jump into main
  95 0070 4878 0000 	        pea     0
  96 0074 4879 0000 	        pea     environ
  96      0000 
  97 007a 486F 0004 	        pea     %sp@(4)
  98 007e 4878 0000 	        pea     0
  99 0082 4EB9 0000 		jsr	main
  99      0000 
 100 0088 2F00      		movel	%d0, %sp@-
 101               	


 102 008a 4EB9 0000 	        jsr     exit
 102      0000 
 103               	.even




   1               	.include "defs.s"
   1               	/* レジスタ定義 */
   2               	.equ REGBASE, 0xfff000 | DMAP を使用．
   3               	.equ IOBASE, 0x00d00000
   4               	
   5               	/* 割り込み関係のレジスタ*/
   6               	.equ IVR, REGBASE+0x300 | 割り込みベクタレジスタ
   7               	.equ IMR, REGBASE+0x304 | 割り込みマスクレジスタ
   8               	.equ ISR, REGBASE+0x30c | 割り込みステータスレジスタ
   9               	.equ IPR, REGBASE+0x310 | 割り込みペンディングレジスタ
  10               	
  11               	/* タイマ関係のレジスタ */
  12               	.equ TCTL1, REGBASE+0x600  | タイマ１コントロールレジスタ
  13               	.equ TPRER1, REGBASE+0x602 | タイマ１プリスケーラレジスタ
  14               	.equ TCMP1, REGBASE+0x604  | タイマ１コンペアレジスタ
  15               	.equ TCN1, REGBASE+0x608   | タイマ１カウンタレジスタ
  16               	.equ TSTAT1, REGBASE+0x60a | タイマ１ステータスレジスタ
  17               	
  18               	/* UART1（送受信）関係のレジスタ */
  19               	.equ USTCNT1, REGBASE+0x900 | UART1 ステータス/コントロールレジスタ
  20               	.equ UBAUD1, REGBASE+0x902  | UART1 ボーコントロールレジスタ
  21               	.equ URX1, REGBASE+0x904    | UART1 受信レジスタ
  22               	.equ UTX1, REGBASE+0x906    | UART1 送信レジスタ
  23               	
  24               	/* UART2（送受信）関係のレジスタ */
  25               	.equ USTCNT2, REGBASE+0x910 | UART2 ステータス/コントロールレジスタ
  26               	.equ UBAUD2, REGBASE+0x912  | UART2 ボーコントロールレジスタ
  27               	.equ URX2, REGBASE+0x914    | UART2 受信レジスタ
  28               	.equ UTX2, REGBASE+0x916    | UART2 送信レジスタ
  29               	
  30               	/* LED */
  31               	/*ここで指定されたアドレスに表示させたい文字コードを入れることでLED
  32               	.equ LED7, IOBASE+0x000002f | ボード搭載の LED 用レジスタ
  33               	.equ LED6, IOBASE+0x000002d 
  34               	.equ LED5, IOBASE+0x000002b
  35               	.equ LED4, IOBASE+0x0000029
  36               	.equ LED3, IOBASE+0x000003f
  37               	.equ LED2, IOBASE+0x000003d
  38               	.equ LED1, IOBASE+0x000003b
  39               	.equ LED0, IOBASE+0x0000039
  40               	
  41               	/*D0の値で呼び出すサブルーチンを決めている。ここでは何を呼び出して
  42               	.equ SYSCALL_NUM_GETSTRING,   1 |文字列入力（GETSTRING）（ここからコメント鴻上）
  43               	.equ SYSCALL_NUM_PUTSTRING,   2 |文字列出力(PUTSTRING)|
  44               	.equ SYSCALL_NUM_RESET_TIMER, 3 |タイマリセット|
  45               	.equ SYSCALL_NUM_SET_TIMER,   4 |タイマセット|
  46               	.equ SYSCALL_NUM_SKIPMT, 5
   2               	
   3               	/* スタック */
   4               	.section .bss
   5               	.even
   6 0000 0000 0000 	SYS_STK:.ds.b 0x4000
   6      0000 0000 
   6      0000 0000 
   6      0000 0000 
   6      0000 0000 
   7               	.even


   8               	SYS_STK_TOP: | システムスタック領域の最後尾
   9               	
  10               	/* 初期化 */
  11               	.section .text
  12               	.even
  13               	.extern start
  14               	.global monitor_begin
  15               	monitor_begin:
  16               	boot:
  17 0000 46FC 2700 	    move.w #0x2700, %SR     | 割り込み禁止
  18 0004 4FF9 0000 	    lea.l SYS_STK_TOP, %SP  | スタックポインタの設定
  18      0000 
  19               	
  20               	    /* 割り込みコントローラの初期化 */
  21 000a 13FC 0040 	    move.b #0x40, IVR       | ユーザ割り込みベクタ番号を0x40*4(=0x100)+levelに設定
  21      00FF F300 
  22 0012 23FC 00FF 	    move.l #0x00ffffff, IMR | 全割り込みマスク
  22      FFFF 00FF 
  22      F304 
  23               	
  24 001c 21FC 0000 	    move.l #syscall_handler, 0x080 | TRAP#0の割り込みベクタを登録
  24      0000 0080 
  25 0024 21FC 0000 	    move.l #uart1_interrupt, 0x110 | UART1の割り込みベクタを登録
  25      0000 0110 
  26 002c 21FC 0000 	    move.l #uart2_interrupt, 0x114 | UART2の割り込みベクタを登録  
  26      0000 0114 
  27 0034 21FC 0000 	    move.l #tmr1_interrupt, 0x118  | TIMER1の割り込みベクタを登録
  27      0000 0118 
  28               	
  29               	    /* 送受信 (UART1) 関係の初期化 (割り込みレベルは 4 に固定されている) *
  30 003c 33FC 0000 	    move.w #0x0000, USTCNT1   | リセット
  30      00FF F900 
  31               	    * move.w #0xe100, USTCNT1 | 送受信可能, パリティなし, 1 stop, 8 bit, 送受割り込
  32 0044 33FC E108 	    move.w #0xe108, USTCNT1   | 受信割り込み可能
  32      00FF F900 
  33               	    * move.w #0xe104, USTCNT1 | 送信割り込み可能
  34 004c 33FC 0038 	    move.w #0x0038, UBAUD1    | baud rate = 230400 bps
  34      00FF F902 
  35               	    
  36               	    /* 送受信 (UART2) 関係の初期化 (割り込みレベルは 4 に固定されている) *
  37 0054 33FC 0000 	    move.w #0x0000, USTCNT2    | リセット
  37      00FF F910 
  38               	    * move.w #0xe100, USTCNT2  | 送受信可能, パリティなし, 1 stop, 8 bit, 送受割り
  39 005c 33FC E108 	    move.w #0xe108, USTCNT2    | 受信割り込み可能
  39      00FF F910 
  40               	    * move.w #0xe104, USTCNT2  | 送信割り込み可能
  41 0064 33FC 0038 	    move.w #0x0038, UBAUD2     | baud rate = 230400 bps
  41      00FF F912 
  42               	
  43               	    /* タイマ関係の初期化 (割り込みレベルは 6 に固定されている) */
  44 006c 33FC 0004 	    move.w #0x0004, TCTL1   | restart, 割り込み不可,
  44      00FF F600 
  45               	                            | システムクロックの 1/16 を単位として計時，
  46               	                            | タイマ使用停止
  47               	
  48 0074 4EBA 013E 	    jsr	Init_Q            | キューの初期化
  49               	


  50               	    * move.l #0xff3ffb, IMR | UART1の割り込みを許可
  51               	    * move.l #0xff3ff9, IMR | UART1,TIMERの割り込みを許可
  52 0078 23FC 00FF 	    move.l #0xff2ff9, IMR
  52      2FF9 00FF 
  52      F304 
  53 0082 46FC 2000 	    move.w #0x2000, %SR   | スーパーバイザモード・走行レベルは0
  54 0086 4EF9 0000 	    jmp start
  54      0000 
  55               	    * bra MAIN
  56               	
  57               	
  58               	****************************************************************
  59               	*** 初期値の無いデータ領域
  60               	****************************************************************
  61               	.section .bss
  62               	BUF:
  63 4000 0000 0000 	    .ds.b 256 | BUF[256]
  63      0000 0000 
  63      0000 0000 
  63      0000 0000 
  63      0000 0000 
  64               	    .even
  65               	USR_STK:
  66 4100 0000 0000 	    .ds.b 0x4000 | ユーザスタック領域
  66      0000 0000 
  66      0000 0000 
  66      0000 0000 
  66      0000 0000 
  67               	    .even
  68               	USR_STK_TOP:     | ユーザスタック領域の最後尾
  69               	******************************************************************
  70               	/*; ---- end include main.s ----*/
  71               	
  72               	
  73               	/* 割り込みハンドラ */
  74               	/* ---- begin include syscall.s ---- */
  75               	
  76               	.section .text
  77               	/*D0の値で呼び出すサブルーチンを決めている。ここでは何を呼び出して
  78               	.equ SYSCALL_NUM_GETSTRING,   1 |文字列入力（GETSTRING）（ここからコメント鴻上）
  79               	.equ SYSCALL_NUM_PUTSTRING,   2 |文字列出力(PUTSTRING)|
  80               	.equ SYSCALL_NUM_RESET_TIMER, 3 |タイマリセット|
  81               	.equ SYSCALL_NUM_SET_TIMER,   4 |タイマセット|
  82               	.equ SYSCALL_NUM_SKIPMT,      5 |SKIPMT
  83               	/*
  84               	 * syscall_handler
  85               	 * %d0: syscall number
  86               	 * %dx: syscall argument
  87               		*/
  88               	******************************************
  89               	**syscall_handlerはTRAP #0により呼びだされるシステムコール共通ハンドラ（鴻
  90               	**D0レジスタの値によってどのサブルーチンをよぶかを分岐する
  91               	**入力D0.l :システムコール番号（上記定義のいづれか）
  92               	**D1~D7/A0~A6:各システムコールに応じた引数
  93               	**出力
  94               	**必要に応じてD0に戻り値を格納（鴻上）
  95               	*****************************************	


  96               		
  97               	syscall_handler:
  98 008c 0C80 0000 	        cmpi.l #SYSCALL_NUM_SKIPMT, %D0
  98      0005 
  99 0092 6700 0336 	        beq tmr1_interrupt
 100               	
 101 0096 48E7 7FFE 		movem.l %D1-%D7/%A0-%A6, -(%SP)
 102 009a 0C80 0000 		cmpi.l #SYSCALL_NUM_GETSTRING, %D0   |D0==1?（鴻上）|
 102      0001 
 103 00a0 6700 0026 		beq CALL_GETSTRING                   |→GETSTRING処理へ|
 104               	
 105 00a4 0C80 0000 		cmpi.l #SYSCALL_NUM_PUTSTRING, %D0   |D0==2?|
 105      0002 
 106 00aa 6700 0024 		beq CALL_PUTSTRING                   |→PUTSTRING処理へ|
 107 00ae 0C80 0000 		cmpi.l #SYSCALL_NUM_RESET_TIMER, %D0 |D0==3?|
 107      0003 
 108 00b4 6700 0022 		beq CALL_RESET_TIMER                 |RESET_TIMER処理へ|
 109 00b8 0C80 0000 		cmpi.l #SYSCALL_NUM_SET_TIMER, %D0   |D0==4?|
 109      0004 
 110 00be 6700 0020 		beq CALL_SET_TIMER                   |CALL_SET_TIMER処理へ|
 111               	**********************
 112               	** いずれのシステムコール番号にも該当しない
 113               	**********************	
 114               	END_SYSCALL_HNDR:
 115 00c2 4CDF 7FFE 	    movem.l (%SP)+, %D1-%D7/%A0-%A6
 116 00c6 4E73      		rte
 117               	**********
 118               	**各システムコール処理の分岐先
 119               	*********	
 120               	/*各サブルーチンを呼び出すための場所、サブルーチン呼出し後はシステ
 121               	CALL_GETSTRING:
 122 00c8 4EBA 01FE 		jsr GETSTRING
 123 00cc 6000 FFF4 		bra END_SYSCALL_HNDR
 124               	
 125               	CALL_PUTSTRING:
 126 00d0 4EBA 007A 		jsr PUTSTRING
 127 00d4 6000 FFEC 		bra END_SYSCALL_HNDR
 128               		
 129               	CALL_RESET_TIMER:
 130 00d8 4EBA 023A 		jsr RESET_TIMER
 131 00dc 6000 FFE4 		bra END_SYSCALL_HNDR
 132               	CALL_SET_TIMER:
 133 00e0 4EBA 023C 		jsr SET_TIMER
 134 00e4 6000 FFDC 		bra END_SYSCALL_HNDR
 135               	/*; ---- end include syscall.s ----*/
 136               	
 137               	/* ---- begin include queue.s ---- */
 138               	.section .text
 139               	
 140               	
 141               	******INTERPUT*************************************************************************************
 142               	** 入力：d1.l（チャンネル）
 143               	** チャネル ch の送信キューからデータを一つ取り出し，実際に送信	
 144               	INTERPUT:
 145 00e8 48E7 E0C0 		movem.l %d0-%d2/%a0-%a1,-(%sp)
 146               		
 147               		/* (1) */


 148 00ec 46FC 2700 		move.w  #0x2700, %sr
 149               		/* (2) */
 150 00f0 0C81 0000 		cmpi.l #0, %d1
 150      0000 
 151 00f6 6700 0010 		beq INTERPUT_CH0
 152 00fa 0C81 0000 		cmpi.l #1, %d1
 152      0001 
 153 0100 6700 0018 		beq INTERPUT_CH1
 154 0104 6000 0040 		bra End_INTERPUT		|ch=0,1以外なら何もしない
 155               	INTERPUT_CH0:	
 156               		/* (3) */
 157 0108 7001      		moveq	#1, %d0
 158 010a 41F9 00FF 		lea.l UTX1, %a0
 158      F906 
 159 0110 43F9 00FF 		lea.l USTCNT1, %a1
 159      F900 
 160 0116 6000 0010 		bra INTERPUT_COMMON
 161               	INTERPUT_CH1:
 162 011a 7003      		moveq	#3, %d0
 163 011c 41F9 00FF 		lea.l UTX2, %a0
 163      F916 
 164 0122 43F9 00FF 		lea.l USTCNT2, %a1
 164      F910 
 165               	INTERPUT_COMMON:
 166 0128 4EBA 0120 		jsr	OUTQ			|送信キューからデータを一つ取り出し
 167               		*出力１：d0(失敗 0/ 成功 1 )
 168               		*出力２：d1（取り出した8bitデータ）
 169               		/* (4) */
 170 012c 0C40 0000 		cmpi #0, %d0
 171 0130 6700 000C 		beq INTERPUT_MASK		|取り出し失敗なら、送信割り込みをマスク（禁止）
 172               		/* (5) */
 173               		/* d1をUTX1に代入（下位８bit） */
 174 0134 0041 0800 		ori #0x0800, %d1                | ヘッダを代入
 175 0138 3081      		move.w %d1, (%a0)               | 送信
 176 013a 6000 000A 		bra End_INTERPUT
 177               	INTERPUT_MASK:
 178               		/* (4)' */		|送信失敗した場合、送信割り込み禁止
 179 013e 3411      		move.w	(%a1), %d2
 180 0140 0242 FFFB 		andi.w	#0xFFFB, %d2	| 0xFFFB = 1111111111111011 
 181 0144 3282      		move.w	%d2, (%a1)    | USTCNT1のTXEEを0にする 
 182               	End_INTERPUT:
 183 0146 4CDF 0307 		movem.l (%sp)+, %d0-%d2/%a0-%a1
 184 014a 4E75      		rts
 185               	***************************************************************************************************
 186               	
 187               	*********PUTSTRING*********************************************************************************
 188               	** データを送信キューに格納し，送信割り込みを開始	
 189               	** 入力１：チャネル ch → %D1.L
 190               	** 入力２：データ読み込み先の先頭アドレス p → %D2.L
 191               	** 入力３：送信するデータ数 size → %D3.L
 192               	** 出力  ：実際に送信したデータ数 sz → %D0.L
 193               		
 194               	PUTSTRING:
 195 014c 48E7 7EC0 		movem.l %d1-%d6/%a0-%a1,-(%sp)
 196               		/* (1) */
 197 0150 0C81 0000 		cmpi.l #0, %d1		
 197      0000 


 198 0156 6700 0010 		beq PUTSTRING_CH0
 199 015a 0C81 0000 		cmpi.l #1, %d1
 199      0001 
 200 0160 6700 0012 		beq PUTSTRING_CH1
 201 0164 6000 0048 		bra	End_PUTSTRING	| ch=0,1以外なら何もしない
 202               	PUTSTRING_CH0:
 203 0168 7001      	        moveq #1, %d0
 204 016a 43F9 00FF 		lea.l USTCNT1, %a1
 204      F900 
 205 0170 6000 000A 		bra PUTSTRING_COMMON
 206               	PUTSTRING_CH1:
 207 0174 7003      	        moveq #3, %d0
 208 0176 43F9 00FF 		lea.l USTCNT2, %a1
 208      F910 
 209               	PUTSTRING_COMMON:
 210               		/* (2) */
 211 017c 7800      		moveq	#0, %d4  	| d4 = sz = 0 
 212 017e 2042      		movea.l	%d2, %a0 	| a0 = i = p 
 213               		/* (3) */
 214 0180 0C43 0000 		cmpi 	#0, %d3		| 送信サイズが０のとき
 215 0184 6700 0026 		beq	PUTSTRING_10
 216               	LOOP_PUTSTRING:	
 217               		/* (4) */
 218 0188 B843      		cmp	%d3, %d4	| 送信サイズ == 送信した数？
 219 018a 6700 0018 		beq	PUTSTRING_9
 220               		/* (5) */
 221 018e 1210      		move.b	(%a0), %d1	| a0:データ読み込み先の先頭アドレス
 222 0190 4EBA 0064 		jsr	INQ
 223               		*d0 :キュー番号
 224               		*d1 :8bitデータ
 225               		*出力：d0(失敗 0/ 成功 1 )
 226               		/* (6) */
 227 0194 0C40 0000 		cmpi 	#0, %d0		| INQ失敗？
 228 0198 6700 000A 		beq	PUTSTRING_9	
 229               		/* (7) */
 230 019c 5244      		addq	#1, %d4		| 送信した数に１を足す
 231 019e 5248      		addq	#1, %a0		| 読み込むデータを次に
 232               		/* (8) */
 233 01a0 6000 FFE6 		bra 	LOOP_PUTSTRING | 全て送信 or INQ失敗まで続ける
 234               	PUTSTRING_9:
 235               		/* (9) */
 236 01a4 3C11      		move.w	(%a1), %d6
 237 01a6 0046 0004 		ori.w	#0x0004, %d6	| 0xFFFB = 0000000000000100 
 238 01aa 3286      		move.w	%d6, (%a1)      | 送信割込み許可 
 239               	PUTSTRING_10:
 240               		/* (10) */
 241 01ac 2004      		move.l	%d4, %d0	| d0(出力) = sz(送信した数)
 242               	End_PUTSTRING:
 243 01ae 4CDF 037E 		movem.l (%sp)+, %d1-%d6/%a0-%a1
 244 01b2 4E75      		rts
 245               		
 246               	***************************************************************************************************
 247               	*****************************
 248               	** キュー構造体定義
 249               	******************************
 250               	.equ Q_SIZE, 256              
 251               	.equ Q_COUNT, 4               


 252               	.equ top_ofs,     Q_SIZE     
 253               	.equ bottom_ofs,  Q_SIZE+4
 254               	.equ out_ofs,     Q_SIZE+8
 255               	.equ in_ofs,      Q_SIZE+12
 256               	.equ s_ofs,       Q_SIZE+16
 257               	.equ Q_STRIDE,    Q_SIZE+20 |キュー構造体の全長
 258               	**********************
 259               	** キューの初期化処理
 260               	**********************
 261               	Init_Q:
 262 01b4 48E7 C0C0 		movem.l	%d0-%d1/%a0-%a1,-(%sp)
 263 01b8 7004      		moveq #Q_COUNT, %d0
 264 01ba 5340      		subq #1, %d0
 265 01bc 41F9 0000 		lea.l QUEUE0, %a0 | %a0 = QUEUE0の開始アドレス
 265      0000 
 266 01c2 223C 0000 		move.l #Q_SIZE, %d1
 266      0100 
 267 01c8 5341      		subq #1, %d1      | %d1 = #255
 268               	
 269               	Init_Q_LOOP:
 270 01ca 2248      		movea.l %a0, %a1
 271 01cc D3C1      		adda.l %d1, %a1   | %a1 = QUEUEno の末尾アドレス
 272 01ce 2148 0100 		move.l %a0, (%a0, top_ofs)
 273 01d2 2148 0108 		move.l %a0, (%a0, out_ofs)
 274 01d6 2148 010C 		move.l %a0, (%a0, in_ofs)
 275 01da 2149 0104 		move.l %a1, (%a0, bottom_ofs)
 276 01de 217C 0000 		move.l #0, (%a0, s_ofs)
 276      0000 0110 
 277               		
 278 01e6 D1FC 0000 		adda.l #Q_STRIDE, %a0
 278      0114 
 279 01ec 51C8 FFDC 		dbra   %d0, Init_Q_LOOP
 280               	
 281 01f0 4CDF 0303 		movem.l	(%sp)+,%d0-%d1/%a0-%a1
 282 01f4 4E75      		rts
 283               		
 284               	***********************************
 285               	** INQ: キューへのデータ書き込み
 286               	** 入力 d0.l: キューインデックス
 287               	**      d1.b: 書き込むデータ
 288               	** 出力 d0.l: 結果(00:失敗, 00以外:成功)
 289               	***********************************
 290               	INQ:
 291 01f6 48E7 60E0 		movem.l	%d1-%d2/%a0-%a2,-(%sp)
 292 01fa 40E7      		move.w	%sr,-(%sp)
 293 01fc 46FC 2700 		move.w	#0x2700,%sr | 走行レベル７
 294 0200 4EBA 000A 		jsr	PUT_BUF
 295 0204 46DF      		move.w	(%sp)+,%sr  | 旧走行レベルの回復
 296 0206 4CDF 0706 		movem.l	(%sp)+,%d1-%d2/%a0-%a2
 297 020a 4E75      		rts
 298               	
 299               	****************************************
 300               	** PUT_BUF
 301               	****************************************
 302               	PUT_BUF:
 303 020c C0FC 0114 		mulu #Q_STRIDE, %d0
 304 0210 41F9 0000 		lea.l QUEUE0, %a0


 304      0000 
 305 0216 D1C0      		adda.l %d0, %a0   |%a0 = キューno の先頭アドレス
 306               	
 307 0218 2428 0110 		move.l (%a0,s_ofs), %d2
 308 021c 0C82 0000 		cmpi.l #Q_SIZE, %d2
 308      0100 
 309 0222 6700 0022 		beq PUT_BUF_FALSE
 310               		
 311 0226 2268 010C 		movea.l (%a0, in_ofs), %a1
 312 022a 12C1      		move.b %d1,(%a1)+
 313               	
 314 022c 2468 0104 		move.l (%a0, bottom_ofs), %a2    | %a2 = キュー終端アドレス
 315 0230 B3CA      		cmpa.l %a2, %a1
 316 0232 6300 0004 		bls PUT_BUF_STEP1           | in がキューの終端をこえたら
 317 0236 2248      		move.l %a0, %a1             | %a1 = キューnoの先頭アドレス
 318               		
 319               	PUT_BUF_STEP1:	
 320 0238 2149 010C 		move.l %a1, (%a0, in_ofs)
 321 023c 52A8 0110 		addq.l #1, (%a0, s_ofs)
 322 0240 7001      		moveq.l #1, %d0
 323 0242 6000 0004 		bra PUT_BUF_end
 324               	
 325               	PUT_BUF_FALSE:
 326 0246 7000      		move.l	#0, %d0
 327               	
 328               	PUT_BUF_end:
 329 0248 4E75      		rts
 330               	
 331               	***********************************
 332               	** OUTQ : キューへのデータ書き込み
 333               	** 入力 d0.l : キュー番号
 334               	** 出力 d0.l : 結果(00:失敗, 00以外:成功)
 335               	***********************************
 336               	OUTQ:
 337 024a 48E7 20E0 		movem.l	%d2/%a0-%a2,-(%sp)
 338 024e 40E7      		move.w	%sr,-(%sp)
 339 0250 46FC 2700 		move.w	#0x2700,%sr
 340 0254 4EBA 000A 		jsr	GET_BUF
 341 0258 46DF      		move.w	(%sp)+,%sr
 342 025a 4CDF 0704 		movem.l	(%sp)+,%d2/%a0-%a2
 343 025e 4E75      		rts
 344               	
 345               	****************************************
 346               	** GET_BUF
 347               	****************************************
 348               	GET_BUF:
 349 0260 7200      		moveq.l #0, %d1
 350 0262 C0FC 0114 		mulu #Q_STRIDE, %d0
 351 0266 41F9 0000 		lea.l QUEUE0, %a0
 351      0000 
 352 026c D1C0      		adda.l %d0, %a0   /* %a0 = 先頭 */
 353               	
 354 026e 2428 0110 		move.l (%a0,s_ofs), %d2
 355 0272 0C82 0000 		cmpi.l #0, %d2
 355      0000 
 356 0278 6700 0026 		beq GET_BUF_FALSE
 357               		


 358 027c 2268 0108 		movea.l (%a0, out_ofs), %a1
 359 0280 1211      		move.b (%a1), %d1
 360 0282 12FC 0000 		move.b #0, (%a1)+
 361               	
 362 0286 2468 0104 		move.l (%a0, bottom_ofs), %a2    /* %a2 = キュー終端アドレス */
 363 028a B3CA      		cmpa.l %a2, %a1
 364 028c 6300 0004 		bls GET_BUF_STEP1           /* 終端に到達したら */
 365 0290 2248      		move.l %a0, %a1              /* %a1 = キュー先頭アドレス */
 366               		
 367               	GET_BUF_STEP1:	
 368 0292 2149 0108 		move.l %a1, (%a0, out_ofs)
 369 0296 53A8 0110 		subq.l   #1, (%a0, s_ofs)
 370 029a 7001      		moveq.l #1, %d0
 371 029c 6000 0004 		bra GET_BUF_end
 372               	
 373               	GET_BUF_FALSE:
 374 02a0 7000      		move.l	#0,%d0
 375               	
 376               	GET_BUF_end:
 377 02a2 4E75      		rts
 378               	
 379               	******************************
 380               	** キュー用のメモリ領域確保
 381               	******************************
 382               	.section .data
 383               	.even
 384 0000 0000 0000 	QUEUE0: .ds.b Q_STRIDE
 384      0000 0000 
 384      0000 0000 
 384      0000 0000 
 384      0000 0000 
 385 0114 0000 0000 	QUEUE1: .ds.b Q_STRIDE
 385      0000 0000 
 385      0000 0000 
 385      0000 0000 
 385      0000 0000 
 386 0228 0000 0000 	QUEUE2: .ds.b Q_STRIDE
 386      0000 0000 
 386      0000 0000 
 386      0000 0000 
 386      0000 0000 
 387 033c 0000 0000 	QUEUE3: .ds.b Q_STRIDE
 387      0000 0000 
 387      0000 0000 
 387      0000 0000 
 387      0000 0000 
 388               	
 389               	.section .text
 390               	.even
 391               	***************************
 392               	** %d1.l = ch
 393               	** %d2.b = 受信データ  data
 394               	** 戻り値  なし
 395               	***************************
 396               	/* 受信レジスタの値はすでにd2に格納されている。あとは送信キューに入
 397               	INTERGET:
 398 02a4 0C81 0000 		cmpi.l #0, %d1    /* ch != 0,1 なら終了 */


 398      0000 
 399 02aa 6700 0012 		beq INTERGET_CH0
 400 02ae 0C81 0000 		cmpi.l #1, %d1
 400      0001 
 401 02b4 6600 0010 		bne INTERGET_END
 402 02b8 7002      		moveq.l #2, %d0
 403 02ba 6000 0004 		bra INTERGET_DO 
 404               	INTERGET_CH0:	
 405 02be 7000      		moveq.l #0, %d0   /* キュー番号を 0 に設定 */          
 406               	INTERGET_DO:
 407 02c0 1202      	    move.b %d2, %d1   /* %d1 = data */
 408 02c2 4EBA FF32 		jsr INQ           /* INQ(2, data) */
 409               	INTERGET_END:
 410 02c6 4E75      		rts
 411               		
 412               	**********************************************
 413               	** %d1.l = ch
 414               	** %d2.l = 書き込み先の先頭アドレス p
 415               	** %d3.l = 取り出すデータ数  size
 416               	** 戻り値  %d0.l = 実際に取り出したデータ数  sz 
 417               	**********************************************
 418               	/* 受信キューにあるsize個のデータを、p番地に書き込み（河野） */	
 419               	GETSTRING:
 420 02c8 48E7 0880 		movem.l %d4/%a0, -(%sp)
 421 02cc 0C81 0000 		cmp.l #0, %d1            /* ch != 0,1 なら終了 */
 421      0000 
 422 02d2 6700 0010 		beq GETSTRING_CH0
 423 02d6 0C81 0000 		cmp.l #1, %d1       
 423      0001 
 424 02dc 6700 000C 		beq GETSTRING_CH1       
 425 02e0 6000 002A 		bra GETSTRING_END
 426               	GETSTRING_CH0:
 427 02e4 7000      		moveq.l #0, %d0          /* %d0 = 0, キュー番号を0に */                  
 428 02e6 6000 0004 		bra GETSTRING_COMMON	
 429               	GETSTRING_CH1:
 430 02ea 7002      		moveq.l #2, %d0         /* %d0 = 2, キュー番号を2に */
 431               	GETSTRING_COMMON:
 432 02ec 7800      		moveq.l #0, %d4
 433 02ee 2042      		movea.l %d2, %a0
 434               	GETSTRING_LOOP:
 435 02f0 B684      		cmp.l %d4, %d3           /* %d4 = size なら STEP2 へ */               
 436 02f2 6700 0018 		beq GETSTRING_END
 437 02f6 4EBA FF52 		jsr OUTQ                 /* OUTQ(0,data) */      
 438 02fa 0C80 0000 		cmpi.l #0, %d0           /* 復帰値 %d0 が 0 なら STEP2 へ */           
 438      0000 
 439 0300 6700 000A 		beq GETSTRING_END      
 440 0304 10C1      		move.b %d1, (%a0)+       /* %a0 番地へ data をコピー, %a0++ */                             
 441 0306 5284      		addq.l #1, %d4           /* %d4++ */      
 442 0308 6000 FFE6 		bra GETSTRING_LOOP  
 443               	GETSTRING_END:
 444 030c 2004      		move.l %d4, %d0          /* %d0 = %d4 */  
 445 030e 4CDF 0110 		movem.l (%sp)+, %d4/%a0
 446 0312 4E75      		rts
 447               	/*; ---- end include interget.s ----*/
 448               	
 449               	/* ---- begin include timer.s ---- */
 450               	.section .bss


 451 8100 0000 0000 	task_p:	.ds.b 4 /*タイマ割り込みで実行するプログラムの先頭アドレスを格納
 452               	
 453               	/*タイマルーチン*/
 454               	
 455               	.section .text
 456               	
 457               	/*
 458               	タイマ1コントロールレジスタ
 459               	TCTL1 
 460               	    bit 4  : Interrupt Request Enable（比較割り込み） 0=disable, 1=enable
 461               	    bit 3-1: Clock Source 001 = 入力は SYSCLK．010 = 入力は SYSCLK/16．011 = 入力は TIN
 462               	    bit 0  : Timer Enable. 0=disable. 1=enable
 463               	（楠田・鴻上）
 464               	*/
 465               	
 466               	
 467               	/* RESET_TIMER
 468               	 *   タイマ割り込みを不可に。タイマを停止。（楠田・鴻上）
 469               	 */
 470               	RESET_TIMER:
 471 0314 33FC 0004 		move.w #0x0004, TCTL1 | TCTL1=0b0_010_0
 471      00FF F600 
 472 031c 4E75      		rts
 473               	
 474               	/* SET_TIMER:
 475               	 *   タイマ割り込み時に起動するサブルーチンを設定
 476               	 *   t * 0.1 msec 秒毎に割り込みが発生するように設定
 477               	 * 
 478               	 * %D1.W: タイマ割り込み発生周期 t
 479               	 * %D2.L: 割り込み時に起動するルーチンの先頭アドレス p
 480               	 * （楠田・鴻上）
 481               	 */
 482               	SET_TIMER:
 483 031e 23C2 0000 		move.l %D2, task_p  /* 割り込み時に呼び出すサブルーチンのアドレスをtask_pに
 483      0000 
 484 0324 33FC 00CE 		move.w #206, TPRER1 /*カウンタ周波数を10000にする-> 周期0.1msec*/
 484      00FF F602 
 485 032c 33C1 00FF 		move.w %D1, TCMP1   /* TCMP1 = t （楠田・鴻上） */
 485      F604 
 486 0332 33FC 0015 		move.w #0x0015, TCTL1 /*比較割り込み許可, 1/16周期, タイマ許可*/
 486      00FF F600 
 487               	                          /* TCTL1 = 0b1_010_1 （楠田・鴻上）*/
 488 033a 4E75      		rts
 489               	
 490               	/* CALL_RP:
 491               	 *   タイマ割り込み時に処理すべきルーチンを呼び出す
 492               	 * （楠田・鴻上）
 493               	 */
 494               	CALL_RP:
 495 033c 2079 0000 		movea.l task_p, %A0 /*task_pを使ってジャンプできないためA0レジスタにアドレ
 495      0000 
 496 0342 4E90      		jsr  (%A0)  /* 割り込み時に起動するルーチンに遷移（楠田・鴻上） */
 497 0344 4E75      		rts
 498               	/*; ---- end include timer.s ----*/
 499               	
 500               	
 501               	uart1_interrupt:


 502               	/*送信割り込みベクタと受信割り込みベクタが同じであるため受信レジス
 503 0346 48E7 FFFE 	    movem.l %D0-%D7/%A0-%A6, -(%SP) | 使用するレジスタをスタックに保存
 504 034a 3039 00FF 	    move.w UTX1, %D0                | UTX1をD0レジスタにコピーし保存しておく
 504      F906 
 505 0350 3200      	    move.w %D0, %D1                 | 計算用にD1レジスタにコピー
 506 0352 E049      	    lsr.w #8, %D1
 507 0354 EE49      	    lsr.w #7, %D1                   | 15回右シフト（上位ビットは0埋め）
 508 0356 0C41 0001 	    cmpi.w #1, %D1                  | 0=FIFOが空ではない, 1=空である（割り込み発生
 509 035a 6600 0008 	    bne UART1_INTR_SKIP_PUT         | 送信割り込みでないならスキップ 受信割り込
 510 035e 7200      	    move.l #0, %D1                  | ch=%D1.L=0
 511 0360 4EBA FD86 	    jsr INTERPUT
 512               	UART1_INTR_SKIP_PUT:
 513 0364 3639 00FF 	    move.w URX1, %D3                | 受信レジスタ URX1 を %D3.W にコピー
 513      F904 
 514 036a 1403      	    move.b %D3, %D2                 | %D3.W の下位 8bit(データ部分) を %D2.B にコピー
 515 036c E04B      	    lsr.w #8, %D3
 516 036e EA4B      	    lsr.w #5, %D3                   | 13回右シフト（上位ビットは0埋め）
 517 0370 0243 0001 	    and.w #0x1, %D3                 | 0bit目以外を0に
 518 0374 0C43 0001 	    cmpi.w #1, %D3                  | 0 = 受信 FIFO にデータがない．1 = データがあ
 519 0378 6600 0008 	    bne UART1_INTR_SKIP_GET
 520 037c 4281      	    clr.l %D1                       | ch = %D1.L = 0, (data = %D2.Bは代入済)
 521 037e 4EBA FF24 	    jsr INTERGET
 522               	UART1_INTR_SKIP_GET:
 523 0382 4CDF 7FFF 	    movem.l (%SP)+, %D0-%D7/%A0-%A6 | レジスタを復帰
 524 0386 4E73      	    rte
 525               	    
 526               	    
 527               	    
 528               	uart2_interrupt:
 529               	/*送信割り込みベクタと受信割り込みベクタが同じであるため受信レジス
 530 0388 48E7 FFFE 	    movem.l %D0-%D7/%A0-%A6, -(%SP) | 使用するレジスタをスタックに保存
 531 038c 3039 00FF 	    move.w UTX2, %D0                | UTX2をD0レジスタにコピーし保存しておく
 531      F916 
 532 0392 3200      	    move.w %D0, %D1                 | 計算用にD1レジスタにコピー
 533 0394 E049      	    lsr.w #8, %D1
 534 0396 EE49      	    lsr.w #7, %D1                   | 15回右シフト（上位ビットは0埋め）
 535 0398 0C41 0001 	    cmpi.w #1, %D1                  | 0=FIFOが空ではない, 1=空である（割り込み発生
 536 039c 6600 0008 	    bne UART2_INTR_SKIP_PUT         | 送信割り込みでないならスキップ 受信割り込
 537 03a0 7201      	    move.l #1, %D1                  | ch=%D1.L=1
 538 03a2 4EBA FD44 	    jsr INTERPUT
 539               	UART2_INTR_SKIP_PUT:
 540 03a6 3639 00FF 	    move.w URX2, %D3                | 受信レジスタ URX2 を %D3.W にコピー
 540      F914 
 541 03ac 1403      	    move.b %D3, %D2                 | %D3.W の下位 8bit(データ部分) を %D2.B にコピー
 542 03ae E04B      	    lsr.w #8, %D3
 543 03b0 EA4B      	    lsr.w #5, %D3                   | 13回右シフト（上位ビットは0埋め）
 544 03b2 0243 0001 	    and.w #0x1, %D3                 | 0bit目以外を0に
 545 03b6 0C43 0001 	    cmpi.w #1, %D3                  | 0 = 受信 FIFO にデータがない．1 = データがあ
 546 03ba 6600 0008 	    bne UART2_INTR_SKIP_GET
 547 03be 7201      	    move.l #1, %D1                  | ch = %D1.L = 1, (data = %D2.Bは代入済)
 548 03c0 4EBA FEE2 	    jsr INTERGET
 549               	UART2_INTR_SKIP_GET:
 550 03c4 4CDF 7FFF 	    movem.l (%SP)+, %D0-%D7/%A0-%A6 | レジスタを復帰
 551 03c8 4E73      	    rte
 552               	    
 553               	    
 554               	    


 555               	tmr1_interrupt:
 556 03ca 48E7 FFFE 	    movem.l %D0-%D7/%A0-%A6,-(%SP)  | 使用するレジスタをスタックに保存
 557 03ce 0C80 0000 	    cmpi.l #5, %D0
 557      0005 
 558 03d4 6700 0014 	    beq TMR1_TRUE
 559 03d8 3039 00FF 	    move.w TSTAT1, %D0              | %D0=TSTAT1
 559      F60A 
 560 03de 0240 0001 	    and.w #0x1, %D0                 | 0bit目以外を0に
 561 03e2 0C40 0000 	    cmp.w #0, %D0
 562 03e6 6700 000C 	    beq TMR1_END                    | TSTAT1 の第 0 ビットが 1 となっているかどうか
 563               	    /*TASTAT1の第0ビットが0のときはコンペアイベントが起きていないためタ
 564               	TMR1_TRUE:    
 565 03ea 4279 00FF 	    clr.w TSTAT1                    | TSTAT1 を 0 クリア
 565      F60A 
 566 03f0 4EBA FF4A 	    jsr CALL_RP /*タイマ割り込みが発生した時に処理すべきルーチンに移動す
 567               	TMR1_END:
 568 03f4 4CDF 7FFF 	    movem.l (%SP)+, %D0-%D7/%A0-%A6 | レジスタを復帰
 569 03f8 4E73      	    rte
 570               	
 571               	.end




   1               	#NO_APP
   2               		.file	"csys68k.c"
   3               		.text
   4               	.Ltext0:
   5               		.cfi_sections	.debug_frame
   6               		.align	2
   7               		.globl	read
   8               		.type	read, @function
   9               	read:
  10               	.LVL0:
  11               	.LFB0:
  12               		.file 1 "csys68k.c"
   1:csys68k.c     **** #include <errno.h>
   2:csys68k.c     **** #include <stdarg.h>
   3:csys68k.c     **** #include <fcntl.h>
   4:csys68k.c     **** 
   5:csys68k.c     **** extern void outbyte(unsigned int ch, unsigned char c);
   6:csys68k.c     **** extern char inbyte(unsigned int ch);
   7:csys68k.c     **** 
   8:csys68k.c     **** int read(int fd, char *buf, int nbytes)
   9:csys68k.c     **** {
  13               		.loc 1 9 1 view -0
  14               		.cfi_startproc
  15               		.loc 1 9 1 is_stmt 0 view .LVU1
  16 0000 48E7 3C38 		movem.l #15416,-(%sp)
  17               		.cfi_def_cfa_offset 32
  18               		.cfi_offset 2, -32
  19               		.cfi_offset 3, -28
  20               		.cfi_offset 4, -24
  21               		.cfi_offset 5, -20
  22               		.cfi_offset 10, -16
  23               		.cfi_offset 11, -12
  24               		.cfi_offset 12, -8
  25 0004 282F 0020 		move.l 32(%sp),%d4
  26 0008 286F 0024 		move.l 36(%sp),%a4
  27 000c 2A2F 0028 		move.l 40(%sp),%d5
  10:csys68k.c     ****   char c;
  28               		.loc 1 10 3 is_stmt 1 view .LVU2
  11:csys68k.c     ****   int  i;
  29               		.loc 1 11 3 view .LVU3
  12:csys68k.c     ****   int ch;
  30               		.loc 1 12 3 view .LVU4
  13:csys68k.c     **** 
  14:csys68k.c     ****   if (fd == 0||fd == 3) ch =0;
  31               		.loc 1 14 3 view .LVU5
  32 0010 7003      		moveq #3,%d0
  33 0012 B084      		cmp.l %d4,%d0
  34 0014 6700 00B6 		jeq .L10
  35 0018 7004      		moveq #4,%d0
  36 001a B084      		cmp.l %d4,%d0
  37 001c 670E      		jeq .L11
  38 001e 4A84      		tst.l %d4
  39 0020 670C      		jeq .L2
  15:csys68k.c     ****   else if (fd == 4) ch = 1;
  16:csys68k.c     ****   else return EBADF;
  17:csys68k.c     ****   
  18:csys68k.c     ****   for (i = 0; i < nbytes; i++) {


  40               		.loc 1 18 10 is_stmt 0 view .LVU6
  41 0022 7609      		moveq #9,%d3
  42               	.L1:
  19:csys68k.c     ****     c = inbyte(ch);
  20:csys68k.c     **** 
  21:csys68k.c     ****     if (c == '\r' || c == '\n'){ /* CR -> CRLF */
  22:csys68k.c     ****       outbyte(ch, '\r');
  23:csys68k.c     ****       outbyte(ch, '\n');
  24:csys68k.c     ****       *(buf + i) = '\n';
  25:csys68k.c     **** 
  26:csys68k.c     ****     /* } else if (c == '\x8'){ */     /* backspace \x8 */
  27:csys68k.c     ****     } else if (c == '\x7f'){      /* backspace \x8 -> \x7f (by terminal config.) */
  28:csys68k.c     ****       if (i > 0){
  29:csys68k.c     **** 	outbyte(ch, '\x8'); /* bs  */
  30:csys68k.c     **** 	outbyte(ch, ' ');   /* spc */
  31:csys68k.c     **** 	outbyte(ch, '\x8'); /* bs  */
  32:csys68k.c     **** 	i--;
  33:csys68k.c     ****       }
  34:csys68k.c     ****       i--;
  35:csys68k.c     ****       continue;
  36:csys68k.c     **** 
  37:csys68k.c     ****     } else {
  38:csys68k.c     ****       outbyte(ch, c);
  39:csys68k.c     ****       *(buf + i) = c;
  40:csys68k.c     ****     }
  41:csys68k.c     **** 
  42:csys68k.c     ****     if (*(buf + i) == '\n'){
  43:csys68k.c     ****       return (i + 1);
  44:csys68k.c     ****     }
  45:csys68k.c     ****   }
  46:csys68k.c     ****   return (i);
  47:csys68k.c     **** }
  43               		.loc 1 47 1 view .LVU7
  44 0024 2003      		move.l %d3,%d0
  45 0026 4CDF 1C3C 		movem.l (%sp)+,#7228
  46 002a 4E75      		rts
  47               	.L11:
   9:csys68k.c     ****   char c;
  48               		.loc 1 9 1 view .LVU8
  49 002c 7801      		moveq #1,%d4
  50               	.L2:
  51               	.LVL1:
  18:csys68k.c     ****     c = inbyte(ch);
  52               		.loc 1 18 3 is_stmt 1 view .LVU9
  18:csys68k.c     ****     c = inbyte(ch);
  53               		.loc 1 18 17 view .LVU10
  18:csys68k.c     ****     c = inbyte(ch);
  54               		.loc 1 18 10 is_stmt 0 view .LVU11
  55 002e 7600      		moveq #0,%d3
  18:csys68k.c     ****     c = inbyte(ch);
  56               		.loc 1 18 17 view .LVU12
  57 0030 4A85      		tst.l %d5
  58 0032 6FF0      		jle .L1
  59 0034 47F9 0000 		lea inbyte,%a3
  59      0000 
  60 003a 45F9 0000 		lea outbyte,%a2
  60      0000 


  61               	.LVL2:
  62               	.L9:
  19:csys68k.c     ****     c = inbyte(ch);
  63               		.loc 1 19 5 is_stmt 1 view .LVU13
  19:csys68k.c     ****     c = inbyte(ch);
  64               		.loc 1 19 9 is_stmt 0 view .LVU14
  65 0040 2F04      		move.l %d4,-(%sp)
  66               		.cfi_def_cfa_offset 36
  67 0042 4E93      		jsr (%a3)
  68               	.LVL3:
  69 0044 1400      		move.b %d0,%d2
  70               	.LVL4:
  21:csys68k.c     ****       outbyte(ch, '\r');
  71               		.loc 1 21 5 is_stmt 1 view .LVU15
  21:csys68k.c     ****       outbyte(ch, '\r');
  72               		.loc 1 21 8 is_stmt 0 view .LVU16
  73 0046 588F      		addq.l #4,%sp
  74               		.cfi_def_cfa_offset 32
  75 0048 0C00 000D 		cmp.b #13,%d0
  76 004c 6730      		jeq .L4
  77               	.L24:
  21:csys68k.c     ****       outbyte(ch, '\r');
  78               		.loc 1 21 19 discriminator 1 view .LVU17
  79 004e 0C00 000A 		cmp.b #10,%d0
  80 0052 672A      		jeq .L4
  27:csys68k.c     ****       if (i > 0){
  81               		.loc 1 27 12 is_stmt 1 view .LVU18
  27:csys68k.c     ****       if (i > 0){
  82               		.loc 1 27 15 is_stmt 0 view .LVU19
  83 0054 0C00 007F 		cmp.b #127,%d0
  84 0058 6748      		jeq .L23
  38:csys68k.c     ****       *(buf + i) = c;
  85               		.loc 1 38 7 is_stmt 1 view .LVU20
  86 005a 7000      		moveq #0,%d0
  87               	.LVL5:
  38:csys68k.c     ****       *(buf + i) = c;
  88               		.loc 1 38 7 is_stmt 0 view .LVU21
  89 005c 1002      		move.b %d2,%d0
  90 005e 2F00      		move.l %d0,-(%sp)
  91               		.cfi_def_cfa_offset 36
  92 0060 2F04      		move.l %d4,-(%sp)
  93               		.cfi_def_cfa_offset 40
  94 0062 4E92      		jsr (%a2)
  95               	.LVL6:
  39:csys68k.c     ****     }
  96               		.loc 1 39 7 is_stmt 1 view .LVU22
  39:csys68k.c     ****     }
  97               		.loc 1 39 18 is_stmt 0 view .LVU23
  98 0064 1982 3800 		move.b %d2,(%a4,%d3.l)
  42:csys68k.c     ****       return (i + 1);
  99               		.loc 1 42 5 is_stmt 1 view .LVU24
  43:csys68k.c     ****     }
 100               		.loc 1 43 17 is_stmt 0 view .LVU25
 101 0068 5283      		addq.l #1,%d3
 102               	.LVL7:
  43:csys68k.c     ****     }
 103               		.loc 1 43 17 view .LVU26


 104 006a 508F      		addq.l #8,%sp
 105               		.cfi_def_cfa_offset 32
 106               	.LVL8:
  18:csys68k.c     ****     c = inbyte(ch);
 107               		.loc 1 18 28 is_stmt 1 view .LVU27
  18:csys68k.c     ****     c = inbyte(ch);
 108               		.loc 1 18 17 view .LVU28
 109 006c B685      		cmp.l %d5,%d3
 110 006e 6CB4      		jge .L1
 111               	.L22:
 112               	.LVL9:
  19:csys68k.c     **** 
 113               		.loc 1 19 5 view .LVU29
  19:csys68k.c     **** 
 114               		.loc 1 19 9 is_stmt 0 view .LVU30
 115 0070 2F04      		move.l %d4,-(%sp)
 116               		.cfi_def_cfa_offset 36
 117 0072 4E93      		jsr (%a3)
 118               	.LVL10:
 119 0074 1400      		move.b %d0,%d2
 120               	.LVL11:
  21:csys68k.c     ****       outbyte(ch, '\r');
 121               		.loc 1 21 5 is_stmt 1 view .LVU31
  21:csys68k.c     ****       outbyte(ch, '\r');
 122               		.loc 1 21 8 is_stmt 0 view .LVU32
 123 0076 588F      		addq.l #4,%sp
 124               		.cfi_def_cfa_offset 32
 125 0078 0C00 000D 		cmp.b #13,%d0
 126 007c 66D0      		jne .L24
 127               	.L4:
  22:csys68k.c     ****       outbyte(ch, '\n');
 128               		.loc 1 22 7 is_stmt 1 view .LVU33
 129 007e 4878 000D 		pea 13.w
 130               		.cfi_def_cfa_offset 36
 131 0082 2F04      		move.l %d4,-(%sp)
 132               		.cfi_def_cfa_offset 40
 133 0084 4E92      		jsr (%a2)
 134               	.LVL12:
  23:csys68k.c     ****       *(buf + i) = '\n';
 135               		.loc 1 23 7 view .LVU34
 136 0086 4878 000A 		pea 10.w
 137               		.cfi_def_cfa_offset 44
 138 008a 2F04      		move.l %d4,-(%sp)
 139               		.cfi_def_cfa_offset 48
 140 008c 4E92      		jsr (%a2)
 141               	.LVL13:
  24:csys68k.c     **** 
 142               		.loc 1 24 7 view .LVU35
  24:csys68k.c     **** 
 143               		.loc 1 24 18 is_stmt 0 view .LVU36
 144 008e 19BC 000A 		move.b #10,(%a4,%d3.l)
 144      3800 
  42:csys68k.c     ****       return (i + 1);
 145               		.loc 1 42 5 is_stmt 1 view .LVU37
  43:csys68k.c     ****     }
 146               		.loc 1 43 7 view .LVU38
  43:csys68k.c     ****     }


 147               		.loc 1 43 17 is_stmt 0 view .LVU39
 148 0094 5283      		addq.l #1,%d3
 149               	.LVL14:
  43:csys68k.c     ****     }
 150               		.loc 1 43 17 view .LVU40
 151 0096 4FEF 0010 		lea (16,%sp),%sp
 152               		.cfi_def_cfa_offset 32
 153               		.loc 1 47 1 view .LVU41
 154 009a 2003      		move.l %d3,%d0
 155 009c 4CDF 1C3C 		movem.l (%sp)+,#7228
 156               	.LVL15:
 157               		.loc 1 47 1 view .LVU42
 158 00a0 4E75      		rts
 159               	.LVL16:
 160               	.L23:
  28:csys68k.c     **** 	outbyte(ch, '\x8'); /* bs  */
 161               		.loc 1 28 7 is_stmt 1 view .LVU43
  28:csys68k.c     **** 	outbyte(ch, '\x8'); /* bs  */
 162               		.loc 1 28 10 is_stmt 0 view .LVU44
 163 00a2 4A83      		tst.l %d3
 164 00a4 679A      		jeq .L9
  32:csys68k.c     ****       }
 165               		.loc 1 32 3 view .LVU45
 166 00a6 5383      		subq.l #1,%d3
 167               	.LVL17:
  29:csys68k.c     **** 	outbyte(ch, ' ');   /* spc */
 168               		.loc 1 29 2 is_stmt 1 view .LVU46
 169 00a8 4878 0008 		pea 8.w
 170               		.cfi_def_cfa_offset 36
 171 00ac 2F04      		move.l %d4,-(%sp)
 172               		.cfi_def_cfa_offset 40
 173 00ae 4E92      		jsr (%a2)
 174               	.LVL18:
  30:csys68k.c     **** 	outbyte(ch, '\x8'); /* bs  */
 175               		.loc 1 30 2 view .LVU47
 176 00b0 4878 0020 		pea 32.w
 177               		.cfi_def_cfa_offset 44
 178 00b4 2F04      		move.l %d4,-(%sp)
 179               		.cfi_def_cfa_offset 48
 180 00b6 4E92      		jsr (%a2)
 181               	.LVL19:
  31:csys68k.c     **** 	i--;
 182               		.loc 1 31 2 view .LVU48
 183 00b8 4878 0008 		pea 8.w
 184               		.cfi_def_cfa_offset 52
 185 00bc 2F04      		move.l %d4,-(%sp)
 186               		.cfi_def_cfa_offset 56
 187 00be 4E92      		jsr (%a2)
 188               	.LVL20:
  32:csys68k.c     ****       }
 189               		.loc 1 32 2 view .LVU49
  34:csys68k.c     ****       continue;
 190               		.loc 1 34 7 view .LVU50
  35:csys68k.c     **** 
 191               		.loc 1 35 7 view .LVU51
 192 00c0 4FEF 0018 		lea (24,%sp),%sp
 193               		.cfi_def_cfa_offset 32


 194               	.LVL21:
  18:csys68k.c     ****     c = inbyte(ch);
 195               		.loc 1 18 28 view .LVU52
  18:csys68k.c     ****     c = inbyte(ch);
 196               		.loc 1 18 17 view .LVU53
 197 00c4 B685      		cmp.l %d5,%d3
 198 00c6 6DA8      		jlt .L22
 199 00c8 6000 FF5A 		jra .L1
 200               	.LVL22:
 201               	.L10:
   9:csys68k.c     ****   char c;
 202               		.loc 1 9 1 is_stmt 0 view .LVU54
 203 00cc 7800      		moveq #0,%d4
 204 00ce 6000 FF5E 		jra .L2
 205               		.cfi_endproc
 206               	.LFE0:
 207               		.size	read, .-read
 208               		.align	2
 209               		.globl	write
 210               		.type	write, @function
 211               	write:
 212               	.LVL23:
 213               	.LFB1:
  48:csys68k.c     **** 
  49:csys68k.c     **** int write (int fd, char *buf, int nbytes)
  50:csys68k.c     **** {
 214               		.loc 1 50 1 is_stmt 1 view -0
 215               		.cfi_startproc
 216               		.loc 1 50 1 is_stmt 0 view .LVU56
 217 00d2 48E7 3830 		movem.l #14384,-(%sp)
 218               		.cfi_def_cfa_offset 24
 219               		.cfi_offset 2, -24
 220               		.cfi_offset 3, -20
 221               		.cfi_offset 4, -16
 222               		.cfi_offset 10, -12
 223               		.cfi_offset 11, -8
 224 00d6 282F 0020 		move.l 32(%sp),%d4
  51:csys68k.c     ****   int i, j, ch;
 225               		.loc 1 51 3 is_stmt 1 view .LVU57
  52:csys68k.c     ****     
  53:csys68k.c     ****   if (fd == 1|| fd == 2 || fd == 3) ch =0;
 226               		.loc 1 53 3 view .LVU58
 227               		.loc 1 53 25 is_stmt 0 view .LVU59
 228 00da 202F 0018 		move.l 24(%sp),%d0
 229 00de 5380      		subq.l #1,%d0
 230               		.loc 1 53 6 view .LVU60
 231 00e0 7202      		moveq #2,%d1
 232 00e2 B280      		cmp.l %d0,%d1
 233 00e4 643E      		jcc .L32
  54:csys68k.c     ****   else if (fd == 4) ch = 1;
 234               		.loc 1 54 8 is_stmt 1 view .LVU61
 235               		.loc 1 54 11 is_stmt 0 view .LVU62
 236 00e6 7004      		moveq #4,%d0
 237 00e8 B0AF 0018 		cmp.l 24(%sp),%d0
 238 00ec 665C      		jne .L33
 239               		.loc 1 54 24 view .LVU63
 240 00ee 7401      		moveq #1,%d2


 241               	.L26:
 242               	.LVL24:
  55:csys68k.c     ****   else return EBADF;
  56:csys68k.c     **** 
  57:csys68k.c     ****   for (i = 0; i < nbytes; i++) {
 243               		.loc 1 57 3 is_stmt 1 view .LVU64
 244               		.loc 1 57 17 view .LVU65
 245 00f0 4A84      		tst.l %d4
 246 00f2 6F28      		jle .L31
 247 00f4 246F 001C 		move.l 28(%sp),%a2
 248 00f8 260A      		move.l %a2,%d3
 249 00fa D684      		add.l %d4,%d3
 250 00fc 47F9 0000 		lea outbyte,%a3
 250      0000 
 251               	.LVL25:
 252               	.L30:
  58:csys68k.c     ****     if (*(buf + i) == '\n') {
 253               		.loc 1 58 5 view .LVU66
 254               		.loc 1 58 9 is_stmt 0 view .LVU67
 255 0102 121A      		move.b (%a2)+,%d1
 256               	.LVL26:
 257               		.loc 1 58 8 view .LVU68
 258 0104 0C01 000A 		cmp.b #10,%d1
 259 0108 671E      		jeq .L37
  59:csys68k.c     ****       outbyte (ch, '\r');          /* LF -> CRLF */
  60:csys68k.c     ****     }
  61:csys68k.c     ****     outbyte (ch, *(buf + i));
 260               		.loc 1 61 5 is_stmt 1 view .LVU69
 261 010a 0281 0000 		and.l #255,%d1
 261      00FF 
 262 0110 2F01      		move.l %d1,-(%sp)
 263               		.cfi_def_cfa_offset 28
 264 0112 2F02      		move.l %d2,-(%sp)
 265               		.cfi_def_cfa_offset 32
 266 0114 4E93      		jsr (%a3)
 267               	.LVL27:
  62:csys68k.c     ****     for (j = 0; j < 300; j++);
 268               		.loc 1 62 5 view .LVU70
 269               		.loc 1 62 19 view .LVU71
  57:csys68k.c     ****     if (*(buf + i) == '\n') {
 270               		.loc 1 57 28 view .LVU72
  57:csys68k.c     ****     if (*(buf + i) == '\n') {
 271               		.loc 1 57 17 view .LVU73
 272 0116 508F      		addq.l #8,%sp
 273               		.cfi_def_cfa_offset 24
 274 0118 B5C3      		cmp.l %d3,%a2
 275 011a 66E6      		jne .L30
 276               	.LVL28:
 277               	.L31:
  55:csys68k.c     **** 
 278               		.loc 1 55 15 is_stmt 0 view .LVU74
 279 011c 2004      		move.l %d4,%d0
  63:csys68k.c     ****   }
  64:csys68k.c     ****   return (nbytes);
  65:csys68k.c     **** }
 280               		.loc 1 65 1 view .LVU75
 281 011e 4CDF 0C1C 		movem.l (%sp)+,#3100


 282               	.LVL29:
 283               		.loc 1 65 1 view .LVU76
 284 0122 4E75      		rts
 285               	.L32:
  53:csys68k.c     ****   else if (fd == 4) ch = 1;
 286               		.loc 1 53 40 view .LVU77
 287 0124 7400      		moveq #0,%d2
 288 0126 60C8      		jra .L26
 289               	.LVL30:
 290               	.L37:
  59:csys68k.c     ****     }
 291               		.loc 1 59 7 is_stmt 1 view .LVU78
 292 0128 4878 000D 		pea 13.w
 293               		.cfi_def_cfa_offset 28
 294 012c 2F02      		move.l %d2,-(%sp)
 295               		.cfi_def_cfa_offset 32
 296 012e 4E93      		jsr (%a3)
 297               	.LVL31:
  61:csys68k.c     ****     for (j = 0; j < 300; j++);
 298               		.loc 1 61 18 is_stmt 0 view .LVU79
 299 0130 122A FFFF 		move.b -1(%a2),%d1
 300 0134 508F      		addq.l #8,%sp
 301               		.cfi_def_cfa_offset 24
  61:csys68k.c     ****     for (j = 0; j < 300; j++);
 302               		.loc 1 61 5 is_stmt 1 view .LVU80
 303 0136 0281 0000 		and.l #255,%d1
 303      00FF 
 304 013c 2F01      		move.l %d1,-(%sp)
 305               		.cfi_def_cfa_offset 28
 306 013e 2F02      		move.l %d2,-(%sp)
 307               		.cfi_def_cfa_offset 32
 308 0140 4E93      		jsr (%a3)
 309               	.LVL32:
  62:csys68k.c     ****   }
 310               		.loc 1 62 5 view .LVU81
  62:csys68k.c     ****   }
 311               		.loc 1 62 19 view .LVU82
  57:csys68k.c     ****     if (*(buf + i) == '\n') {
 312               		.loc 1 57 28 view .LVU83
  57:csys68k.c     ****     if (*(buf + i) == '\n') {
 313               		.loc 1 57 17 view .LVU84
 314 0142 508F      		addq.l #8,%sp
 315               		.cfi_def_cfa_offset 24
 316 0144 B5C3      		cmp.l %d3,%a2
 317 0146 66BA      		jne .L30
 318 0148 60D2      		jra .L31
 319               	.LVL33:
 320               	.L33:
  55:csys68k.c     **** 
 321               		.loc 1 55 15 is_stmt 0 view .LVU85
 322 014a 7009      		moveq #9,%d0
 323               		.loc 1 65 1 view .LVU86
 324 014c 4CDF 0C1C 		movem.l (%sp)+,#3100
 325 0150 4E75      		rts
 326               		.cfi_endproc
 327               	.LFE1:
 328               		.size	write, .-write


 329               		.align	2
 330               		.globl	fcntl
 331               		.type	fcntl, @function
 332               	fcntl:
 333               	.LVL34:
 334               	.LFB2:
  66:csys68k.c     **** 
  67:csys68k.c     **** int fcntl(int fd, int cmd, ...){
 335               		.loc 1 67 32 is_stmt 1 view -0
 336               		.cfi_startproc
  68:csys68k.c     ****     if (cmd == F_GETFL) return O_RDWR;
 337               		.loc 1 68 5 view .LVU88
 338               		.loc 1 68 8 is_stmt 0 view .LVU89
 339 0152 7203      		moveq #3,%d1
 340 0154 B2AF 0008 		cmp.l 8(%sp),%d1
 341 0158 57C0      		seq %d0
 342 015a 4880      		ext.w %d0
 343 015c 48C0      		ext.l %d0
 344 015e 4480      		neg.l %d0
  69:csys68k.c     ****     else return 0;
  70:csys68k.c     **** }
 345               		.loc 1 70 1 view .LVU90
 346 0160 D080      		add.l %d0,%d0
 347 0162 4E75      		rts
 348               		.cfi_endproc
 349               	.LFE2:
 350               		.size	fcntl, .-fcntl
 351               	.Letext0:
 352               		.file 2 "/usr/local/m68k-elf/include/sys/_default_fcntl.h"
 353               		.section	.debug_info,"",@progbits
 354               	.Ldebug_info0:
 355 0000 0000 0229 		.long	0x229
 356 0004 0005      		.word	0x5
 357 0006 01        		.byte	0x1
 358 0007 04        		.byte	0x4
 359 0008 0000 0000 		.long	.Ldebug_abbrev0
 360 000c 08        		.uleb128 0x8
 361 000d 0000 0000 		.long	.LASF14
 362 0011 1D        		.byte	0x1d
 363 0012 0000 0000 		.long	.LASF15
 364 0016 0000 0000 		.long	.LASF16
 365 001a 0000 0000 		.long	.Ltext0
 366 001e 0000 0164 		.long	.Letext0-.Ltext0
 367 0022 0000 0000 		.long	.Ldebug_line0
 368 0026 09        		.uleb128 0x9
 369 0027 04        		.byte	0x4
 370 0028 05        		.byte	0x5
 371 0029 696E 7400 		.string	"int"
 372 002d 01        		.uleb128 0x1
 373 002e 04        		.byte	0x4
 374 002f 05        		.byte	0x5
 375 0030 0000 0000 		.long	.LASF0
 376 0034 01        		.uleb128 0x1
 377 0035 04        		.byte	0x4
 378 0036 07        		.byte	0x7
 379 0037 0000 0000 		.long	.LASF1
 380 003b 01        		.uleb128 0x1


 381 003c 08        		.byte	0x8
 382 003d 05        		.byte	0x5
 383 003e 0000 0000 		.long	.LASF2
 384 0042 01        		.uleb128 0x1
 385 0043 0C        		.byte	0xc
 386 0044 04        		.byte	0x4
 387 0045 0000 0000 		.long	.LASF3
 388 0049 01        		.uleb128 0x1
 389 004a 04        		.byte	0x4
 390 004b 07        		.byte	0x7
 391 004c 0000 0000 		.long	.LASF4
 392 0050 01        		.uleb128 0x1
 393 0051 01        		.byte	0x1
 394 0052 06        		.byte	0x6
 395 0053 0000 0000 		.long	.LASF5
 396 0057 01        		.uleb128 0x1
 397 0058 01        		.byte	0x1
 398 0059 08        		.byte	0x8
 399 005a 0000 0000 		.long	.LASF6
 400 005e 01        		.uleb128 0x1
 401 005f 02        		.byte	0x2
 402 0060 05        		.byte	0x5
 403 0061 0000 0000 		.long	.LASF7
 404 0065 01        		.uleb128 0x1
 405 0066 02        		.byte	0x2
 406 0067 07        		.byte	0x7
 407 0068 0000 0000 		.long	.LASF8
 408 006c 01        		.uleb128 0x1
 409 006d 08        		.byte	0x8
 410 006e 07        		.byte	0x7
 411 006f 0000 0000 		.long	.LASF9
 412 0073 0A        		.uleb128 0xa
 413 0074 04        		.byte	0x4
 414 0075 0000 0079 		.long	0x79
 415 0079 01        		.uleb128 0x1
 416 007a 01        		.byte	0x1
 417 007b 06        		.byte	0x6
 418 007c 0000 0000 		.long	.LASF10
 419 0080 0B        		.uleb128 0xb
 420 0081 0000 0000 		.long	.LASF17
 421 0085 01        		.byte	0x1
 422 0086 05        		.byte	0x5
 423 0087 0D        		.byte	0xd
 424 0088 0000 0097 		.long	0x97
 425 008c 05        		.uleb128 0x5
 426 008d 0000 0049 		.long	0x49
 427 0091 05        		.uleb128 0x5
 428 0092 0000 0057 		.long	0x57
 429 0096 00        		.byte	0
 430 0097 0C        		.uleb128 0xc
 431 0098 0000 0000 		.long	.LASF18
 432 009c 01        		.byte	0x1
 433 009d 06        		.byte	0x6
 434 009e 0D        		.byte	0xd
 435 009f 0000 0079 		.long	0x79
 436 00a3 0000 00AD 		.long	0xad
 437 00a7 05        		.uleb128 0x5


 438 00a8 0000 0049 		.long	0x49
 439 00ac 00        		.byte	0
 440 00ad 06        		.uleb128 0x6
 441 00ae 0000 0000 		.long	.LASF11
 442 00b2 02        		.byte	0x2
 443 00b3 DA        		.byte	0xda
 444 00b4 0C        		.byte	0xc
 445 00b5 0000 0026 		.long	0x26
 446 00b9 0000 0000 		.long	.LFB2
 447 00bd 0000 0012 		.long	.LFE2-.LFB2
 448 00c1 01        		.uleb128 0x1
 449 00c2 9C        		.byte	0x9c
 450 00c3 0000 00E4 		.long	0xe4
 451 00c7 03        		.uleb128 0x3
 452 00c8 6664 00   		.string	"fd"
 453 00cb 43        		.byte	0x43
 454 00cc 0F        		.byte	0xf
 455 00cd 0000 0026 		.long	0x26
 456 00d1 02        		.uleb128 0x2
 457 00d2 91        		.byte	0x91
 458 00d3 00        		.sleb128 0
 459 00d4 03        		.uleb128 0x3
 460 00d5 636D 6400 		.string	"cmd"
 461 00d9 43        		.byte	0x43
 462 00da 17        		.byte	0x17
 463 00db 0000 0026 		.long	0x26
 464 00df 02        		.uleb128 0x2
 465 00e0 91        		.byte	0x91
 466 00e1 04        		.sleb128 4
 467 00e2 0D        		.uleb128 0xd
 468 00e3 00        		.byte	0
 469 00e4 06        		.uleb128 0x6
 470 00e5 0000 0000 		.long	.LASF12
 471 00e9 01        		.byte	0x1
 472 00ea 31        		.byte	0x31
 473 00eb 05        		.byte	0x5
 474 00ec 0000 0026 		.long	0x26
 475 00f0 0000 0000 		.long	.LFB1
 476 00f4 0000 0080 		.long	.LFE1-.LFB1
 477 00f8 01        		.uleb128 0x1
 478 00f9 9C        		.byte	0x9c
 479 00fa 0000 0170 		.long	0x170
 480 00fe 03        		.uleb128 0x3
 481 00ff 6664 00   		.string	"fd"
 482 0102 31        		.byte	0x31
 483 0103 10        		.byte	0x10
 484 0104 0000 0026 		.long	0x26
 485 0108 02        		.uleb128 0x2
 486 0109 91        		.byte	0x91
 487 010a 00        		.sleb128 0
 488 010b 03        		.uleb128 0x3
 489 010c 6275 6600 		.string	"buf"
 490 0110 31        		.byte	0x31
 491 0111 1A        		.byte	0x1a
 492 0112 0000 0073 		.long	0x73
 493 0116 02        		.uleb128 0x2
 494 0117 91        		.byte	0x91


 495 0118 04        		.sleb128 4
 496 0119 07        		.uleb128 0x7
 497 011a 0000 0000 		.long	.LASF13
 498 011e 31        		.byte	0x31
 499 011f 23        		.byte	0x23
 500 0120 0000 0026 		.long	0x26
 501 0124 02        		.uleb128 0x2
 502 0125 91        		.byte	0x91
 503 0126 08        		.sleb128 8
 504 0127 04        		.uleb128 0x4
 505 0128 6900      		.string	"i"
 506 012a 33        		.byte	0x33
 507 012b 07        		.byte	0x7
 508 012c 0000 0026 		.long	0x26
 509 0130 0000 0000 		.long	.LLST3
 510 0134 0000 0000 		.long	.LVUS3
 511 0138 0E        		.uleb128 0xe
 512 0139 6A00      		.string	"j"
 513 013b 01        		.byte	0x1
 514 013c 33        		.byte	0x33
 515 013d 0A        		.byte	0xa
 516 013e 0000 0026 		.long	0x26
 517 0142 04        		.uleb128 0x4
 518 0143 6368 00   		.string	"ch"
 519 0146 33        		.byte	0x33
 520 0147 0D        		.byte	0xd
 521 0148 0000 0026 		.long	0x26
 522 014c 0000 0000 		.long	.LLST4
 523 0150 0000 0000 		.long	.LVUS4
 524 0154 02        		.uleb128 0x2
 525 0155 0000 0000 		.long	.LVL27
 526 0159 0000 0080 		.long	0x80
 527 015d 02        		.uleb128 0x2
 528 015e 0000 0000 		.long	.LVL31
 529 0162 0000 0080 		.long	0x80
 530 0166 02        		.uleb128 0x2
 531 0167 0000 0000 		.long	.LVL32
 532 016b 0000 0080 		.long	0x80
 533 016f 00        		.byte	0
 534 0170 0F        		.uleb128 0xf
 535 0171 0000 0000 		.long	.LASF19
 536 0175 01        		.byte	0x1
 537 0176 08        		.byte	0x8
 538 0177 05        		.byte	0x5
 539 0178 0000 0026 		.long	0x26
 540 017c 0000 0000 		.long	.LFB0
 541 0180 0000 00D2 		.long	.LFE0-.LFB0
 542 0184 01        		.uleb128 0x1
 543 0185 9C        		.byte	0x9c
 544 0186 03        		.uleb128 0x3
 545 0187 6664 00   		.string	"fd"
 546 018a 08        		.byte	0x8
 547 018b 0E        		.byte	0xe
 548 018c 0000 0026 		.long	0x26
 549 0190 02        		.uleb128 0x2
 550 0191 91        		.byte	0x91
 551 0192 00        		.sleb128 0


 552 0193 03        		.uleb128 0x3
 553 0194 6275 6600 		.string	"buf"
 554 0198 08        		.byte	0x8
 555 0199 18        		.byte	0x18
 556 019a 0000 0073 		.long	0x73
 557 019e 02        		.uleb128 0x2
 558 019f 91        		.byte	0x91
 559 01a0 04        		.sleb128 4
 560 01a1 07        		.uleb128 0x7
 561 01a2 0000 0000 		.long	.LASF13
 562 01a6 08        		.byte	0x8
 563 01a7 21        		.byte	0x21
 564 01a8 0000 0026 		.long	0x26
 565 01ac 02        		.uleb128 0x2
 566 01ad 91        		.byte	0x91
 567 01ae 08        		.sleb128 8
 568 01af 04        		.uleb128 0x4
 569 01b0 6300      		.string	"c"
 570 01b2 0A        		.byte	0xa
 571 01b3 08        		.byte	0x8
 572 01b4 0000 0079 		.long	0x79
 573 01b8 0000 0000 		.long	.LLST0
 574 01bc 0000 0000 		.long	.LVUS0
 575 01c0 04        		.uleb128 0x4
 576 01c1 6900      		.string	"i"
 577 01c3 0B        		.byte	0xb
 578 01c4 08        		.byte	0x8
 579 01c5 0000 0026 		.long	0x26
 580 01c9 0000 0000 		.long	.LLST1
 581 01cd 0000 0000 		.long	.LVUS1
 582 01d1 04        		.uleb128 0x4
 583 01d2 6368 00   		.string	"ch"
 584 01d5 0C        		.byte	0xc
 585 01d6 07        		.byte	0x7
 586 01d7 0000 0026 		.long	0x26
 587 01db 0000 0000 		.long	.LLST2
 588 01df 0000 0000 		.long	.LVUS2
 589 01e3 02        		.uleb128 0x2
 590 01e4 0000 0000 		.long	.LVL3
 591 01e8 0000 0097 		.long	0x97
 592 01ec 02        		.uleb128 0x2
 593 01ed 0000 0000 		.long	.LVL6
 594 01f1 0000 0080 		.long	0x80
 595 01f5 02        		.uleb128 0x2
 596 01f6 0000 0000 		.long	.LVL10
 597 01fa 0000 0097 		.long	0x97
 598 01fe 02        		.uleb128 0x2
 599 01ff 0000 0000 		.long	.LVL12
 600 0203 0000 0080 		.long	0x80
 601 0207 02        		.uleb128 0x2
 602 0208 0000 0000 		.long	.LVL13
 603 020c 0000 0080 		.long	0x80
 604 0210 02        		.uleb128 0x2
 605 0211 0000 0000 		.long	.LVL18
 606 0215 0000 0080 		.long	0x80
 607 0219 02        		.uleb128 0x2
 608 021a 0000 0000 		.long	.LVL19


 609 021e 0000 0080 		.long	0x80
 610 0222 02        		.uleb128 0x2
 611 0223 0000 0000 		.long	.LVL20
 612 0227 0000 0080 		.long	0x80
 613 022b 00        		.byte	0
 614 022c 00        		.byte	0
 615               		.section	.debug_abbrev,"",@progbits
 616               	.Ldebug_abbrev0:
 617 0000 01        		.uleb128 0x1
 618 0001 24        		.uleb128 0x24
 619 0002 00        		.byte	0
 620 0003 0B        		.uleb128 0xb
 621 0004 0B        		.uleb128 0xb
 622 0005 3E        		.uleb128 0x3e
 623 0006 0B        		.uleb128 0xb
 624 0007 03        		.uleb128 0x3
 625 0008 0E        		.uleb128 0xe
 626 0009 00        		.byte	0
 627 000a 00        		.byte	0
 628 000b 02        		.uleb128 0x2
 629 000c 48        		.uleb128 0x48
 630 000d 00        		.byte	0
 631 000e 7D        		.uleb128 0x7d
 632 000f 01        		.uleb128 0x1
 633 0010 7F        		.uleb128 0x7f
 634 0011 13        		.uleb128 0x13
 635 0012 00        		.byte	0
 636 0013 00        		.byte	0
 637 0014 03        		.uleb128 0x3
 638 0015 05        		.uleb128 0x5
 639 0016 00        		.byte	0
 640 0017 03        		.uleb128 0x3
 641 0018 08        		.uleb128 0x8
 642 0019 3A        		.uleb128 0x3a
 643 001a 21        		.uleb128 0x21
 644 001b 01        		.sleb128 1
 645 001c 3B        		.uleb128 0x3b
 646 001d 0B        		.uleb128 0xb
 647 001e 39        		.uleb128 0x39
 648 001f 0B        		.uleb128 0xb
 649 0020 49        		.uleb128 0x49
 650 0021 13        		.uleb128 0x13
 651 0022 02        		.uleb128 0x2
 652 0023 18        		.uleb128 0x18
 653 0024 00        		.byte	0
 654 0025 00        		.byte	0
 655 0026 04        		.uleb128 0x4
 656 0027 34        		.uleb128 0x34
 657 0028 00        		.byte	0
 658 0029 03        		.uleb128 0x3
 659 002a 08        		.uleb128 0x8
 660 002b 3A        		.uleb128 0x3a
 661 002c 21        		.uleb128 0x21
 662 002d 01        		.sleb128 1
 663 002e 3B        		.uleb128 0x3b
 664 002f 0B        		.uleb128 0xb
 665 0030 39        		.uleb128 0x39


 666 0031 0B        		.uleb128 0xb
 667 0032 49        		.uleb128 0x49
 668 0033 13        		.uleb128 0x13
 669 0034 02        		.uleb128 0x2
 670 0035 17        		.uleb128 0x17
 671 0036 B742      		.uleb128 0x2137
 672 0038 17        		.uleb128 0x17
 673 0039 00        		.byte	0
 674 003a 00        		.byte	0
 675 003b 05        		.uleb128 0x5
 676 003c 05        		.uleb128 0x5
 677 003d 00        		.byte	0
 678 003e 49        		.uleb128 0x49
 679 003f 13        		.uleb128 0x13
 680 0040 00        		.byte	0
 681 0041 00        		.byte	0
 682 0042 06        		.uleb128 0x6
 683 0043 2E        		.uleb128 0x2e
 684 0044 01        		.byte	0x1
 685 0045 3F        		.uleb128 0x3f
 686 0046 19        		.uleb128 0x19
 687 0047 03        		.uleb128 0x3
 688 0048 0E        		.uleb128 0xe
 689 0049 3A        		.uleb128 0x3a
 690 004a 0B        		.uleb128 0xb
 691 004b 3B        		.uleb128 0x3b
 692 004c 0B        		.uleb128 0xb
 693 004d 39        		.uleb128 0x39
 694 004e 0B        		.uleb128 0xb
 695 004f 27        		.uleb128 0x27
 696 0050 19        		.uleb128 0x19
 697 0051 49        		.uleb128 0x49
 698 0052 13        		.uleb128 0x13
 699 0053 11        		.uleb128 0x11
 700 0054 01        		.uleb128 0x1
 701 0055 12        		.uleb128 0x12
 702 0056 06        		.uleb128 0x6
 703 0057 40        		.uleb128 0x40
 704 0058 18        		.uleb128 0x18
 705 0059 7A        		.uleb128 0x7a
 706 005a 19        		.uleb128 0x19
 707 005b 01        		.uleb128 0x1
 708 005c 13        		.uleb128 0x13
 709 005d 00        		.byte	0
 710 005e 00        		.byte	0
 711 005f 07        		.uleb128 0x7
 712 0060 05        		.uleb128 0x5
 713 0061 00        		.byte	0
 714 0062 03        		.uleb128 0x3
 715 0063 0E        		.uleb128 0xe
 716 0064 3A        		.uleb128 0x3a
 717 0065 21        		.uleb128 0x21
 718 0066 01        		.sleb128 1
 719 0067 3B        		.uleb128 0x3b
 720 0068 0B        		.uleb128 0xb
 721 0069 39        		.uleb128 0x39
 722 006a 0B        		.uleb128 0xb


 723 006b 49        		.uleb128 0x49
 724 006c 13        		.uleb128 0x13
 725 006d 02        		.uleb128 0x2
 726 006e 18        		.uleb128 0x18
 727 006f 00        		.byte	0
 728 0070 00        		.byte	0
 729 0071 08        		.uleb128 0x8
 730 0072 11        		.uleb128 0x11
 731 0073 01        		.byte	0x1
 732 0074 25        		.uleb128 0x25
 733 0075 0E        		.uleb128 0xe
 734 0076 13        		.uleb128 0x13
 735 0077 0B        		.uleb128 0xb
 736 0078 03        		.uleb128 0x3
 737 0079 0E        		.uleb128 0xe
 738 007a 1B        		.uleb128 0x1b
 739 007b 0E        		.uleb128 0xe
 740 007c 11        		.uleb128 0x11
 741 007d 01        		.uleb128 0x1
 742 007e 12        		.uleb128 0x12
 743 007f 06        		.uleb128 0x6
 744 0080 10        		.uleb128 0x10
 745 0081 17        		.uleb128 0x17
 746 0082 00        		.byte	0
 747 0083 00        		.byte	0
 748 0084 09        		.uleb128 0x9
 749 0085 24        		.uleb128 0x24
 750 0086 00        		.byte	0
 751 0087 0B        		.uleb128 0xb
 752 0088 0B        		.uleb128 0xb
 753 0089 3E        		.uleb128 0x3e
 754 008a 0B        		.uleb128 0xb
 755 008b 03        		.uleb128 0x3
 756 008c 08        		.uleb128 0x8
 757 008d 00        		.byte	0
 758 008e 00        		.byte	0
 759 008f 0A        		.uleb128 0xa
 760 0090 0F        		.uleb128 0xf
 761 0091 00        		.byte	0
 762 0092 0B        		.uleb128 0xb
 763 0093 0B        		.uleb128 0xb
 764 0094 49        		.uleb128 0x49
 765 0095 13        		.uleb128 0x13
 766 0096 00        		.byte	0
 767 0097 00        		.byte	0
 768 0098 0B        		.uleb128 0xb
 769 0099 2E        		.uleb128 0x2e
 770 009a 01        		.byte	0x1
 771 009b 3F        		.uleb128 0x3f
 772 009c 19        		.uleb128 0x19
 773 009d 03        		.uleb128 0x3
 774 009e 0E        		.uleb128 0xe
 775 009f 3A        		.uleb128 0x3a
 776 00a0 0B        		.uleb128 0xb
 777 00a1 3B        		.uleb128 0x3b
 778 00a2 0B        		.uleb128 0xb
 779 00a3 39        		.uleb128 0x39


 780 00a4 0B        		.uleb128 0xb
 781 00a5 27        		.uleb128 0x27
 782 00a6 19        		.uleb128 0x19
 783 00a7 3C        		.uleb128 0x3c
 784 00a8 19        		.uleb128 0x19
 785 00a9 01        		.uleb128 0x1
 786 00aa 13        		.uleb128 0x13
 787 00ab 00        		.byte	0
 788 00ac 00        		.byte	0
 789 00ad 0C        		.uleb128 0xc
 790 00ae 2E        		.uleb128 0x2e
 791 00af 01        		.byte	0x1
 792 00b0 3F        		.uleb128 0x3f
 793 00b1 19        		.uleb128 0x19
 794 00b2 03        		.uleb128 0x3
 795 00b3 0E        		.uleb128 0xe
 796 00b4 3A        		.uleb128 0x3a
 797 00b5 0B        		.uleb128 0xb
 798 00b6 3B        		.uleb128 0x3b
 799 00b7 0B        		.uleb128 0xb
 800 00b8 39        		.uleb128 0x39
 801 00b9 0B        		.uleb128 0xb
 802 00ba 27        		.uleb128 0x27
 803 00bb 19        		.uleb128 0x19
 804 00bc 49        		.uleb128 0x49
 805 00bd 13        		.uleb128 0x13
 806 00be 3C        		.uleb128 0x3c
 807 00bf 19        		.uleb128 0x19
 808 00c0 01        		.uleb128 0x1
 809 00c1 13        		.uleb128 0x13
 810 00c2 00        		.byte	0
 811 00c3 00        		.byte	0
 812 00c4 0D        		.uleb128 0xd
 813 00c5 18        		.uleb128 0x18
 814 00c6 00        		.byte	0
 815 00c7 00        		.byte	0
 816 00c8 00        		.byte	0
 817 00c9 0E        		.uleb128 0xe
 818 00ca 34        		.uleb128 0x34
 819 00cb 00        		.byte	0
 820 00cc 03        		.uleb128 0x3
 821 00cd 08        		.uleb128 0x8
 822 00ce 3A        		.uleb128 0x3a
 823 00cf 0B        		.uleb128 0xb
 824 00d0 3B        		.uleb128 0x3b
 825 00d1 0B        		.uleb128 0xb
 826 00d2 39        		.uleb128 0x39
 827 00d3 0B        		.uleb128 0xb
 828 00d4 49        		.uleb128 0x49
 829 00d5 13        		.uleb128 0x13
 830 00d6 00        		.byte	0
 831 00d7 00        		.byte	0
 832 00d8 0F        		.uleb128 0xf
 833 00d9 2E        		.uleb128 0x2e
 834 00da 01        		.byte	0x1
 835 00db 3F        		.uleb128 0x3f
 836 00dc 19        		.uleb128 0x19


 837 00dd 03        		.uleb128 0x3
 838 00de 0E        		.uleb128 0xe
 839 00df 3A        		.uleb128 0x3a
 840 00e0 0B        		.uleb128 0xb
 841 00e1 3B        		.uleb128 0x3b
 842 00e2 0B        		.uleb128 0xb
 843 00e3 39        		.uleb128 0x39
 844 00e4 0B        		.uleb128 0xb
 845 00e5 27        		.uleb128 0x27
 846 00e6 19        		.uleb128 0x19
 847 00e7 49        		.uleb128 0x49
 848 00e8 13        		.uleb128 0x13
 849 00e9 11        		.uleb128 0x11
 850 00ea 01        		.uleb128 0x1
 851 00eb 12        		.uleb128 0x12
 852 00ec 06        		.uleb128 0x6
 853 00ed 40        		.uleb128 0x40
 854 00ee 18        		.uleb128 0x18
 855 00ef 7A        		.uleb128 0x7a
 856 00f0 19        		.uleb128 0x19
 857 00f1 00        		.byte	0
 858 00f2 00        		.byte	0
 859 00f3 00        		.byte	0
 860               		.section	.debug_loclists,"",@progbits
 861 0000 0000 0116 		.long	.Ldebug_loc3-.Ldebug_loc2
 862               	.Ldebug_loc2:
 863 0004 0005      		.word	0x5
 864 0006 04        		.byte	0x4
 865 0007 00        		.byte	0
 866 0008 0000 0000 		.long	0
 867               	.Ldebug_loc0:
 868               	.LVUS3:
 869 000c 01        		.uleb128 .LVU65
 870 000d 00        		.uleb128 .LVU66
 871 000e 00        		.uleb128 .LVU66
 872 000f 00        		.uleb128 .LVU68
 873 0010 00        		.uleb128 .LVU68
 874 0011 03        		.uleb128 .LVU73
 875 0012 03        		.uleb128 .LVU73
 876 0013 00        		.uleb128 .LVU74
 877 0014 00        		.uleb128 .LVU78
 878 0015 03        		.uleb128 .LVU84
 879 0016 03        		.uleb128 .LVU84
 880 0017 00        		.uleb128 .LVU85
 881               	.LLST3:
 882 0018 04        		.byte	0x4
 883 0019 F001      		.uleb128 .LVL24-.Ltext0
 884 001b 8202      		.uleb128 .LVL25-.Ltext0
 885 001d 02        		.uleb128 0x2
 886 001e 30        		.byte	0x30
 887 001f 9F        		.byte	0x9f
 888 0020 04        		.byte	0x4
 889 0021 8202      		.uleb128 .LVL25-.Ltext0
 890 0023 8402      		.uleb128 .LVL26-.Ltext0
 891 0025 07        		.uleb128 0x7
 892 0026 7A        		.byte	0x7a
 893 0027 00        		.sleb128 0


 894 0028 91        		.byte	0x91
 895 0029 74        		.sleb128 -12
 896 002a 06        		.byte	0x6
 897 002b 1C        		.byte	0x1c
 898 002c 9F        		.byte	0x9f
 899 002d 04        		.byte	0x4
 900 002e 8402      		.uleb128 .LVL26-.Ltext0
 901 0030 9602      		.uleb128 .LVL27-.Ltext0
 902 0032 08        		.uleb128 0x8
 903 0033 91        		.byte	0x91
 904 0034 74        		.sleb128 -12
 905 0035 06        		.byte	0x6
 906 0036 20        		.byte	0x20
 907 0037 7A        		.byte	0x7a
 908 0038 00        		.sleb128 0
 909 0039 22        		.byte	0x22
 910 003a 9F        		.byte	0x9f
 911 003b 04        		.byte	0x4
 912 003c 9602      		.uleb128 .LVL27-.Ltext0
 913 003e 9C02      		.uleb128 .LVL28-.Ltext0
 914 0040 07        		.uleb128 0x7
 915 0041 7A        		.byte	0x7a
 916 0042 00        		.sleb128 0
 917 0043 91        		.byte	0x91
 918 0044 74        		.sleb128 -12
 919 0045 06        		.byte	0x6
 920 0046 1C        		.byte	0x1c
 921 0047 9F        		.byte	0x9f
 922 0048 04        		.byte	0x4
 923 0049 A802      		.uleb128 .LVL30-.Ltext0
 924 004b C202      		.uleb128 .LVL32-.Ltext0
 925 004d 08        		.uleb128 0x8
 926 004e 91        		.byte	0x91
 927 004f 74        		.sleb128 -12
 928 0050 06        		.byte	0x6
 929 0051 20        		.byte	0x20
 930 0052 7A        		.byte	0x7a
 931 0053 00        		.sleb128 0
 932 0054 22        		.byte	0x22
 933 0055 9F        		.byte	0x9f
 934 0056 04        		.byte	0x4
 935 0057 C202      		.uleb128 .LVL32-.Ltext0
 936 0059 CA02      		.uleb128 .LVL33-.Ltext0
 937 005b 07        		.uleb128 0x7
 938 005c 7A        		.byte	0x7a
 939 005d 00        		.sleb128 0
 940 005e 91        		.byte	0x91
 941 005f 74        		.sleb128 -12
 942 0060 06        		.byte	0x6
 943 0061 1C        		.byte	0x1c
 944 0062 9F        		.byte	0x9f
 945 0063 00        		.byte	0
 946               	.LVUS4:
 947 0064 00        		.uleb128 .LVU64
 948 0065 00        		.uleb128 .LVU76
 949 0066 00        		.uleb128 .LVU78
 950 0067 00        		.uleb128 .LVU85


 951               	.LLST4:
 952 0068 04        		.byte	0x4
 953 0069 F001      		.uleb128 .LVL24-.Ltext0
 954 006b A202      		.uleb128 .LVL29-.Ltext0
 955 006d 01        		.uleb128 0x1
 956 006e 52        		.byte	0x52
 957 006f 04        		.byte	0x4
 958 0070 A802      		.uleb128 .LVL30-.Ltext0
 959 0072 CA02      		.uleb128 .LVL33-.Ltext0
 960 0074 01        		.uleb128 0x1
 961 0075 52        		.byte	0x52
 962 0076 00        		.byte	0
 963               	.LVUS0:
 964 0077 00        		.uleb128 .LVU15
 965 0078 00        		.uleb128 .LVU21
 966 0079 00        		.uleb128 .LVU21
 967 007a 00        		.uleb128 .LVU31
 968 007b 00        		.uleb128 .LVU31
 969 007c 00        		.uleb128 .LVU34
 970 007d 00        		.uleb128 .LVU34
 971 007e 00        		.uleb128 .LVU42
 972 007f 00        		.uleb128 .LVU43
 973 0080 00        		.uleb128 .LVU47
 974 0081 00        		.uleb128 .LVU47
 975 0082 00        		.uleb128 .LVU54
 976               	.LLST0:
 977 0083 04        		.byte	0x4
 978 0084 46        		.uleb128 .LVL4-.Ltext0
 979 0085 5C        		.uleb128 .LVL5-.Ltext0
 980 0086 01        		.uleb128 0x1
 981 0087 50        		.byte	0x50
 982 0088 04        		.byte	0x4
 983 0089 5C        		.uleb128 .LVL5-.Ltext0
 984 008a 76        		.uleb128 .LVL11-.Ltext0
 985 008b 01        		.uleb128 0x1
 986 008c 52        		.byte	0x52
 987 008d 04        		.byte	0x4
 988 008e 76        		.uleb128 .LVL11-.Ltext0
 989 008f 8501      		.uleb128 .LVL12-1-.Ltext0
 990 0091 01        		.uleb128 0x1
 991 0092 50        		.byte	0x50
 992 0093 04        		.byte	0x4
 993 0094 8501      		.uleb128 .LVL12-1-.Ltext0
 994 0096 A001      		.uleb128 .LVL15-.Ltext0
 995 0098 01        		.uleb128 0x1
 996 0099 52        		.byte	0x52
 997 009a 04        		.byte	0x4
 998 009b A201      		.uleb128 .LVL16-.Ltext0
 999 009d AF01      		.uleb128 .LVL18-1-.Ltext0
 1000 009f 01        		.uleb128 0x1
 1001 00a0 50        		.byte	0x50
 1002 00a1 04        		.byte	0x4
 1003 00a2 AF01      		.uleb128 .LVL18-1-.Ltext0
 1004 00a4 CC01      		.uleb128 .LVL22-.Ltext0
 1005 00a6 01        		.uleb128 0x1
 1006 00a7 52        		.byte	0x52
 1007 00a8 00        		.byte	0


 1008               	.LVUS1:
 1009 00a9 01        		.uleb128 .LVU10
 1010 00aa 00        		.uleb128 .LVU13
 1011 00ab 00        		.uleb128 .LVU13
 1012 00ac 00        		.uleb128 .LVU26
 1013 00ad 00        		.uleb128 .LVU26
 1014 00ae 00        		.uleb128 .LVU27
 1015 00af 00        		.uleb128 .LVU29
 1016 00b0 00        		.uleb128 .LVU40
 1017 00b1 00        		.uleb128 .LVU40
 1018 00b2 00        		.uleb128 .LVU42
 1019 00b3 00        		.uleb128 .LVU42
 1020 00b4 00        		.uleb128 .LVU43
 1021 00b5 00        		.uleb128 .LVU43
 1022 00b6 00        		.uleb128 .LVU46
 1023 00b7 00        		.uleb128 .LVU46
 1024 00b8 01        		.uleb128 .LVU50
 1025 00b9 01        		.uleb128 .LVU50
 1026 00ba 02        		.uleb128 .LVU51
 1027 00bb 02        		.uleb128 .LVU51
 1028 00bc 00        		.uleb128 .LVU52
 1029               	.LLST1:
 1030 00bd 04        		.byte	0x4
 1031 00be 2E        		.uleb128 .LVL1-.Ltext0
 1032 00bf 40        		.uleb128 .LVL2-.Ltext0
 1033 00c0 02        		.uleb128 0x2
 1034 00c1 30        		.byte	0x30
 1035 00c2 9F        		.byte	0x9f
 1036 00c3 04        		.byte	0x4
 1037 00c4 40        		.uleb128 .LVL2-.Ltext0
 1038 00c5 6A        		.uleb128 .LVL7-.Ltext0
 1039 00c6 01        		.uleb128 0x1
 1040 00c7 53        		.byte	0x53
 1041 00c8 04        		.byte	0x4
 1042 00c9 6A        		.uleb128 .LVL7-.Ltext0
 1043 00ca 6C        		.uleb128 .LVL8-.Ltext0
 1044 00cb 03        		.uleb128 0x3
 1045 00cc 73        		.byte	0x73
 1046 00cd 7F        		.sleb128 -1
 1047 00ce 9F        		.byte	0x9f
 1048 00cf 04        		.byte	0x4
 1049 00d0 70        		.uleb128 .LVL9-.Ltext0
 1050 00d1 9601      		.uleb128 .LVL14-.Ltext0
 1051 00d3 01        		.uleb128 0x1
 1052 00d4 53        		.byte	0x53
 1053 00d5 04        		.byte	0x4
 1054 00d6 9601      		.uleb128 .LVL14-.Ltext0
 1055 00d8 A001      		.uleb128 .LVL15-.Ltext0
 1056 00da 03        		.uleb128 0x3
 1057 00db 73        		.byte	0x73
 1058 00dc 7F        		.sleb128 -1
 1059 00dd 9F        		.byte	0x9f
 1060 00de 04        		.byte	0x4
 1061 00df A001      		.uleb128 .LVL15-.Ltext0
 1062 00e1 A201      		.uleb128 .LVL16-.Ltext0
 1063 00e3 03        		.uleb128 0x3
 1064 00e4 70        		.byte	0x70


 1065 00e5 7F        		.sleb128 -1
 1066 00e6 9F        		.byte	0x9f
 1067 00e7 04        		.byte	0x4
 1068 00e8 A201      		.uleb128 .LVL16-.Ltext0
 1069 00ea A801      		.uleb128 .LVL17-.Ltext0
 1070 00ec 01        		.uleb128 0x1
 1071 00ed 53        		.byte	0x53
 1072 00ee 04        		.byte	0x4
 1073 00ef A801      		.uleb128 .LVL17-.Ltext0
 1074 00f1 C001      		.uleb128 .LVL20-.Ltext0
 1075 00f3 03        		.uleb128 0x3
 1076 00f4 73        		.byte	0x73
 1077 00f5 01        		.sleb128 1
 1078 00f6 9F        		.byte	0x9f
 1079 00f7 04        		.byte	0x4
 1080 00f8 C001      		.uleb128 .LVL20-.Ltext0
 1081 00fa C001      		.uleb128 .LVL20-.Ltext0
 1082 00fc 01        		.uleb128 0x1
 1083 00fd 53        		.byte	0x53
 1084 00fe 04        		.byte	0x4
 1085 00ff C001      		.uleb128 .LVL20-.Ltext0
 1086 0101 C401      		.uleb128 .LVL21-.Ltext0
 1087 0103 03        		.uleb128 0x3
 1088 0104 73        		.byte	0x73
 1089 0105 7F        		.sleb128 -1
 1090 0106 9F        		.byte	0x9f
 1091 0107 00        		.byte	0
 1092               	.LVUS2:
 1093 0108 00        		.uleb128 .LVU9
 1094 0109 00        		.uleb128 .LVU42
 1095 010a 00        		.uleb128 .LVU43
 1096 010b 00        		.uleb128 .LVU54
 1097               	.LLST2:
 1098 010c 04        		.byte	0x4
 1099 010d 2E        		.uleb128 .LVL1-.Ltext0
 1100 010e A001      		.uleb128 .LVL15-.Ltext0
 1101 0110 01        		.uleb128 0x1
 1102 0111 54        		.byte	0x54
 1103 0112 04        		.byte	0x4
 1104 0113 A201      		.uleb128 .LVL16-.Ltext0
 1105 0115 CC01      		.uleb128 .LVL22-.Ltext0
 1106 0117 01        		.uleb128 0x1
 1107 0118 54        		.byte	0x54
 1108 0119 00        		.byte	0
 1109               	.Ldebug_loc3:
 1110               		.section	.debug_aranges,"",@progbits
 1111 0000 0000 001C 		.long	0x1c
 1112 0004 0002      		.word	0x2
 1113 0006 0000 0000 		.long	.Ldebug_info0
 1114 000a 04        		.byte	0x4
 1115 000b 00        		.byte	0
 1116 000c 0000      		.word	0
 1117 000e 0000      		.word	0
 1118 0010 0000 0000 		.long	.Ltext0
 1119 0014 0000 0164 		.long	.Letext0-.Ltext0
 1120 0018 0000 0000 		.long	0
 1121 001c 0000 0000 		.long	0


 1122               		.section	.debug_line,"",@progbits
 1123               	.Ldebug_line0:
 1124 0000 0000 01A4 		.section	.debug_str,"MS",@progbits,1
 1124      0003 0000 
 1124      0054 0201 
 1124      FB0E 0D00 
 1124      0101 0101 
 1125               	.LASF2:
 1126 0000 6C6F 6E67 		.string	"long long int"
 1126      206C 6F6E 
 1126      6720 696E 
 1126      7400 
 1127               	.LASF4:
 1128 000e 756E 7369 		.string	"unsigned int"
 1128      676E 6564 
 1128      2069 6E74 
 1128      00
 1129               	.LASF14:
 1130 001b 474E 5520 		.string	"GNU C17 11.4.0 -mcpu=68000 -msoft-float -g -O2 -fomit-frame-pointer"
 1130      4331 3720 
 1130      3131 2E34 
 1130      2E30 202D 
 1130      6D63 7075 
 1131               	.LASF11:
 1132 005f 6663 6E74 		.string	"fcntl"
 1132      6C00 
 1133               	.LASF16:
 1134 0065 2F68 6F6D 		.string	"/home/students/23nen/1TE23942W/os_group2/sw2"
 1134      652F 7374 
 1134      7564 656E 
 1134      7473 2F32 
 1134      336E 656E 
 1135               	.LASF1:
 1136 0092 6C6F 6E67 		.string	"long unsigned int"
 1136      2075 6E73 
 1136      6967 6E65 
 1136      6420 696E 
 1136      7400 
 1137               	.LASF9:
 1138 00a4 6C6F 6E67 		.string	"long long unsigned int"
 1138      206C 6F6E 
 1138      6720 756E 
 1138      7369 676E 
 1138      6564 2069 
 1139               	.LASF15:
 1140 00bb 6373 7973 		.string	"csys68k.c"
 1140      3638 6B2E 
 1140      6300 
 1141               	.LASF12:
 1142 00c5 7772 6974 		.string	"write"
 1142      6500 
 1143               	.LASF6:
 1144 00cb 756E 7369 		.string	"unsigned char"
 1144      676E 6564 
 1144      2063 6861 
 1144      7200 
 1145               	.LASF10:


 1146 00d9 6368 6172 		.string	"char"
 1146      00
 1147               	.LASF0:
 1148 00de 6C6F 6E67 		.string	"long int"
 1148      2069 6E74 
 1148      00
 1149               	.LASF13:
 1150 00e7 6E62 7974 		.string	"nbytes"
 1150      6573 00
 1151               	.LASF19:
 1152 00ee 7265 6164 		.string	"read"
 1152      00
 1153               	.LASF8:
 1154 00f3 7368 6F72 		.string	"short unsigned int"
 1154      7420 756E 
 1154      7369 676E 
 1154      6564 2069 
 1154      6E74 00
 1155               	.LASF5:
 1156 0106 7369 676E 		.string	"signed char"
 1156      6564 2063 
 1156      6861 7200 
 1157               	.LASF18:
 1158 0112 696E 6279 		.string	"inbyte"
 1158      7465 00
 1159               	.LASF3:
 1160 0119 6C6F 6E67 		.string	"long double"
 1160      2064 6F75 
 1160      626C 6500 
 1161               	.LASF7:
 1162 0125 7368 6F72 		.string	"short int"
 1162      7420 696E 
 1162      7400 
 1163               	.LASF17:
 1164 012f 6F75 7462 		.string	"outbyte"
 1164      7974 6500 
 1165               		.ident	"GCC: (GNU) 11.4.0"




   1               	.global inbyte
   2               	.global inkey
   3               	.equ SYSCALL_NUM_GETSTRING, 1   /* ここで定義すれば defs.s は不要 */
   4               	
   5               	.section .text
   6               	.even
   7               	inbyte:
   8 0000 4E56 FFFC 	    link.w  %a6, #-4
   9 0004 48E7 7000 	    movem.l %d1-%d3, -(%sp)
  10               	
  11               	inbyte_loop1:
  12 0008 7001      	    move.l  #SYSCALL_NUM_GETSTRING, %d0
  13 000a 7200      	    move.l  #0, %d1
  14               	    
  15               	    /* バッファアドレスの計算: FP(%a6) - 4 */
  16 000c 240E      	    move.l  %a6, %d2
  17 000e 0482 0000 	    subi.l  #4, %d2
  17      0004 
  18               	    
  19 0014 7601      	    move.l  #1, %d3
  20 0016 4E40      	    trap    #0
  21               	
  22 0018 0C80 0000 	    cmpi.l  #1, %d0
  22      0001 
  23 001e 6600 FFE8 	    bne     inbyte_loop1
  24               	
  25 0022 4280      	    clr.l   %d0
  26               	    /* 受信データの取得 */
  27 0024 102E FFFC 	    move.b  -4(%a6), %d0    
  28 0028 4CDF 000E 	    movem.l (%sp)+, %d1-%d3
  29 002c 4E5E      		unlk    %a6
  30 002e 4E75      		rts
  31               	
  32               	




   1               	.include "defs.s"
   1               	/* レジスタ定義 */
   2               	.equ REGBASE, 0xfff000 | DMAP を使用．
   3               	.equ IOBASE, 0x00d00000
   4               	
   5               	/* 割り込み関係のレジスタ*/
   6               	.equ IVR, REGBASE+0x300 | 割り込みベクタレジスタ
   7               	.equ IMR, REGBASE+0x304 | 割り込みマスクレジスタ
   8               	.equ ISR, REGBASE+0x30c | 割り込みステータスレジスタ
   9               	.equ IPR, REGBASE+0x310 | 割り込みペンディングレジスタ
  10               	
  11               	/* タイマ関係のレジスタ */
  12               	.equ TCTL1, REGBASE+0x600  | タイマ１コントロールレジスタ
  13               	.equ TPRER1, REGBASE+0x602 | タイマ１プリスケーラレジスタ
  14               	.equ TCMP1, REGBASE+0x604  | タイマ１コンペアレジスタ
  15               	.equ TCN1, REGBASE+0x608   | タイマ１カウンタレジスタ
  16               	.equ TSTAT1, REGBASE+0x60a | タイマ１ステータスレジスタ
  17               	
  18               	/* UART1（送受信）関係のレジスタ */
  19               	.equ USTCNT1, REGBASE+0x900 | UART1 ステータス/コントロールレジスタ
  20               	.equ UBAUD1, REGBASE+0x902  | UART1 ボーコントロールレジスタ
  21               	.equ URX1, REGBASE+0x904    | UART1 受信レジスタ
  22               	.equ UTX1, REGBASE+0x906    | UART1 送信レジスタ
  23               	
  24               	/* UART2（送受信）関係のレジスタ */
  25               	.equ USTCNT2, REGBASE+0x910 | UART2 ステータス/コントロールレジスタ
  26               	.equ UBAUD2, REGBASE+0x912  | UART2 ボーコントロールレジスタ
  27               	.equ URX2, REGBASE+0x914    | UART2 受信レジスタ
  28               	.equ UTX2, REGBASE+0x916    | UART2 送信レジスタ
  29               	
  30               	/* LED */
  31               	/*ここで指定されたアドレスに表示させたい文字コードを入れることでLED
  32               	.equ LED7, IOBASE+0x000002f | ボード搭載の LED 用レジスタ
  33               	.equ LED6, IOBASE+0x000002d 
  34               	.equ LED5, IOBASE+0x000002b
  35               	.equ LED4, IOBASE+0x0000029
  36               	.equ LED3, IOBASE+0x000003f
  37               	.equ LED2, IOBASE+0x000003d
  38               	.equ LED1, IOBASE+0x000003b
  39               	.equ LED0, IOBASE+0x0000039
  40               	
  41               	/*D0の値で呼び出すサブルーチンを決めている。ここでは何を呼び出して
  42               	.equ SYSCALL_NUM_GETSTRING,   1 |文字列入力（GETSTRING）（ここからコメント鴻上）
  43               	.equ SYSCALL_NUM_PUTSTRING,   2 |文字列出力(PUTSTRING)|
  44               	.equ SYSCALL_NUM_RESET_TIMER, 3 |タイマリセット|
  45               	.equ SYSCALL_NUM_SET_TIMER,   4 |タイマセット|
  46               	.equ SYSCALL_NUM_SKIPMT, 5
   2               	.section .text
   3               	
   4               	.equ SIZEOF_TCB_TYPE, 20
   5               	.equ TCB_TYPE_STACK_PTR_OFFSET, 4
   6               	.equ TCB_TYPE_NEXT_OFFSET, 16
   7               	
   8               	.global first_task
   9               	.even
  10               	first_task:
  11               	    * 1. TCB 先頭番地の計算：curr_task の TCB のアドレスを見つける


  12 0000 2239 0000 	    move.l curr_task, %D1      | %D1.l = curr_task
  12      0000 
  13 0006 C3FC 0014 	    muls #SIZEOF_TCB_TYPE, %D1 | %D1.l = curr_task * SIZEOF_TCB_TYPE
  14 000a 43F9 0000 	    lea.l task_tab, %A1        | %A1.l = task_tab
  14      0000 
  15 0010 D3C1      	    add.l %D1, %A1             | %A1.l = &task_tab[curr_task]
  16               	
  17 0012 23CF 0000 	    move.l %sp, SINGLE_SSP
  17      0000 
  18               	
  19               	    * 2. USP，SSP の値の回復
  20               	    * %SSP = &task_tab[curr_task]->stack_ptr
  21 0018 2E69 0004 	    move.l TCB_TYPE_STACK_PTR_OFFSET(%A1), %SP
  22 001c 225F      	    move.l (%SP)+, %A1
  23 001e 4E61      	    move.l %A1, %USP
  24               	
  25               	    * 3. 残りの全レジスタの回復
  26 0020 4CDF 7FFF 	    movem.l (%SP)+, %D0-%D7/%A0-%A6
  27               	
  28               	    * 4. ユーザタスクの起動（SR,PCの復帰）
  29 0024 4E73      	    rte
  30               	BACKTO_SINGLE:
  31 0026 4E75      	    rts
  32               	.data
  33               	.even
  34 0000 0000 0000 	SINGLE_SSP: .ds.l 1
  35               	
  36               	.section .text
  37               	.global swtch
  38               	.even
  39               	swtch:
  40               	    * 1. SR をスタックに積んで，RTE で復帰できるようにする．
  41 0028 40E7      	    move.w %SR, -(%SP) 
  42               	
  43               	    * 2. 実行中のタスクのレジスタの退避
  44 002a 48E7 FFFE 	    movem.l %D0-%D7/%A0-%A6, -(%SP)
  45 002e 4E69      	    move.l %USP, %A1
  46 0030 2F09      	    move.l %A1, -(%SP)
  47               	
  48               	    * 3. SSPの保存
  49 0032 2239 0000 	    move.l curr_task, %D1      | %D1.l = curr_task
  49      0000 
  50 0038 C3FC 0014 	    muls #SIZEOF_TCB_TYPE, %D1 | %D1.l = curr_task * SIZEOF_TCB_TYPE
  51 003c 43F9 0000 	    lea.l task_tab, %A1        | %A1.l = task_tab
  51      0000 
  52 0042 D3C1      	    add.l %D1, %A1             | %A1.l = &task_tab[curr_task]
  53 0044 234F 0004 	    move.l %SP, TCB_TYPE_STACK_PTR_OFFSET(%A1)
  54               	
  55               	    * 4. curr_task を変更
  56 0048 23F9 0000 	    move.l next_task, curr_task
  56      0000 0000 
  56      0000 
  57               	
  58               	    * 5. 次のタスクの SSP の読み出し
  59 0052 2239 0000 	    move.l curr_task, %D1      | %D1.l = curr_task
  59      0000 
  60 0058 C3FC 0014 	    muls #SIZEOF_TCB_TYPE, %D1 | %D1.l = curr_task * SIZEOF_TCB_TYPE


  61 005c 43F9 0000 	    lea.l task_tab, %A1        | %A1.l = task_tab
  61      0000 
  62 0062 D3C1      	    add.l %D1, %A1             | %A1.l = &task_tab[curr_task]
  63               	    * %SP(SSP) = &task_tab[curr_task]->stack_ptr
  64 0064 2E69 0004 	    move.l TCB_TYPE_STACK_PTR_OFFSET(%A1), %SP
  65               	
  66               	    * 6. 次のタスクのレジスタの読み出し
  67 0068 225F      	    move.l (%SP)+, %A1
  68 006a 4E61      	    move.l %A1, %USP
  69 006c 4CDF 7FFF 	    movem.l (%SP)+, %D0-%D7/%A0-%A6
  70               	
  71               	    * 7. タスク切り替え 
  72 0070 4E73      	    rte
  73               	
  74               	* タイマ関連のサブルーチン
  75               	.even
  76               	hard_clock:
  77 0072 48E7 4040 	    movem.l %D1/%A1, -(%SP)
  78               	
  79 0076 0CB9 0000 	    cmpi.l #0, ready
  79      0000 0000 
  79      0000 
  80 0080 6600 002A 	    bne exe_addq
  81 0084 23F9 0000 	    move.l curr_task, ready
  81      0000 0000 
  81      0000 
  82               	    * TCB 先頭番地の計算：ready の TCB のアドレスを見つける
  83 008e 2239 0000 	    move.l ready, %D1          | %D1.l = ready
  83      0000 
  84 0094 C3FC 0014 	    muls #SIZEOF_TCB_TYPE, %D1 | %D1.l = ready * SIZEOF_TCB_TYPE
  85 0098 43F9 0000 	    lea.l task_tab, %A1        | %A1.l = task_tab
  85      0000 
  86 009e D3C1      	    add.l %D1, %A1             | %A1.l = &task_tab[ready]
  87 00a0 237C 0000 	    move.l #0, TCB_TYPE_NEXT_OFFSET(%A1)
  87      0000 0010 
  88 00a8 6000 0024 	    bra end_addq
  89               	exe_addq:
  90               	    * addqに渡す引数をスタックに詰める（右から左）
  91 00ac 2F39 0000 	    move.l curr_task, -(%SP)
  91      0000 
  92               	    * TCB 先頭番地の計算：ready の TCB のアドレスを見つける
  93 00b2 2239 0000 	    move.l ready, %D1          | %D1.l = ready
  93      0000 
  94 00b8 C3FC 0014 	    muls #SIZEOF_TCB_TYPE, %D1 | %D1.l = ready * SIZEOF_TCB_TYPE
  95 00bc 43F9 0000 	    lea.l task_tab, %A1        | %A1.l = task_tab
  95      0000 
  96 00c2 D3C1      	    add.l %D1, %A1             | %A1.l = &task_tab[ready]
  97 00c4 2F09      	    move.l %A1, -(%SP)
  98 00c6 4EB9 0000 		jsr addq /*addqの呼び出し*/
  98      0000 
  99 00cc 508F      	    addq.l #8, %SP /* %SPを戻す */
 100               	end_addq:
 101 00ce 4EB9 0000 		jsr sched /*schedの呼びだし*/
 101      0000 
 102 00d4 4EBA FF52 		jsr swtch /*swtchの呼び出し*/
 103 00d8 4CDF 0202 	    movem.l (%SP)+, %D1/%A1
 104 00dc 4E75      		rts


 105               	
 106               	.global init_timer
 107               	.even
 108               	init_timer:
 109               		/*タイマのリセットをする*/
 110 00de 7003      		move.l #SYSCALL_NUM_RESET_TIMER, %D0
 111 00e0 4E40      		trap #0
 112               		/*タイマのセットをする*/
 113 00e2 7004      		move.l #SYSCALL_NUM_SET_TIMER, %D0
 114 00e4 323C 2710 		move.w #10000, %D1 /*1秒に設定*/
 115 00e8 243C 0000 		move.l #hard_clock, %D2 /*hard_clockを呼び出すよう設定*/
 115      0000 
 116 00ee 4E40      		trap #0
 117 00f0 4E75      	        rts
 118               	
 119               	.global skipmt
 120               	.even
 121               	skipmt:
 122 00f2 7005      	        move.l #SYSCALL_NUM_SKIPMT, %D0
 123 00f4 4E40      	        trap #0
 124 00f6 4E75      	        rts
 125               	
 126               	.include "semasema.s"
   1               	.section .text
   2               	
   3               	*****************************
   4               		***pv_handler 40ページ！
   5               		***D0の値でPかVか半別する
   6               		***D1を引数としてp_body/v_bodyに渡す
   7               	*****************************
   8               	.global pv_handler
   9               	.even
  10               	pv_handler:
  11 00f8 48E7 C000 		movem.l %D0-%D1, -(%SP) /*スーパーバイザモードなうだからssp、ユーザ側ならsp
  12 00fc 40E7      		move.w %SR, -(%SP)      /* SRの値をスタックに退避 */
  13 00fe 46FC 2700 		move.w #0x2700, %SR     /* 走行レベルを7にする。特権モード2700=2進数で0010 0111 
  14 0102 2F01      		move.l %D1, -(%SP)      /*D1 を引数としてスタックに積む(p/v)*/
  15 0104 0C80 0000 		cmpi.l #2, %D0          /*D0=0 ->P操作それ以外　D0≠0 ->V*/
  15      0002 
  16 010a 6700 0020 		beq waitpbra
  17 010e 0C80 0000 		cmpi.l #1, %D0
  17      0001 
  18 0114 6700 000C 		beq vbra
  19               	pbra:
  20 0118 4EB9 0000 		jsr p_body /*P操作本体飛び*/
  20      0000 
  21 011e 6000 0012 		bra finish
  22               	vbra:
  23 0122 4EB9 0000 		jsr v_body
  23      0000 
  24 0128 6000 0008 		bra finish
  25               	waitpbra:
  26 012c 4EB9 0000 		jsr waitp_body
  26      0000 
  27               	
  28               	finish:
  29 0132 588F      	    addq.l #4, %SP     /* 引数分のスタックを戻す */


  30 0134 46DF      		move.w (%SP)+, %SR /* SRを復帰（走行レベルを戻す） */
  31 0136 4CDF 0003 		movem.l (%SP)+, %D0-%D1
  32 013a 4E73      		rte
  33               	
  34               	*****************************
  35               	***P
  36               	*****************************
  37               	.global P
  38               	.even
  39               	P:
  40 013c 4E56 0000 	    link.w %FP, #0
  41 0140 48E7 C000 	    movem.l %D0-%D1, -(%SP)
  42 0144 7000      	    move.l #0, %D0     /* PシステムコールID */
  43 0146 222E 0008 	    move.l 8(%FP), %D1 /* 引数 */
  44 014a 4E41      		trap #1            /*スーパーバイザモードに入って、ベクタテーブル？のtrap#
  45 014c 4CDF 0003 	    movem.l (%SP)+, %D0-%D1
  46 0150 4E5E      	    unlk %FP
  47 0152 4E75      		rts
  48               	
  49               	*****************************
  50               	***V
  51               	*****************************
  52               	.global V
  53               	.even
  54               	V:
  55 0154 4E56 0000 	    link.w %FP, #0
  56 0158 48E7 C000 	    movem.l %D0-%D1, -(%SP)
  57 015c 7001      	    move.l #1, %D0     /* VシステムコールID */
  58 015e 222E 0008 	    move.l 8(%FP), %D1 /* 引数 */
  59 0162 4E41      		trap #1            /*スーパーバイザモードに入って、ベクタテーブル？のtrap#
  60 0164 4CDF 0003 	    movem.l (%SP)+, %D0-%D1
  61 0168 4E5E      	    unlk %FP
  62 016a 4E75      	    rts
  63               	*****************************
  64               	.global waitP
  65               	.even
  66               	waitP:
  67 016c 4E56 0000 	    link.w %FP, #0
  68 0170 48E7 C000 	    movem.l %D0-%D1, -(%SP)
  69 0174 7002      	    move.l #2, %D0     /* PシステムコールID */
  70 0176 222E 0008 	    move.l 8(%FP), %D1 /* 引数 */
  71 017a 4E41      	    trap #1            /*スーパーバイザモードに入って、ベクタテーブル？のtr
  72               	*/
  73 017c 4CDF 0003 	    movem.l (%SP)+, %D0-%D1
  74 0180 4E5E      	    unlk %FP
  75 0182 4E75      	    rts
  76               	
  77               	
 127               	
 128               	.section .bss
 129               	.extern task_tab
 130               	.extern curr_task
 131               	.extern next_task




   1               	#NO_APP
   2               		.file	"mtk_c.c"
   3               		.text
   4               	.Ltext0:
   5               		.cfi_sections	.debug_frame
   6               		.align	2
   7               		.globl	init_kernel
   8               		.type	init_kernel, @function
   9               	init_kernel:
  10               	.LFB3:
  11               		.file 1 "mtk_c.c"
   1:mtk_c.c       **** #include <stdio.h>
   2:mtk_c.c       **** #include <stdint.h>
   3:mtk_c.c       **** #include "mtk_c.h"
   4:mtk_c.c       **** #include <stdarg.h>
   5:mtk_c.c       **** #include <fcntl.h>
   6:mtk_c.c       **** #include <errno.h>
   7:mtk_c.c       **** 
   8:mtk_c.c       **** TASK_ID_TYPE curr_task;
   9:mtk_c.c       **** TASK_ID_TYPE new_task;
  10:mtk_c.c       **** TASK_ID_TYPE next_task;
  11:mtk_c.c       **** TASK_ID_TYPE ready;
  12:mtk_c.c       **** TCB_TYPE task_tab[NUMTASK + 1];
  13:mtk_c.c       **** STACK_TYPE stacks[NUMTASK];
  14:mtk_c.c       **** SEMAPHORE_TYPE semaphore[NUMSEMAPHORE];
  15:mtk_c.c       **** 
  16:mtk_c.c       **** void init_kernel() {
  12               		.loc 1 16 20 view -0
  13               		.cfi_startproc
  17:mtk_c.c       ****     // TCB配列を初期化する
  18:mtk_c.c       ****     for (int i = 0; i < NUMTASK; i++) {
  14               		.loc 1 18 5 view .LVU1
  15               	.LBB16:
  16               		.loc 1 18 10 view .LVU2
  17               	.LVL0:
  18               		.loc 1 18 23 view .LVU3
  19 0000 41F9 0000 		lea task_tab+20,%a0
  19      0000 
  20               	.LVL1:
  21               	.L2:
  22               	.LBB17:
  19:mtk_c.c       ****         TCB_TYPE *tcb = &task_tab[i + 1];
  23               		.loc 1 19 9 discriminator 3 view .LVU4
  20:mtk_c.c       ****         tcb->task_addr = NULL;
  24               		.loc 1 20 9 discriminator 3 view .LVU5
  25               		.loc 1 20 24 is_stmt 0 discriminator 3 view .LVU6
  26 0006 4290      		clr.l (%a0)
  21:mtk_c.c       ****         tcb->stack_ptr = NULL;
  27               		.loc 1 21 9 is_stmt 1 discriminator 3 view .LVU7
  28               		.loc 1 21 24 is_stmt 0 discriminator 3 view .LVU8
  29 0008 42A8 0004 		clr.l 4(%a0)
  22:mtk_c.c       ****         tcb->priority = 0;
  30               		.loc 1 22 9 is_stmt 1 discriminator 3 view .LVU9
  31               		.loc 1 22 23 is_stmt 0 discriminator 3 view .LVU10
  32 000c 42A8 0008 		clr.l 8(%a0)
  23:mtk_c.c       ****         tcb->status = TASK_UNDEF;
  33               		.loc 1 23 9 is_stmt 1 discriminator 3 view .LVU11


  34               		.loc 1 23 21 is_stmt 0 discriminator 3 view .LVU12
  35 0010 42A8 000C 		clr.l 12(%a0)
  24:mtk_c.c       ****         tcb->next = NULLTASKID;
  36               		.loc 1 24 9 is_stmt 1 discriminator 3 view .LVU13
  37               		.loc 1 24 19 is_stmt 0 discriminator 3 view .LVU14
  38 0014 42A8 0010 		clr.l 16(%a0)
  39               	.LBE17:
  18:mtk_c.c       ****         TCB_TYPE *tcb = &task_tab[i + 1];
  40               		.loc 1 18 35 is_stmt 1 discriminator 3 view .LVU15
  18:mtk_c.c       ****         TCB_TYPE *tcb = &task_tab[i + 1];
  41               		.loc 1 18 23 discriminator 3 view .LVU16
  42 0018 41E8 0014 		lea (20,%a0),%a0
  43 001c B1FC 0000 		cmp.l #task_tab+140,%a0
  43      0000 
  44 0022 66E2      		jne .L2
  45               	.LBE16:
  25:mtk_c.c       ****     }
  26:mtk_c.c       ****     // readyキューを初期化する
  27:mtk_c.c       ****     ready = NULLTASKID;
  46               		.loc 1 27 5 view .LVU17
  47               		.loc 1 27 11 is_stmt 0 view .LVU18
  48 0024 42B9 0000 		clr.l ready
  48      0000 
  28:mtk_c.c       ****     // pv_handlerをTRAP #1の割り込みベクタに登録
  29:mtk_c.c       ****     *(int *)(TRAP1_ID * 4) = (int)(uintptr_t)pv_handler;
  49               		.loc 1 29 5 is_stmt 1 view .LVU19
  50               		.loc 1 29 28 is_stmt 0 view .LVU20
  51 002a 21FC 0000 		move.l #pv_handler,132.w
  51      0000 0084 
  30:mtk_c.c       ****     // セマフォの値を初期化する
  31:mtk_c.c       ****     for (int i = 0; i < NUMSEMAPHORE; i++) {
  52               		.loc 1 31 5 is_stmt 1 view .LVU21
  53               	.LBB18:
  54               		.loc 1 31 10 view .LVU22
  55               	.LVL2:
  56               		.loc 1 31 23 view .LVU23
  57 0032 41F9 0000 		lea semaphore,%a0
  57      0000 
  58               	.LVL3:
  59               	.L3:
  60               	.LBB19:
  32:mtk_c.c       ****         SEMAPHORE_TYPE *sema = &semaphore[i];
  61               		.loc 1 32 9 discriminator 3 view .LVU24
  33:mtk_c.c       ****         sema->count = 1; // 1: 利用可能, <1: 待ちタスクがある
  62               		.loc 1 33 9 discriminator 3 view .LVU25
  63               		.loc 1 33 21 is_stmt 0 discriminator 3 view .LVU26
  64 0038 7001      		moveq #1,%d0
  65 003a 2080      		move.l %d0,(%a0)
  34:mtk_c.c       ****         sema->nst = 0;   // たぶんまだ使わない
  66               		.loc 1 34 9 is_stmt 1 discriminator 3 view .LVU27
  67               		.loc 1 34 19 is_stmt 0 discriminator 3 view .LVU28
  68 003c 42A8 0004 		clr.l 4(%a0)
  35:mtk_c.c       ****         sema->task_list = NULLTASKID;
  69               		.loc 1 35 9 is_stmt 1 discriminator 3 view .LVU29
  70               		.loc 1 35 25 is_stmt 0 discriminator 3 view .LVU30
  71 0040 42A8 0008 		clr.l 8(%a0)
  72               	.LBE19:


  31:mtk_c.c       ****         SEMAPHORE_TYPE *sema = &semaphore[i];
  73               		.loc 1 31 40 is_stmt 1 discriminator 3 view .LVU31
  31:mtk_c.c       ****         SEMAPHORE_TYPE *sema = &semaphore[i];
  74               		.loc 1 31 23 discriminator 3 view .LVU32
  75 0044 41E8 000C 		lea (12,%a0),%a0
  76 0048 B1FC 0000 		cmp.l #semaphore+96,%a0
  76      0000 
  77 004e 66E8      		jne .L3
  78               	.LBE18:
  36:mtk_c.c       ****     }
  37:mtk_c.c       **** }
  79               		.loc 1 37 1 is_stmt 0 view .LVU33
  80 0050 4E75      		rts
  81               		.cfi_endproc
  82               	.LFE3:
  83               		.size	init_kernel, .-init_kernel
  84               		.section	.rodata.str1.1,"aMS",@progbits,1
  85               	.LC0:
  86 0000 5B4F 4B5D 		.string	"[OK] set_task"
  86      2073 6574 
  86      5F74 6173 
  86      6B00 
  87               	.LC1:
  88 000e 6675 6C6C 		.string	"full"
  88      00
  89               		.text
  90               		.align	2
  91               		.globl	set_task
  92               		.type	set_task, @function
  93               	set_task:
  94               	.LVL4:
  95               	.LFB4:
  38:mtk_c.c       **** 
  39:mtk_c.c       **** void set_task(void (*task_addr)()) {
  96               		.loc 1 39 36 is_stmt 1 view -0
  97               		.cfi_startproc
  98               		.loc 1 39 36 is_stmt 0 view .LVU35
  99 0052 48E7 3030 		movem.l #12336,-(%sp)
 100               		.cfi_def_cfa_offset 20
 101               		.cfi_offset 2, -20
 102               		.cfi_offset 3, -16
 103               		.cfi_offset 10, -12
 104               		.cfi_offset 11, -8
 105 0056 262F 0014 		move.l 20(%sp),%d3
  40:mtk_c.c       ****     // タスクIDの決定
  41:mtk_c.c       ****     TASK_ID_TYPE task_id = NULLTASKID;
 106               		.loc 1 41 5 is_stmt 1 view .LVU36
 107               	.LVL5:
  42:mtk_c.c       ****     for (int i = 0; i < NUMTASK; i++) {
 108               		.loc 1 42 5 view .LVU37
 109               	.LBB20:
 110               		.loc 1 42 10 view .LVU38
 111               		.loc 1 42 23 view .LVU39
 112 005a 41F9 0000 		lea task_tab+32,%a0
 112      0000 
 113               		.loc 1 42 14 is_stmt 0 view .LVU40
 114 0060 7200      		moveq #0,%d1


 115               	.LVL6:
 116               	.L10:
 117               	.LBB21:
  43:mtk_c.c       ****         TCB_TYPE *tcb = &task_tab[i + 1];
 118               		.loc 1 43 9 is_stmt 1 view .LVU41
 119 0062 2001      		move.l %d1,%d0
 120               		.loc 1 43 37 is_stmt 0 view .LVU42
 121 0064 5281      		addq.l #1,%d1
 122               	.LVL7:
  44:mtk_c.c       ****         if (tcb->status == TASK_UNDEF || tcb->status == TASK_FINISHED) {
 123               		.loc 1 44 9 is_stmt 1 view .LVU43
 124               		.loc 1 44 12 is_stmt 0 view .LVU44
 125 0066 74FD      		moveq #-3,%d2
 126 0068 C490      		and.l (%a0),%d2
 127 006a 671C      		jeq .L9
 128               	.LVL8:
 129               		.loc 1 44 12 view .LVU45
 130               	.LBE21:
  42:mtk_c.c       ****     for (int i = 0; i < NUMTASK; i++) {
 131               		.loc 1 42 23 is_stmt 1 discriminator 1 view .LVU46
 132 006c 41E8 0014 		lea (20,%a0),%a0
 133 0070 7006      		moveq #6,%d0
 134 0072 B081      		cmp.l %d1,%d0
 135 0074 66EC      		jne .L10
  42:mtk_c.c       ****     for (int i = 0; i < NUMTASK; i++) {
 136               		.loc 1 42 23 is_stmt 0 discriminator 1 view .LVU47
 137               	.LBE20:
  45:mtk_c.c       ****             task_id = i + 1;
  46:mtk_c.c       ****             break;
  47:mtk_c.c       ****         }
  48:mtk_c.c       ****     }
  49:mtk_c.c       ****     if (task_id == NULLTASKID) {printf("full"); return;} // 空きがない
 138               		.loc 1 49 5 is_stmt 1 view .LVU48
 139               		.loc 1 49 33 view .LVU49
 140 0076 2F7C 0000 		move.l #.LC1,20(%sp)
 140      0000 0014 
  50:mtk_c.c       ****     new_task = task_id; // 空いていたTCBのIDをnew_taskに代入
  51:mtk_c.c       **** 
  52:mtk_c.c       ****     TCB_TYPE *tcb = &task_tab[new_task];
  53:mtk_c.c       ****     tcb->task_addr = task_addr;    // task_addrを登録
  54:mtk_c.c       ****     tcb->status = TASK_INUSE;      // statusを登録
  55:mtk_c.c       ****     tcb->stack_ptr = init_stack(new_task); // stack_ptrを登録
  56:mtk_c.c       **** 
  57:mtk_c.c       ****     if (ready == NULLTASKID) {
  58:mtk_c.c       ****         ready = new_task; // readyキューが空ならnew_taskを追加
  59:mtk_c.c       ****         task_tab[ready].next = NULLTASKID;
  60:mtk_c.c       ****     }
  61:mtk_c.c       ****     else addq(&task_tab[ready], new_task);
  62:mtk_c.c       ****     printf("[OK] set_task\n");
  63:mtk_c.c       **** }
 141               		.loc 1 63 1 is_stmt 0 view .LVU50
 142 007e 4CDF 0C0C 		movem.l (%sp)+,#3084
  49:mtk_c.c       ****     new_task = task_id; // 空いていたTCBのIDをnew_taskに代入
 143               		.loc 1 49 33 view .LVU51
 144 0082 4EF9 0000 		jra printf
 144      0000 
 145               	.LVL9:


 146               	.L9:
  49:mtk_c.c       ****     new_task = task_id; // 空いていたTCBのIDをnew_taskに代入
 147               		.loc 1 49 5 is_stmt 1 view .LVU52
  50:mtk_c.c       ****     new_task = task_id; // 空いていたTCBのIDをnew_taskに代入
 148               		.loc 1 50 5 view .LVU53
  50:mtk_c.c       ****     new_task = task_id; // 空いていたTCBのIDをnew_taskに代入
 149               		.loc 1 50 14 is_stmt 0 view .LVU54
 150 0088 23C1 0000 		move.l %d1,new_task
 150      0000 
  52:mtk_c.c       ****     tcb->task_addr = task_addr;    // task_addrを登録
 151               		.loc 1 52 5 is_stmt 1 view .LVU55
 152               	.LVL10:
  53:mtk_c.c       ****     tcb->status = TASK_INUSE;      // statusを登録
 153               		.loc 1 53 5 view .LVU56
  53:mtk_c.c       ****     tcb->status = TASK_INUSE;      // statusを登録
 154               		.loc 1 53 20 is_stmt 0 view .LVU57
 155 008e 45F9 0000 		lea task_tab,%a2
 155      0000 
 156 0094 2241      		move.l %d1,%a1
 157 0096 D3C1      		add.l %d1,%a1
 158 0098 47F1 9800 		lea (%a1,%a1.l),%a3
 159 009c D7C1      		add.l %d1,%a3
 160 009e D7CB      		add.l %a3,%a3
 161 00a0 D7CB      		add.l %a3,%a3
 162 00a2 2583 B800 		move.l %d3,(%a2,%a3.l)
  54:mtk_c.c       ****     tcb->stack_ptr = init_stack(new_task); // stack_ptrを登録
 163               		.loc 1 54 5 is_stmt 1 view .LVU58
  54:mtk_c.c       ****     tcb->stack_ptr = init_stack(new_task); // stack_ptrを登録
 164               		.loc 1 54 17 is_stmt 0 view .LVU59
 165 00a6 47F2 B800 		lea (%a2,%a3.l),%a3
 166 00aa 7401      		moveq #1,%d2
 167 00ac 2742 000C 		move.l %d2,12(%a3)
  55:mtk_c.c       **** 
 168               		.loc 1 55 5 is_stmt 1 view .LVU60
 169               	.LVL11:
 170               	.LBB22:
 171               	.LBI22:
  64:mtk_c.c       **** 
  65:mtk_c.c       **** void begin_sch() {
  66:mtk_c.c       ****     curr_task = removeq(&task_tab[ready]); // 最初のタスクの決定
  67:mtk_c.c       ****     if (DEBUG) printf("[DEBUG] curr_task = %d\n", curr_task);
  68:mtk_c.c       ****     init_timer(); // タイマの設定
  69:mtk_c.c       ****     printf("[OK] init_timer\n");
  70:mtk_c.c       ****     first_task(); // 最初のタスクへ遷移
  71:mtk_c.c       **** }
  72:mtk_c.c       **** 
  73:mtk_c.c       **** void *init_stack(TASK_ID_TYPE id) {
 172               		.loc 1 73 7 view .LVU61
 173               	.LBB23:
  74:mtk_c.c       ****     char *ustack_top = &stacks[id - 1].ustack[STKSIZE];
 174               		.loc 1 74 5 view .LVU62
 175               		.loc 1 74 11 is_stmt 0 view .LVU63
 176 00b0 740B      		moveq #11,%d2
 177 00b2 E5A8      		lsl.l %d2,%d0
 178               	.LVL12:
 179               		.loc 1 74 11 view .LVU64
 180 00b4 2040      		move.l %d0,%a0


 181 00b6 D1FC 0000 		add.l #stacks+1024,%a0
 181      0000 
 182               	.LVL13:
  75:mtk_c.c       ****     char *sstack = stacks[id - 1].sstack;
 183               		.loc 1 75 5 is_stmt 1 view .LVU65
  76:mtk_c.c       ****     int *ssp = (int *)(sstack + STKSIZE);
 184               		.loc 1 76 5 view .LVU66
  77:mtk_c.c       ****     *(--ssp) = (int)(uintptr_t)task_tab[id].task_addr; // initial PC
 185               		.loc 1 77 5 view .LVU67
 186               		.loc 1 77 14 is_stmt 0 view .LVU68
 187 00bc 2143 03FC 		move.l %d3,1020(%a0)
  78:mtk_c.c       ****     short *ssp_s = (short*)ssp;
 188               		.loc 1 78 5 is_stmt 1 view .LVU69
 189               	.LVL14:
  79:mtk_c.c       ****     *(--ssp_s) = (short)0x0000; // initial SR
 190               		.loc 1 79 5 view .LVU70
 191               		.loc 1 79 16 is_stmt 0 view .LVU71
 192 00c0 4268 03FA 		clr.w 1018(%a0)
  80:mtk_c.c       ****     ssp = (int*)ssp_s;
 193               		.loc 1 80 5 is_stmt 1 view .LVU72
 194               	.LVL15:
  81:mtk_c.c       ****     ssp -= 15; // 15x4 bytes for registers
 195               		.loc 1 81 5 view .LVU73
  82:mtk_c.c       ****     *(--ssp) = (int)(uintptr_t)ustack_top;
 196               		.loc 1 82 5 view .LVU74
 197               		.loc 1 82 14 is_stmt 0 view .LVU75
 198 00c4 2148 03BA 		move.l %a0,954(%a0)
  83:mtk_c.c       ****     return ssp;
 199               		.loc 1 83 5 is_stmt 1 view .LVU76
 200               	.LVL16:
  82:mtk_c.c       ****     *(--ssp) = (int)(uintptr_t)ustack_top;
 201               		.loc 1 82 14 is_stmt 0 view .LVU77
 202 00c8 41E8 03BA 		lea (954,%a0),%a0
 203               	.LVL17:
  82:mtk_c.c       ****     *(--ssp) = (int)(uintptr_t)ustack_top;
 204               		.loc 1 82 14 view .LVU78
 205 00cc 2748 0004 		move.l %a0,4(%a3)
 206               	.LBE23:
 207               	.LBE22:
  57:mtk_c.c       ****         ready = new_task; // readyキューが空ならnew_taskを追加
 208               		.loc 1 57 5 is_stmt 1 view .LVU79
  57:mtk_c.c       ****         ready = new_task; // readyキューが空ならnew_taskを追加
 209               		.loc 1 57 15 is_stmt 0 view .LVU80
 210 00d0 2079 0000 		move.l ready,%a0
 210      0000 
 211               	.LVL18:
  57:mtk_c.c       ****         ready = new_task; // readyキューが空ならnew_taskを追加
 212               		.loc 1 57 8 view .LVU81
 213 00d6 B0FC 0000 		cmp.w #0,%a0
 214 00da 6624      		jne .L24
  58:mtk_c.c       ****         task_tab[ready].next = NULLTASKID;
 215               		.loc 1 58 9 is_stmt 1 view .LVU82
  58:mtk_c.c       ****         task_tab[ready].next = NULLTASKID;
 216               		.loc 1 58 15 is_stmt 0 view .LVU83
 217 00dc 23C1 0000 		move.l %d1,ready
 217      0000 
  59:mtk_c.c       ****     }


 218               		.loc 1 59 9 is_stmt 1 view .LVU84
  59:mtk_c.c       ****     }
 219               		.loc 1 59 30 is_stmt 0 view .LVU85
 220 00e2 D3C9      		add.l %a1,%a1
 221 00e4 D3C1      		add.l %d1,%a1
 222 00e6 D3C9      		add.l %a1,%a1
 223 00e8 D3C9      		add.l %a1,%a1
 224 00ea 42B2 9810 		clr.l 16(%a2,%a1.l)
  62:mtk_c.c       **** }
 225               		.loc 1 62 5 is_stmt 1 view .LVU86
 226 00ee 2F7C 0000 		move.l #.LC0,20(%sp)
 226      0000 0014 
  63:mtk_c.c       **** 
 227               		.loc 1 63 1 is_stmt 0 view .LVU87
 228 00f6 4CDF 0C0C 		movem.l (%sp)+,#3084
 229               	.LVL19:
  63:mtk_c.c       **** 
 230               		.loc 1 63 1 view .LVU88
  62:mtk_c.c       **** }
 231               		.loc 1 62 5 view .LVU89
 232 00fa 4EF9 0000 		jra puts
 232      0000 
 233               	.LVL20:
 234               	.L24:
  61:mtk_c.c       ****     printf("[OK] set_task\n");
 235               		.loc 1 61 10 is_stmt 1 view .LVU90
 236               	.LBB24:
 237               	.LBI24:
  84:mtk_c.c       **** }
  85:mtk_c.c       **** 
  86:mtk_c.c       **** void addq(TCB_TYPE* q_ptr, TASK_ID_TYPE task_id) {
 238               		.loc 1 86 6 view .LVU91
 239               	.LBB25:
  87:mtk_c.c       ****     if (DEBUG) printf("[DEBUG] addq: added task_id = %d\n", task_id);
 240               		.loc 1 87 5 view .LVU92
  88:mtk_c.c       ****     // 引数にキューへのポインタとタスクの ID を取り，その TCB をキュー
  89:mtk_c.c       ****     TCB_TYPE *cur = q_ptr;
 241               		.loc 1 89 5 view .LVU93
  90:mtk_c.c       ****     while (cur->next != NULLTASKID) cur = &task_tab[cur->next];
 242               		.loc 1 90 5 view .LVU94
 243               		.loc 1 90 22 view .LVU95
 244               		.loc 1 90 15 is_stmt 0 view .LVU96
 245 0100 2008      		move.l %a0,%d0
 246 0102 D088      		add.l %a0,%d0
 247 0104 D080      		add.l %d0,%d0
 248 0106 D088      		add.l %a0,%d0
 249 0108 D080      		add.l %d0,%d0
 250 010a D080      		add.l %d0,%d0
 251 010c 41F2 0800 		lea (%a2,%d0.l),%a0
 252               	.LVL21:
 253               		.loc 1 90 15 view .LVU97
 254 0110 2028 0010 		move.l 16(%a0),%d0
 255               		.loc 1 90 22 view .LVU98
 256 0114 6726      		jeq .L15
 257               	.LVL22:
 258               	.L14:
 259               		.loc 1 90 37 is_stmt 1 view .LVU99


 260               		.loc 1 90 22 view .LVU100
 261 0116 2040      		move.l %d0,%a0
 262               		.loc 1 90 15 is_stmt 0 view .LVU101
 263 0118 D080      		add.l %d0,%d0
 264               	.LVL23:
 265               		.loc 1 90 15 view .LVU102
 266 011a D080      		add.l %d0,%d0
 267 011c D088      		add.l %a0,%d0
 268 011e D080      		add.l %d0,%d0
 269 0120 D080      		add.l %d0,%d0
 270 0122 2032 0810 		move.l 16(%a2,%d0.l),%d0
 271               		.loc 1 90 22 view .LVU103
 272 0126 66EE      		jne .L14
 273               		.loc 1 90 41 view .LVU104
 274 0128 2008      		move.l %a0,%d0
 275 012a D088      		add.l %a0,%d0
 276 012c D080      		add.l %d0,%d0
 277 012e D088      		add.l %a0,%d0
 278 0130 D080      		add.l %d0,%d0
 279 0132 D080      		add.l %d0,%d0
 280 0134 2040      		move.l %d0,%a0
 281               	.LVL24:
 282               		.loc 1 90 41 view .LVU105
 283 0136 D1FC 0000 		add.l #task_tab,%a0
 283      0000 
 284               	.L15:
  91:mtk_c.c       ****     // ここに到達した時点でcur->nextはNULLTASKID
  92:mtk_c.c       ****     cur->next = task_id; // 最後尾に追加
 285               		.loc 1 92 5 is_stmt 1 view .LVU106
 286               		.loc 1 92 15 is_stmt 0 view .LVU107
 287 013c 2141 0010 		move.l %d1,16(%a0)
 288               	.LVL25:
  93:mtk_c.c       ****     task_tab[task_id].next = NULLTASKID; // 新しい最後尾
 289               		.loc 1 93 5 is_stmt 1 view .LVU108
 290               	.LBE25:
 291               	.LBE24:
  59:mtk_c.c       ****     }
 292               		.loc 1 59 30 is_stmt 0 view .LVU109
 293 0140 D3C9      		add.l %a1,%a1
 294 0142 D3C1      		add.l %d1,%a1
 295 0144 D3C9      		add.l %a1,%a1
 296 0146 D3C9      		add.l %a1,%a1
 297 0148 42B2 9810 		clr.l 16(%a2,%a1.l)
 298               	.LVL26:
  62:mtk_c.c       **** }
 299               		.loc 1 62 5 is_stmt 1 view .LVU110
 300 014c 2F7C 0000 		move.l #.LC0,20(%sp)
 300      0000 0014 
  63:mtk_c.c       **** 
 301               		.loc 1 63 1 is_stmt 0 view .LVU111
 302 0154 4CDF 0C0C 		movem.l (%sp)+,#3084
 303               	.LVL27:
  63:mtk_c.c       **** 
 304               		.loc 1 63 1 view .LVU112
  62:mtk_c.c       **** }
 305               		.loc 1 62 5 view .LVU113
 306 0158 4EF9 0000 		jra puts


 306      0000 
 307               	.LVL28:
  62:mtk_c.c       **** }
 308               		.loc 1 62 5 view .LVU114
 309               		.cfi_endproc
 310               	.LFE4:
 311               		.size	set_task, .-set_task
 312               		.section	.rodata.str1.1
 313               	.LC2:
 314 0013 5B4F 4B5D 		.string	"[OK] init_timer"
 314      2069 6E69 
 314      745F 7469 
 314      6D65 7200 
 315               		.text
 316               		.align	2
 317               		.globl	begin_sch
 318               		.type	begin_sch, @function
 319               	begin_sch:
 320               	.LFB5:
  65:mtk_c.c       ****     curr_task = removeq(&task_tab[ready]); // 最初のタスクの決定
 321               		.loc 1 65 18 is_stmt 1 view -0
 322               		.cfi_startproc
 323 015e 48E7 3800 		movem.l #14336,-(%sp)
 324               		.cfi_def_cfa_offset 16
 325               		.cfi_offset 2, -16
 326               		.cfi_offset 3, -12
 327               		.cfi_offset 4, -8
  66:mtk_c.c       ****     if (DEBUG) printf("[DEBUG] curr_task = %d\n", curr_task);
 328               		.loc 1 66 5 view .LVU116
  66:mtk_c.c       ****     if (DEBUG) printf("[DEBUG] curr_task = %d\n", curr_task);
 329               		.loc 1 66 34 is_stmt 0 view .LVU117
 330 0162 2839 0000 		move.l ready,%d4
 330      0000 
 331 0168 2404      		move.l %d4,%d2
 332 016a D484      		add.l %d4,%d2
 333 016c 2602      		move.l %d2,%d3
 334 016e D682      		add.l %d2,%d3
 335 0170 D684      		add.l %d4,%d3
 336 0172 D683      		add.l %d3,%d3
 337 0174 D683      		add.l %d3,%d3
 338               	.LVL29:
 339               	.LBB32:
 340               	.LBI32:
  94:mtk_c.c       **** }
  95:mtk_c.c       **** 
  96:mtk_c.c       **** TASK_ID_TYPE removeq(TCB_TYPE* q_ptr) {
 341               		.loc 1 96 14 is_stmt 1 view .LVU118
 342               	.LBB33:
  97:mtk_c.c       ****     TASK_ID_TYPE task_id;
 343               		.loc 1 97 5 view .LVU119
  98:mtk_c.c       ****     // semaphore キューの場合
  99:mtk_c.c       ****     for (int i = 0; i < NUMSEMAPHORE; i++) {
 344               		.loc 1 99 5 view .LVU120
 345               	.LBB34:
 346               		.loc 1 99 10 view .LVU121
 347               		.loc 1 99 23 view .LVU122
 348 0176 43F9 0000 		lea semaphore+8,%a1


 348      0000 
 349               		.loc 1 99 14 is_stmt 0 view .LVU123
 350 017c 91C8      		sub.l %a0,%a0
 351               	.LVL30:
 352               	.L28:
 100:mtk_c.c       ****         if (q_ptr == &task_tab[semaphore[i].task_list]) {
 353               		.loc 1 100 9 is_stmt 1 view .LVU124
 354               		.loc 1 100 44 is_stmt 0 view .LVU125
 355 017e 2211      		move.l (%a1),%d1
 356               		.loc 1 100 12 view .LVU126
 357 0180 2001      		move.l %d1,%d0
 358 0182 D081      		add.l %d1,%d0
 359 0184 D080      		add.l %d0,%d0
 360 0186 D081      		add.l %d1,%d0
 361 0188 D080      		add.l %d0,%d0
 362 018a D080      		add.l %d0,%d0
 363 018c B083      		cmp.l %d3,%d0
 364 018e 6746      		jeq .L32
  99:mtk_c.c       ****         if (q_ptr == &task_tab[semaphore[i].task_list]) {
 365               		.loc 1 99 40 is_stmt 1 view .LVU127
 366 0190 5288      		addq.l #1,%a0
 367               	.LVL31:
  99:mtk_c.c       ****         if (q_ptr == &task_tab[semaphore[i].task_list]) {
 368               		.loc 1 99 23 view .LVU128
 369 0192 43E9 000C 		lea (12,%a1),%a1
 370 0196 7008      		moveq #8,%d0
 371 0198 B088      		cmp.l %a0,%d0
 372 019a 66E2      		jne .L28
 373               	.LVL32:
  99:mtk_c.c       ****         if (q_ptr == &task_tab[semaphore[i].task_list]) {
 374               		.loc 1 99 23 is_stmt 0 view .LVU129
 375               	.LBE34:
 376               	.LBB35:
 377               	.LBI35:
  96:mtk_c.c       ****     TASK_ID_TYPE task_id;
 378               		.loc 1 96 14 is_stmt 1 view .LVU130
 379               	.LBB36:
 101:mtk_c.c       ****             task_id = semaphore[i].task_list; // task_id = キューの先頭タスクID
 102:mtk_c.c       ****             semaphore[i].task_list = (*q_ptr).next; // 先頭タスクをキューから取り除
 103:mtk_c.c       ****             // (*q_ptr).next = NULLTASKID;
 104:mtk_c.c       ****             if (DEBUG) printf("[DEBUG] removeq returns %d (semaphore queue)\n", task_id);
 105:mtk_c.c       ****             return task_id;
 106:mtk_c.c       ****         }
 107:mtk_c.c       ****     }
 108:mtk_c.c       **** 
 109:mtk_c.c       ****     // ready キューの場合
 110:mtk_c.c       ****     if (q_ptr == &task_tab[ready]) {
 380               		.loc 1 110 5 view .LVU131
 111:mtk_c.c       ****         task_id = ready; // task_id = キューの先頭タスクID
 381               		.loc 1 111 9 view .LVU132
 112:mtk_c.c       ****         ready = (*q_ptr).next; // 先頭タスクをキューから取り除く
 382               		.loc 1 112 9 view .LVU133
 383               		.loc 1 112 25 is_stmt 0 view .LVU134
 384 019c D482      		add.l %d2,%d2
 385 019e D484      		add.l %d4,%d2
 386 01a0 D482      		add.l %d2,%d2
 387 01a2 D482      		add.l %d2,%d2


 388 01a4 2042      		move.l %d2,%a0
 389               	.LVL33:
 390               		.loc 1 112 25 view .LVU135
 391 01a6 D1FC 0000 		add.l #task_tab+16,%a0
 391      0000 
 392               		.loc 1 112 15 view .LVU136
 393 01ac 23D0 0000 		move.l (%a0),ready
 393      0000 
 113:mtk_c.c       ****         // (*q_ptr).next = NULLTASKID;
 114:mtk_c.c       ****         if (DEBUG) printf("[DEBUG] removeq returns %d (ready queue)\n", task_id);
 394               		.loc 1 114 9 is_stmt 1 view .LVU137
 115:mtk_c.c       ****         return task_id;
 395               		.loc 1 115 9 view .LVU138
 396               	.LVL34:
 397               		.loc 1 115 9 is_stmt 0 view .LVU139
 398               	.LBE36:
 399               	.LBE35:
 400               	.LBE33:
 401               	.LBE32:
  66:mtk_c.c       ****     if (DEBUG) printf("[DEBUG] curr_task = %d\n", curr_task);
 402               		.loc 1 66 15 view .LVU140
 403 01b2 23C4 0000 		move.l %d4,curr_task
 403      0000 
  67:mtk_c.c       ****     init_timer(); // タイマの設定
 404               		.loc 1 67 5 is_stmt 1 view .LVU141
  68:mtk_c.c       ****     printf("[OK] init_timer\n");
 405               		.loc 1 68 5 view .LVU142
 406 01b8 4EB9 0000 		jsr init_timer
 406      0000 
 407               	.LVL35:
  69:mtk_c.c       ****     first_task(); // 最初のタスクへ遷移
 408               		.loc 1 69 5 view .LVU143
 409 01be 4879 0000 		pea .LC2
 409      0000 
 410               		.cfi_def_cfa_offset 20
 411 01c4 4EB9 0000 		jsr puts
 411      0000 
 412               	.LVL36:
  70:mtk_c.c       **** }
 413               		.loc 1 70 5 view .LVU144
 414 01ca 588F      		addq.l #4,%sp
 415               		.cfi_def_cfa_offset 16
  71:mtk_c.c       **** 
 416               		.loc 1 71 1 is_stmt 0 view .LVU145
 417 01cc 4CDF 001C 		movem.l (%sp)+,#28
  70:mtk_c.c       **** }
 418               		.loc 1 70 5 view .LVU146
 419 01d0 4EF9 0000 		jra first_task
 419      0000 
 420               	.LVL37:
 421               	.L32:
 422               	.LBB39:
 423               	.LBB38:
 424               	.LBB37:
 101:mtk_c.c       ****             semaphore[i].task_list = (*q_ptr).next; // 先頭タスクをキューから取り除
 425               		.loc 1 101 13 is_stmt 1 view .LVU147
 102:mtk_c.c       ****             // (*q_ptr).next = NULLTASKID;


 426               		.loc 1 102 13 view .LVU148
 102:mtk_c.c       ****             // (*q_ptr).next = NULLTASKID;
 427               		.loc 1 102 36 is_stmt 0 view .LVU149
 428 01d6 2008      		move.l %a0,%d0
 429 01d8 D088      		add.l %a0,%d0
 430 01da D088      		add.l %a0,%d0
 431 01dc D080      		add.l %d0,%d0
 432 01de D080      		add.l %d0,%d0
 433 01e0 2040      		move.l %d0,%a0
 434               	.LVL38:
 102:mtk_c.c       ****             // (*q_ptr).next = NULLTASKID;
 435               		.loc 1 102 36 view .LVU150
 436 01e2 D1FC 0000 		add.l #semaphore+8,%a0
 436      0000 
 102:mtk_c.c       ****             // (*q_ptr).next = NULLTASKID;
 437               		.loc 1 102 46 view .LVU151
 438 01e8 D482      		add.l %d2,%d2
 439 01ea D484      		add.l %d4,%d2
 440 01ec D482      		add.l %d2,%d2
 441 01ee D482      		add.l %d2,%d2
 442 01f0 2242      		move.l %d2,%a1
 443 01f2 D3FC 0000 		add.l #task_tab+16,%a1
 443      0000 
 102:mtk_c.c       ****             // (*q_ptr).next = NULLTASKID;
 444               		.loc 1 102 36 view .LVU152
 445 01f8 2091      		move.l (%a1),(%a0)
 104:mtk_c.c       ****             return task_id;
 446               		.loc 1 104 13 is_stmt 1 view .LVU153
 105:mtk_c.c       ****         }
 447               		.loc 1 105 13 view .LVU154
 100:mtk_c.c       ****             task_id = semaphore[i].task_list; // task_id = キューの先頭タスクID
 448               		.loc 1 100 44 is_stmt 0 view .LVU155
 449 01fa 2801      		move.l %d1,%d4
 450               	.LVL39:
 100:mtk_c.c       ****             task_id = semaphore[i].task_list; // task_id = キューの先頭タスクID
 451               		.loc 1 100 44 view .LVU156
 452               	.LBE37:
 453               	.LBE38:
 454               	.LBE39:
  66:mtk_c.c       ****     if (DEBUG) printf("[DEBUG] curr_task = %d\n", curr_task);
 455               		.loc 1 66 15 view .LVU157
 456 01fc 23C4 0000 		move.l %d4,curr_task
 456      0000 
  67:mtk_c.c       ****     init_timer(); // タイマの設定
 457               		.loc 1 67 5 is_stmt 1 view .LVU158
  68:mtk_c.c       ****     printf("[OK] init_timer\n");
 458               		.loc 1 68 5 view .LVU159
 459 0202 4EB9 0000 		jsr init_timer
 459      0000 
 460               	.LVL40:
  69:mtk_c.c       ****     first_task(); // 最初のタスクへ遷移
 461               		.loc 1 69 5 view .LVU160
 462 0208 4879 0000 		pea .LC2
 462      0000 
 463               		.cfi_def_cfa_offset 20
 464 020e 4EB9 0000 		jsr puts
 464      0000 


 465               	.LVL41:
  70:mtk_c.c       **** }
 466               		.loc 1 70 5 view .LVU161
 467 0214 588F      		addq.l #4,%sp
 468               		.cfi_def_cfa_offset 16
  71:mtk_c.c       **** 
 469               		.loc 1 71 1 is_stmt 0 view .LVU162
 470 0216 4CDF 001C 		movem.l (%sp)+,#28
 471               	.LVL42:
  71:mtk_c.c       **** 
 472               		.loc 1 71 1 view .LVU163
  70:mtk_c.c       **** }
 473               		.loc 1 70 5 view .LVU164
 474 021a 4EF9 0000 		jra first_task
 474      0000 
 475               	.LVL43:
 476               		.cfi_endproc
 477               	.LFE5:
 478               		.size	begin_sch, .-begin_sch
 479               		.align	2
 480               		.globl	init_stack
 481               		.type	init_stack, @function
 482               	init_stack:
 483               	.LVL44:
 484               	.LFB6:
  73:mtk_c.c       ****     char *ustack_top = &stacks[id - 1].ustack[STKSIZE];
 485               		.loc 1 73 35 is_stmt 1 view -0
 486               		.cfi_startproc
  73:mtk_c.c       ****     char *ustack_top = &stacks[id - 1].ustack[STKSIZE];
 487               		.loc 1 73 35 is_stmt 0 view .LVU166
 488 0220 2F02      		move.l %d2,-(%sp)
 489               		.cfi_def_cfa_offset 8
 490               		.cfi_offset 2, -8
 491 0222 242F 0008 		move.l 8(%sp),%d2
  74:mtk_c.c       ****     char *sstack = stacks[id - 1].sstack;
 492               		.loc 1 74 5 is_stmt 1 view .LVU167
  74:mtk_c.c       ****     char *sstack = stacks[id - 1].sstack;
 493               		.loc 1 74 11 is_stmt 0 view .LVU168
 494 0226 2002      		move.l %d2,%d0
 495 0228 720B      		moveq #11,%d1
 496 022a E3A8      		lsl.l %d1,%d0
 497 022c 2040      		move.l %d0,%a0
 498 022e D1FC 0000 		add.l #stacks-1024,%a0
 498      0000 
 499               	.LVL45:
  75:mtk_c.c       ****     int *ssp = (int *)(sstack + STKSIZE);
 500               		.loc 1 75 5 is_stmt 1 view .LVU169
  76:mtk_c.c       ****     *(--ssp) = (int)(uintptr_t)task_tab[id].task_addr; // initial PC
 501               		.loc 1 76 5 view .LVU170
  77:mtk_c.c       ****     short *ssp_s = (short*)ssp;
 502               		.loc 1 77 5 view .LVU171
  77:mtk_c.c       ****     short *ssp_s = (short*)ssp;
 503               		.loc 1 77 44 is_stmt 0 view .LVU172
 504 0234 2202      		move.l %d2,%d1
 505 0236 D282      		add.l %d2,%d1
 506 0238 D281      		add.l %d1,%d1
 507 023a D282      		add.l %d2,%d1


 508 023c D281      		add.l %d1,%d1
 509 023e D281      		add.l %d1,%d1
  77:mtk_c.c       ****     short *ssp_s = (short*)ssp;
 510               		.loc 1 77 14 view .LVU173
 511 0240 43F9 0000 		lea task_tab,%a1
 511      0000 
 512 0246 2171 1800 		move.l (%a1,%d1.l),1020(%a0)
 512      03FC 
  78:mtk_c.c       ****     *(--ssp_s) = (short)0x0000; // initial SR
 513               		.loc 1 78 5 is_stmt 1 view .LVU174
 514               	.LVL46:
  79:mtk_c.c       ****     ssp = (int*)ssp_s;
 515               		.loc 1 79 5 view .LVU175
  79:mtk_c.c       ****     ssp = (int*)ssp_s;
 516               		.loc 1 79 16 is_stmt 0 view .LVU176
 517 024c 4268 03FA 		clr.w 1018(%a0)
  80:mtk_c.c       ****     ssp -= 15; // 15x4 bytes for registers
 518               		.loc 1 80 5 is_stmt 1 view .LVU177
 519               	.LVL47:
  81:mtk_c.c       ****     *(--ssp) = (int)(uintptr_t)ustack_top;
 520               		.loc 1 81 5 view .LVU178
  82:mtk_c.c       ****     return ssp;
 521               		.loc 1 82 5 view .LVU179
  82:mtk_c.c       ****     return ssp;
 522               		.loc 1 82 14 is_stmt 0 view .LVU180
 523 0250 2148 03BA 		move.l %a0,954(%a0)
  83:mtk_c.c       **** }
 524               		.loc 1 83 5 is_stmt 1 view .LVU181
  84:mtk_c.c       **** 
 525               		.loc 1 84 1 is_stmt 0 view .LVU182
 526 0254 2008      		move.l %a0,%d0
 527 0256 0680 0000 		add.l #954,%d0
 527      03BA 
 528               	.LVL48:
  84:mtk_c.c       **** 
 529               		.loc 1 84 1 view .LVU183
 530 025c 241F      		move.l (%sp)+,%d2
 531 025e 4E75      		rts
 532               		.cfi_endproc
 533               	.LFE6:
 534               		.size	init_stack, .-init_stack
 535               		.align	2
 536               		.globl	addq
 537               		.type	addq, @function
 538               	addq:
 539               	.LVL49:
 540               	.LFB7:
  86:mtk_c.c       ****     if (DEBUG) printf("[DEBUG] addq: added task_id = %d\n", task_id);
 541               		.loc 1 86 50 is_stmt 1 view -0
 542               		.cfi_startproc
  86:mtk_c.c       ****     if (DEBUG) printf("[DEBUG] addq: added task_id = %d\n", task_id);
 543               		.loc 1 86 50 is_stmt 0 view .LVU185
 544 0260 2F02      		move.l %d2,-(%sp)
 545               		.cfi_def_cfa_offset 8
 546               		.cfi_offset 2, -8
 547 0262 206F 0008 		move.l 8(%sp),%a0
 548 0266 242F 000C 		move.l 12(%sp),%d2


  87:mtk_c.c       ****     // 引数にキューへのポインタとタスクの ID を取り，その TCB をキュー
 549               		.loc 1 87 5 is_stmt 1 view .LVU186
  89:mtk_c.c       ****     while (cur->next != NULLTASKID) cur = &task_tab[cur->next];
 550               		.loc 1 89 5 view .LVU187
 551               	.LVL50:
  90:mtk_c.c       ****     // ここに到達した時点でcur->nextはNULLTASKID
 552               		.loc 1 90 5 view .LVU188
  90:mtk_c.c       ****     // ここに到達した時点でcur->nextはNULLTASKID
 553               		.loc 1 90 22 view .LVU189
  90:mtk_c.c       ****     // ここに到達した時点でcur->nextはNULLTASKID
 554               		.loc 1 90 15 is_stmt 0 view .LVU190
 555 026a 2028 0010 		move.l 16(%a0),%d0
 556 026e 43F9 0000 		lea task_tab,%a1
 556      0000 
  90:mtk_c.c       ****     // ここに到達した時点でcur->nextはNULLTASKID
 557               		.loc 1 90 22 view .LVU191
 558 0274 6724      		jeq .L36
 559               	.LVL51:
 560               	.L37:
  90:mtk_c.c       ****     // ここに到達した時点でcur->nextはNULLTASKID
 561               		.loc 1 90 37 is_stmt 1 discriminator 2 view .LVU192
  90:mtk_c.c       ****     // ここに到達した時点でcur->nextはNULLTASKID
 562               		.loc 1 90 22 discriminator 2 view .LVU193
 563 0276 2200      		move.l %d0,%d1
  90:mtk_c.c       ****     // ここに到達した時点でcur->nextはNULLTASKID
 564               		.loc 1 90 15 is_stmt 0 discriminator 2 view .LVU194
 565 0278 D080      		add.l %d0,%d0
 566               	.LVL52:
  90:mtk_c.c       ****     // ここに到達した時点でcur->nextはNULLTASKID
 567               		.loc 1 90 15 discriminator 2 view .LVU195
 568 027a D080      		add.l %d0,%d0
 569 027c D081      		add.l %d1,%d0
 570 027e D080      		add.l %d0,%d0
 571 0280 D080      		add.l %d0,%d0
 572 0282 2031 0810 		move.l 16(%a1,%d0.l),%d0
  90:mtk_c.c       ****     // ここに到達した時点でcur->nextはNULLTASKID
 573               		.loc 1 90 22 discriminator 2 view .LVU196
 574 0286 66EE      		jne .L37
  90:mtk_c.c       ****     // ここに到達した時点でcur->nextはNULLTASKID
 575               		.loc 1 90 41 view .LVU197
 576 0288 2041      		move.l %d1,%a0
 577 028a D1C1      		add.l %d1,%a0
 578 028c D1C8      		add.l %a0,%a0
 579 028e D1C1      		add.l %d1,%a0
 580 0290 D1C8      		add.l %a0,%a0
 581 0292 D1C8      		add.l %a0,%a0
 582 0294 D1FC 0000 		add.l #task_tab,%a0
 582      0000 
 583               	.LVL53:
 584               	.L36:
  92:mtk_c.c       ****     task_tab[task_id].next = NULLTASKID; // 新しい最後尾
 585               		.loc 1 92 5 is_stmt 1 view .LVU198
  92:mtk_c.c       ****     task_tab[task_id].next = NULLTASKID; // 新しい最後尾
 586               		.loc 1 92 15 is_stmt 0 view .LVU199
 587 029a 2142 0010 		move.l %d2,16(%a0)
  93:mtk_c.c       **** }
 588               		.loc 1 93 5 is_stmt 1 view .LVU200


  93:mtk_c.c       **** }
 589               		.loc 1 93 28 is_stmt 0 view .LVU201
 590 029e 2002      		move.l %d2,%d0
 591 02a0 D082      		add.l %d2,%d0
 592 02a2 D080      		add.l %d0,%d0
 593 02a4 D082      		add.l %d2,%d0
 594 02a6 D080      		add.l %d0,%d0
 595 02a8 D080      		add.l %d0,%d0
 596 02aa 42B1 0810 		clr.l 16(%a1,%d0.l)
  94:mtk_c.c       **** 
 597               		.loc 1 94 1 view .LVU202
 598 02ae 241F      		move.l (%sp)+,%d2
 599 02b0 4E75      		rts
 600               		.cfi_endproc
 601               	.LFE7:
 602               		.size	addq, .-addq
 603               		.align	2
 604               		.globl	removeq
 605               		.type	removeq, @function
 606               	removeq:
 607               	.LVL54:
 608               	.LFB8:
  96:mtk_c.c       ****     TASK_ID_TYPE task_id;
 609               		.loc 1 96 39 is_stmt 1 view -0
 610               		.cfi_startproc
  96:mtk_c.c       ****     TASK_ID_TYPE task_id;
 611               		.loc 1 96 39 is_stmt 0 view .LVU204
 612 02b2 2F0A      		move.l %a2,-(%sp)
 613               		.cfi_def_cfa_offset 8
 614               		.cfi_offset 10, -8
 615 02b4 246F 0008 		move.l 8(%sp),%a2
  97:mtk_c.c       ****     // semaphore キューの場合
 616               		.loc 1 97 5 is_stmt 1 view .LVU205
  99:mtk_c.c       ****         if (q_ptr == &task_tab[semaphore[i].task_list]) {
 617               		.loc 1 99 5 view .LVU206
 618               	.LBB45:
  99:mtk_c.c       ****         if (q_ptr == &task_tab[semaphore[i].task_list]) {
 619               		.loc 1 99 10 view .LVU207
 620               	.LVL55:
  99:mtk_c.c       ****         if (q_ptr == &task_tab[semaphore[i].task_list]) {
 621               		.loc 1 99 23 view .LVU208
 622 02b8 43F9 0000 		lea semaphore+8,%a1
 622      0000 
  99:mtk_c.c       ****         if (q_ptr == &task_tab[semaphore[i].task_list]) {
 623               		.loc 1 99 14 is_stmt 0 view .LVU209
 624 02be 91C8      		sub.l %a0,%a0
 625               	.LVL56:
 626               	.L47:
 100:mtk_c.c       ****             task_id = semaphore[i].task_list; // task_id = キューの先頭タスクID
 627               		.loc 1 100 9 is_stmt 1 view .LVU210
 100:mtk_c.c       ****             task_id = semaphore[i].task_list; // task_id = キューの先頭タスクID
 628               		.loc 1 100 44 is_stmt 0 view .LVU211
 629 02c0 2011      		move.l (%a1),%d0
 100:mtk_c.c       ****             task_id = semaphore[i].task_list; // task_id = キューの先頭タスクID
 630               		.loc 1 100 22 view .LVU212
 631 02c2 2200      		move.l %d0,%d1
 632 02c4 D280      		add.l %d0,%d1


 633 02c6 D281      		add.l %d1,%d1
 634 02c8 D280      		add.l %d0,%d1
 635 02ca D281      		add.l %d1,%d1
 636 02cc D281      		add.l %d1,%d1
 637 02ce 0681 0000 		add.l #task_tab,%d1
 637      0000 
 100:mtk_c.c       ****             task_id = semaphore[i].task_list; // task_id = キューの先頭タスクID
 638               		.loc 1 100 12 view .LVU213
 639 02d4 B28A      		cmp.l %a2,%d1
 640 02d6 672E      		jeq .L52
  99:mtk_c.c       ****         if (q_ptr == &task_tab[semaphore[i].task_list]) {
 641               		.loc 1 99 40 is_stmt 1 discriminator 2 view .LVU214
 642 02d8 5288      		addq.l #1,%a0
 643               	.LVL57:
  99:mtk_c.c       ****         if (q_ptr == &task_tab[semaphore[i].task_list]) {
 644               		.loc 1 99 23 discriminator 2 view .LVU215
 645 02da 43E9 000C 		lea (12,%a1),%a1
 646 02de 7008      		moveq #8,%d0
 647 02e0 B088      		cmp.l %a0,%d0
 648 02e2 66DC      		jne .L47
 649               	.LVL58:
  99:mtk_c.c       ****         if (q_ptr == &task_tab[semaphore[i].task_list]) {
 650               		.loc 1 99 23 is_stmt 0 discriminator 2 view .LVU216
 651               	.LBE45:
 652               	.LBB46:
 653               	.LBI46:
  96:mtk_c.c       ****     TASK_ID_TYPE task_id;
 654               		.loc 1 96 14 is_stmt 1 view .LVU217
 655               	.LBB47:
 110:mtk_c.c       ****         task_id = ready; // task_id = キューの先頭タスクID
 656               		.loc 1 110 5 view .LVU218
 110:mtk_c.c       ****         task_id = ready; // task_id = キューの先頭タスクID
 657               		.loc 1 110 27 is_stmt 0 view .LVU219
 658 02e4 2039 0000 		move.l ready,%d0
 658      0000 
 110:mtk_c.c       ****         task_id = ready; // task_id = キューの先頭タスクID
 659               		.loc 1 110 18 view .LVU220
 660 02ea 2200      		move.l %d0,%d1
 661 02ec D280      		add.l %d0,%d1
 662 02ee D281      		add.l %d1,%d1
 663 02f0 D280      		add.l %d0,%d1
 664 02f2 D281      		add.l %d1,%d1
 665 02f4 D281      		add.l %d1,%d1
 666 02f6 0681 0000 		add.l #task_tab,%d1
 666      0000 
 110:mtk_c.c       ****         task_id = ready; // task_id = キューの先頭タスクID
 667               		.loc 1 110 8 view .LVU221
 668 02fc B28A      		cmp.l %a2,%d1
 669 02fe 6720      		jeq .L53
 116:mtk_c.c       ****     }
 117:mtk_c.c       ****     return NULLTASKID;
 670               		.loc 1 117 12 view .LVU222
 671 0300 7000      		moveq #0,%d0
 672               	.LVL59:
 673               		.loc 1 117 12 view .LVU223
 674               	.LBE47:
 675               	.LBE46:


 118:mtk_c.c       **** }
 676               		.loc 1 118 1 view .LVU224
 677 0302 245F      		move.l (%sp)+,%a2
 678 0304 4E75      		rts
 679               	.L52:
 680               	.LBB49:
 101:mtk_c.c       ****             semaphore[i].task_list = (*q_ptr).next; // 先頭タスクをキューから取り除
 681               		.loc 1 101 13 is_stmt 1 view .LVU225
 682               	.LVL60:
 102:mtk_c.c       ****             // (*q_ptr).next = NULLTASKID;
 683               		.loc 1 102 13 view .LVU226
 102:mtk_c.c       ****             // (*q_ptr).next = NULLTASKID;
 684               		.loc 1 102 36 is_stmt 0 view .LVU227
 685 0306 2208      		move.l %a0,%d1
 686 0308 D288      		add.l %a0,%d1
 687 030a D288      		add.l %a0,%d1
 688 030c D281      		add.l %d1,%d1
 689 030e D281      		add.l %d1,%d1
 690 0310 2041      		move.l %d1,%a0
 691               	.LVL61:
 102:mtk_c.c       ****             // (*q_ptr).next = NULLTASKID;
 692               		.loc 1 102 36 view .LVU228
 693 0312 D1FC 0000 		add.l #semaphore+8,%a0
 693      0000 
 694 0318 20AA 0010 		move.l 16(%a2),(%a0)
 104:mtk_c.c       ****             return task_id;
 695               		.loc 1 104 13 is_stmt 1 view .LVU229
 105:mtk_c.c       ****         }
 696               		.loc 1 105 13 view .LVU230
 697               	.LBE49:
 698               		.loc 1 118 1 is_stmt 0 view .LVU231
 699 031c 245F      		move.l (%sp)+,%a2
 700 031e 4E75      		rts
 701               	.LVL62:
 702               	.L53:
 703               	.LBB50:
 704               	.LBB48:
 111:mtk_c.c       ****         ready = (*q_ptr).next; // 先頭タスクをキューから取り除く
 705               		.loc 1 111 9 is_stmt 1 view .LVU232
 112:mtk_c.c       ****         // (*q_ptr).next = NULLTASKID;
 706               		.loc 1 112 9 view .LVU233
 112:mtk_c.c       ****         // (*q_ptr).next = NULLTASKID;
 707               		.loc 1 112 15 is_stmt 0 view .LVU234
 708 0320 23EA 0010 		move.l 16(%a2),ready
 708      0000 0000 
 114:mtk_c.c       ****         return task_id;
 709               		.loc 1 114 9 is_stmt 1 view .LVU235
 115:mtk_c.c       ****     }
 710               		.loc 1 115 9 view .LVU236
 711               	.LBE48:
 712               	.LBE50:
 713               		.loc 1 118 1 is_stmt 0 view .LVU237
 714 0328 245F      		move.l (%sp)+,%a2
 715               	.LVL63:
 716               		.loc 1 118 1 view .LVU238
 717 032a 4E75      		rts
 718               		.cfi_endproc


 719               	.LFE8:
 720               		.size	removeq, .-removeq
 721               		.align	2
 722               		.globl	sched
 723               		.type	sched, @function
 724               	sched:
 725               	.LFB9:
 119:mtk_c.c       **** 
 120:mtk_c.c       **** void sched() {
 726               		.loc 1 120 14 is_stmt 1 view -0
 727               		.cfi_startproc
 728 032c 48E7 3800 		movem.l #14336,-(%sp)
 729               		.cfi_def_cfa_offset 16
 730               		.cfi_offset 2, -16
 731               		.cfi_offset 3, -12
 732               		.cfi_offset 4, -8
 121:mtk_c.c       ****     if (DEBUG) printf("[DEBUG] sched()\n");
 733               		.loc 1 121 5 view .LVU240
 122:mtk_c.c       ****     next_task = removeq(&task_tab[ready]); // next_task = readyキューの先頭タスクID
 734               		.loc 1 122 5 view .LVU241
 735               		.loc 1 122 34 is_stmt 0 view .LVU242
 736 0330 2839 0000 		move.l ready,%d4
 736      0000 
 737 0336 2404      		move.l %d4,%d2
 738 0338 D484      		add.l %d4,%d2
 739 033a 2602      		move.l %d2,%d3
 740 033c D682      		add.l %d2,%d3
 741 033e D684      		add.l %d4,%d3
 742 0340 D683      		add.l %d3,%d3
 743 0342 D683      		add.l %d3,%d3
 744               	.LVL64:
 745               	.LBB57:
 746               	.LBI57:
  96:mtk_c.c       ****     TASK_ID_TYPE task_id;
 747               		.loc 1 96 14 is_stmt 1 view .LVU243
 748               	.LBB58:
 749               	.LBB59:
  99:mtk_c.c       ****         if (q_ptr == &task_tab[semaphore[i].task_list]) {
 750               		.loc 1 99 23 view .LVU244
 751 0344 43F9 0000 		lea semaphore+8,%a1
 751      0000 
  99:mtk_c.c       ****         if (q_ptr == &task_tab[semaphore[i].task_list]) {
 752               		.loc 1 99 14 is_stmt 0 view .LVU245
 753 034a 91C8      		sub.l %a0,%a0
 754               	.LVL65:
 755               	.L57:
 100:mtk_c.c       ****             task_id = semaphore[i].task_list; // task_id = キューの先頭タスクID
 756               		.loc 1 100 9 is_stmt 1 view .LVU246
 100:mtk_c.c       ****             task_id = semaphore[i].task_list; // task_id = キューの先頭タスクID
 757               		.loc 1 100 44 is_stmt 0 view .LVU247
 758 034c 2211      		move.l (%a1),%d1
 100:mtk_c.c       ****             task_id = semaphore[i].task_list; // task_id = キューの先頭タスクID
 759               		.loc 1 100 12 view .LVU248
 760 034e 2001      		move.l %d1,%d0
 761 0350 D081      		add.l %d1,%d0
 762 0352 D080      		add.l %d0,%d0
 763 0354 D081      		add.l %d1,%d0


 764 0356 D080      		add.l %d0,%d0
 765 0358 D080      		add.l %d0,%d0
 766 035a B083      		cmp.l %d3,%d0
 767 035c 6732      		jeq .L65
  99:mtk_c.c       ****         if (q_ptr == &task_tab[semaphore[i].task_list]) {
 768               		.loc 1 99 40 is_stmt 1 view .LVU249
 769 035e 5288      		addq.l #1,%a0
 770               	.LVL66:
  99:mtk_c.c       ****         if (q_ptr == &task_tab[semaphore[i].task_list]) {
 771               		.loc 1 99 23 view .LVU250
 772 0360 43E9 000C 		lea (12,%a1),%a1
 773 0364 7008      		moveq #8,%d0
 774 0366 B088      		cmp.l %a0,%d0
 775 0368 66E2      		jne .L57
 776               	.LVL67:
  99:mtk_c.c       ****         if (q_ptr == &task_tab[semaphore[i].task_list]) {
 777               		.loc 1 99 23 is_stmt 0 view .LVU251
 778               	.LBE59:
 779               	.LBB60:
 780               	.LBI60:
  96:mtk_c.c       ****     TASK_ID_TYPE task_id;
 781               		.loc 1 96 14 is_stmt 1 view .LVU252
 782               	.LBB61:
 110:mtk_c.c       ****         task_id = ready; // task_id = キューの先頭タスクID
 783               		.loc 1 110 5 view .LVU253
 111:mtk_c.c       ****         ready = (*q_ptr).next; // 先頭タスクをキューから取り除く
 784               		.loc 1 111 9 view .LVU254
 112:mtk_c.c       ****         // (*q_ptr).next = NULLTASKID;
 785               		.loc 1 112 9 view .LVU255
 112:mtk_c.c       ****         // (*q_ptr).next = NULLTASKID;
 786               		.loc 1 112 25 is_stmt 0 view .LVU256
 787 036a D482      		add.l %d2,%d2
 788 036c D484      		add.l %d4,%d2
 789 036e D482      		add.l %d2,%d2
 790 0370 D482      		add.l %d2,%d2
 791 0372 2042      		move.l %d2,%a0
 792               	.LVL68:
 112:mtk_c.c       ****         // (*q_ptr).next = NULLTASKID;
 793               		.loc 1 112 25 view .LVU257
 794 0374 D1FC 0000 		add.l #task_tab+16,%a0
 794      0000 
 112:mtk_c.c       ****         // (*q_ptr).next = NULLTASKID;
 795               		.loc 1 112 15 view .LVU258
 796 037a 23D0 0000 		move.l (%a0),ready
 796      0000 
 114:mtk_c.c       ****         return task_id;
 797               		.loc 1 114 9 is_stmt 1 view .LVU259
 115:mtk_c.c       ****     }
 798               		.loc 1 115 9 view .LVU260
 799               	.LVL69:
 115:mtk_c.c       ****     }
 800               		.loc 1 115 9 is_stmt 0 view .LVU261
 801               	.LBE61:
 802               	.LBE60:
 803               	.LBE58:
 804               	.LBE57:
 805               		.loc 1 122 15 view .LVU262


 806 0380 23C4 0000 		move.l %d4,next_task
 806      0000 
 123:mtk_c.c       ****     if (DEBUG) printf("[DEBUG] sched: next_task = %d\n", next_task);
 807               		.loc 1 123 5 is_stmt 1 view .LVU263
 124:mtk_c.c       ****     while (next_task == NULLTASKID); // next_task = NULLTASKID なら無限ループ 
 808               		.loc 1 124 22 view .LVU264
 809 0386 6602      		jne .L62
 810               	.L61:
 811 0388 60FE      		jra .L61
 812               	.L62:
 125:mtk_c.c       **** }
 813               		.loc 1 125 1 is_stmt 0 view .LVU265
 814 038a 4CDF 001C 		movem.l (%sp)+,#28
 815 038e 4E75      		rts
 816               	.LVL70:
 817               	.L65:
 818               	.LBB64:
 819               	.LBB63:
 820               	.LBB62:
 101:mtk_c.c       ****             semaphore[i].task_list = (*q_ptr).next; // 先頭タスクをキューから取り除
 821               		.loc 1 101 13 is_stmt 1 view .LVU266
 102:mtk_c.c       ****             // (*q_ptr).next = NULLTASKID;
 822               		.loc 1 102 13 view .LVU267
 102:mtk_c.c       ****             // (*q_ptr).next = NULLTASKID;
 823               		.loc 1 102 36 is_stmt 0 view .LVU268
 824 0390 2008      		move.l %a0,%d0
 825 0392 D088      		add.l %a0,%d0
 826 0394 D088      		add.l %a0,%d0
 827 0396 D080      		add.l %d0,%d0
 828 0398 D080      		add.l %d0,%d0
 829 039a 2040      		move.l %d0,%a0
 830               	.LVL71:
 102:mtk_c.c       ****             // (*q_ptr).next = NULLTASKID;
 831               		.loc 1 102 36 view .LVU269
 832 039c D1FC 0000 		add.l #semaphore+8,%a0
 832      0000 
 102:mtk_c.c       ****             // (*q_ptr).next = NULLTASKID;
 833               		.loc 1 102 46 view .LVU270
 834 03a2 D482      		add.l %d2,%d2
 835 03a4 D484      		add.l %d4,%d2
 836 03a6 D482      		add.l %d2,%d2
 837 03a8 D482      		add.l %d2,%d2
 838 03aa 2242      		move.l %d2,%a1
 839 03ac D3FC 0000 		add.l #task_tab+16,%a1
 839      0000 
 102:mtk_c.c       ****             // (*q_ptr).next = NULLTASKID;
 840               		.loc 1 102 36 view .LVU271
 841 03b2 2091      		move.l (%a1),(%a0)
 104:mtk_c.c       ****             return task_id;
 842               		.loc 1 104 13 is_stmt 1 view .LVU272
 105:mtk_c.c       ****         }
 843               		.loc 1 105 13 view .LVU273
 100:mtk_c.c       ****             task_id = semaphore[i].task_list; // task_id = キューの先頭タスクID
 844               		.loc 1 100 44 is_stmt 0 view .LVU274
 845 03b4 2801      		move.l %d1,%d4
 846               	.LVL72:
 100:mtk_c.c       ****             task_id = semaphore[i].task_list; // task_id = キューの先頭タスクID


 847               		.loc 1 100 44 view .LVU275
 848               	.LBE62:
 849               	.LBE63:
 850               	.LBE64:
 122:mtk_c.c       ****     if (DEBUG) printf("[DEBUG] sched: next_task = %d\n", next_task);
 851               		.loc 1 122 15 view .LVU276
 852 03b6 23C4 0000 		move.l %d4,next_task
 852      0000 
 123:mtk_c.c       ****     while (next_task == NULLTASKID); // next_task = NULLTASKID なら無限ループ 
 853               		.loc 1 123 5 is_stmt 1 view .LVU277
 124:mtk_c.c       **** }
 854               		.loc 1 124 22 view .LVU278
 855 03bc 67CA      		jeq .L61
 124:mtk_c.c       **** }
 856               		.loc 1 124 22 is_stmt 0 view .LVU279
 857 03be 60CA      		jra .L62
 858               		.cfi_endproc
 859               	.LFE9:
 860               		.size	sched, .-sched
 861               		.align	2
 862               		.globl	sleep
 863               		.type	sleep, @function
 864               	sleep:
 865               	.LVL73:
 866               	.LFB13:
 126:mtk_c.c       **** 
 127:mtk_c.c       **** void p_body(int ID) {
 128:mtk_c.c       ****     if (DEBUG) printf("[DEBUG] p_body(%d)\n", ID);
 129:mtk_c.c       ****     // セマフォIDがスタックに積まれている
 130:mtk_c.c       ****     // 1.セマフォの値を減らす
 131:mtk_c.c       ****     SEMAPHORE_TYPE *sema = &semaphore[ID];
 132:mtk_c.c       ****     sema->count -= 1;
 133:mtk_c.c       ****     // 2.セマフォが獲得できなけれれば sleep(セマフォの ID)
 134:mtk_c.c       ****     if (sema->count < 0) sleep(ID);
 135:mtk_c.c       **** }
 136:mtk_c.c       **** 
 137:mtk_c.c       **** void waitp_body(SEMAPHORE_ID_TYPE sem_id) {
 138:mtk_c.c       ****     SEMAPHORE_TYPE *sp;
 139:mtk_c.c       ****     sp = &semaphore[sem_id];
 140:mtk_c.c       ****     if (sp->count != -(sp->nst - 1)) {
 141:mtk_c.c       ****         p_body(sem_id);
 142:mtk_c.c       ****     } else {
 143:mtk_c.c       **** 	for (int k = 0; k < sp->nst - 1; k++) {
 144:mtk_c.c       **** 	    v_body(sem_id);
 145:mtk_c.c       **** 	addq(&task_tab[ready], curr_task);
 146:mtk_c.c       **** 	sched();
 147:mtk_c.c       **** 	swtch();
 148:mtk_c.c       **** 	}	
 149:mtk_c.c       ****     }
 150:mtk_c.c       **** }
 151:mtk_c.c       **** 
 152:mtk_c.c       **** void v_body(int ID) {
 153:mtk_c.c       ****     if (DEBUG) printf("[DEBUG] v_body(%d)\n", ID);
 154:mtk_c.c       ****     // セマフォIDがスタックに積まれている
 155:mtk_c.c       ****     // 1.セマフォの値を増やす
 156:mtk_c.c       ****     SEMAPHORE_TYPE *sema = &semaphore[ID];
 157:mtk_c.c       ****     sema->count += 1;


 158:mtk_c.c       ****     // 2.セマフォが空けば，wakeup(セマフォの ID) 
 159:mtk_c.c       ****     if (sema->count <= 0) wakeup(ID);
 160:mtk_c.c       **** }
 161:mtk_c.c       **** 
 162:mtk_c.c       **** void sleep(int ch) {
 867               		.loc 1 162 20 is_stmt 1 view -0
 868               		.cfi_startproc
 869               		.loc 1 162 20 is_stmt 0 view .LVU281
 870 03c0 48E7 3830 		movem.l #14384,-(%sp)
 871               		.cfi_def_cfa_offset 24
 872               		.cfi_offset 2, -24
 873               		.cfi_offset 3, -20
 874               		.cfi_offset 4, -16
 875               		.cfi_offset 10, -12
 876               		.cfi_offset 11, -8
 877 03c4 222F 0018 		move.l 24(%sp),%d1
 163:mtk_c.c       ****     if (DEBUG) printf("[DEBUG] sleep(%d)\n", ch);
 878               		.loc 1 163 5 is_stmt 1 view .LVU282
 164:mtk_c.c       ****     SEMAPHORE_TYPE *sema = &semaphore[ch]; /*セマフォのポインタの取得p38*/
 879               		.loc 1 164 5 view .LVU283
 880               	.LVL74:
 165:mtk_c.c       ****     if (sema->task_list == NULLTASKID) {
 881               		.loc 1 165 5 view .LVU284
 882               		.loc 1 165 13 is_stmt 0 view .LVU285
 883 03c8 45F9 0000 		lea semaphore,%a2
 883      0000 
 884 03ce 2001      		move.l %d1,%d0
 885 03d0 D081      		add.l %d1,%d0
 886 03d2 D081      		add.l %d1,%d0
 887 03d4 D080      		add.l %d0,%d0
 888 03d6 D080      		add.l %d0,%d0
 889 03d8 41F2 0808 		lea 8(%a2,%d0.l),%a0
 890 03dc 2210      		move.l (%a0),%d1
 891               	.LVL75:
 166:mtk_c.c       ****         sema->task_list = curr_task;
 892               		.loc 1 166 25 view .LVU286
 893 03de 2439 0000 		move.l curr_task,%d2
 893      0000 
 165:mtk_c.c       ****     if (sema->task_list == NULLTASKID) {
 894               		.loc 1 165 8 view .LVU287
 895 03e4 4A81      		tst.l %d1
 896 03e6 6600 0084 		jne .L67
 897               		.loc 1 166 9 is_stmt 1 view .LVU288
 898               		.loc 1 166 25 is_stmt 0 view .LVU289
 899 03ea 2082      		move.l %d2,(%a0)
 167:mtk_c.c       ****         task_tab[curr_task].next = NULLTASKID;
 900               		.loc 1 167 9 is_stmt 1 view .LVU290
 901 03ec 43F9 0000 		lea task_tab,%a1
 901      0000 
 902               		.loc 1 167 34 is_stmt 0 view .LVU291
 903 03f2 2042      		move.l %d2,%a0
 904 03f4 D1C2      		add.l %d2,%a0
 905 03f6 D1C8      		add.l %a0,%a0
 906 03f8 D1C2      		add.l %d2,%a0
 907 03fa D1C8      		add.l %a0,%a0
 908 03fc D1C8      		add.l %a0,%a0
 909 03fe 41F1 8800 		lea (%a1,%a0.l),%a0


 910 0402 42A8 0010 		clr.l 16(%a0)
 168:mtk_c.c       ****     }
 169:mtk_c.c       ****     else addq(&task_tab[sema->task_list], curr_task); /*現在実行中のタスクcurrent_taskを
 170:mtk_c.c       ****     task_tab[curr_task].status = TASK_SLEEP; /*タスクの状態を管理(TCBのstatusを管理す
 911               		.loc 1 170 5 is_stmt 1 view .LVU292
 912               		.loc 1 170 32 is_stmt 0 view .LVU293
 913 0406 7004      		moveq #4,%d0
 914 0408 2140 000C 		move.l %d0,12(%a0)
 171:mtk_c.c       ****     sched();
 915               		.loc 1 171 5 is_stmt 1 view .LVU294
 916               	.LBB75:
 917               	.LBI75:
 120:mtk_c.c       ****     if (DEBUG) printf("[DEBUG] sched()\n");
 918               		.loc 1 120 6 view .LVU295
 919               	.LBB76:
 121:mtk_c.c       ****     next_task = removeq(&task_tab[ready]); // next_task = readyキューの先頭タスクID
 920               		.loc 1 121 5 view .LVU296
 122:mtk_c.c       ****     if (DEBUG) printf("[DEBUG] sched: next_task = %d\n", next_task);
 921               		.loc 1 122 5 view .LVU297
 122:mtk_c.c       ****     if (DEBUG) printf("[DEBUG] sched: next_task = %d\n", next_task);
 922               		.loc 1 122 34 is_stmt 0 view .LVU298
 923 040c 2839 0000 		move.l ready,%d4
 923      0000 
 924 0412 2404      		move.l %d4,%d2
 925 0414 D484      		add.l %d4,%d2
 926 0416 2602      		move.l %d2,%d3
 927 0418 D682      		add.l %d2,%d3
 928 041a D684      		add.l %d4,%d3
 929 041c D683      		add.l %d3,%d3
 930 041e D683      		add.l %d3,%d3
 931               	.LVL76:
 932               	.LBB77:
 933               	.LBI77:
  96:mtk_c.c       ****     TASK_ID_TYPE task_id;
 934               		.loc 1 96 14 is_stmt 1 view .LVU299
 935               	.LBB78:
 936               	.LBB79:
  99:mtk_c.c       ****         if (q_ptr == &task_tab[semaphore[i].task_list]) {
 937               		.loc 1 99 23 view .LVU300
 938 0420 47F9 0000 		lea semaphore+8,%a3
 938      0000 
  99:mtk_c.c       ****         if (q_ptr == &task_tab[semaphore[i].task_list]) {
 939               		.loc 1 99 14 is_stmt 0 view .LVU301
 940 0426 91C8      		sub.l %a0,%a0
 941               	.LVL77:
 942               	.L74:
 100:mtk_c.c       ****             task_id = semaphore[i].task_list; // task_id = キューの先頭タスクID
 943               		.loc 1 100 9 is_stmt 1 view .LVU302
 100:mtk_c.c       ****             task_id = semaphore[i].task_list; // task_id = キューの先頭タスクID
 944               		.loc 1 100 44 is_stmt 0 view .LVU303
 945 0428 2213      		move.l (%a3),%d1
 100:mtk_c.c       ****             task_id = semaphore[i].task_list; // task_id = キューの先頭タスクID
 946               		.loc 1 100 12 view .LVU304
 947 042a 2001      		move.l %d1,%d0
 948 042c D081      		add.l %d1,%d0
 949 042e D080      		add.l %d0,%d0
 950 0430 D081      		add.l %d1,%d0


 951 0432 D080      		add.l %d0,%d0
 952 0434 D080      		add.l %d0,%d0
 953 0436 B083      		cmp.l %d3,%d0
 954 0438 6700 00B2 		jeq .L83
  99:mtk_c.c       ****         if (q_ptr == &task_tab[semaphore[i].task_list]) {
 955               		.loc 1 99 40 is_stmt 1 view .LVU305
 956 043c 5288      		addq.l #1,%a0
 957               	.LVL78:
  99:mtk_c.c       ****         if (q_ptr == &task_tab[semaphore[i].task_list]) {
 958               		.loc 1 99 23 view .LVU306
 959 043e 47EB 000C 		lea (12,%a3),%a3
 960 0442 7008      		moveq #8,%d0
 961 0444 B088      		cmp.l %a0,%d0
 962 0446 66E0      		jne .L74
 963               	.LVL79:
  99:mtk_c.c       ****         if (q_ptr == &task_tab[semaphore[i].task_list]) {
 964               		.loc 1 99 23 is_stmt 0 view .LVU307
 965               	.LBE79:
 966               	.LBB80:
 967               	.LBI80:
  96:mtk_c.c       ****     TASK_ID_TYPE task_id;
 968               		.loc 1 96 14 is_stmt 1 view .LVU308
 969               	.LBB81:
 110:mtk_c.c       ****         task_id = ready; // task_id = キューの先頭タスクID
 970               		.loc 1 110 5 view .LVU309
 111:mtk_c.c       ****         ready = (*q_ptr).next; // 先頭タスクをキューから取り除く
 971               		.loc 1 111 9 view .LVU310
 112:mtk_c.c       ****         // (*q_ptr).next = NULLTASKID;
 972               		.loc 1 112 9 view .LVU311
 112:mtk_c.c       ****         // (*q_ptr).next = NULLTASKID;
 973               		.loc 1 112 25 is_stmt 0 view .LVU312
 974 0448 D482      		add.l %d2,%d2
 975 044a D484      		add.l %d4,%d2
 976 044c D482      		add.l %d2,%d2
 977 044e D482      		add.l %d2,%d2
 112:mtk_c.c       ****         // (*q_ptr).next = NULLTASKID;
 978               		.loc 1 112 15 view .LVU313
 979 0450 23F1 2810 		move.l 16(%a1,%d2.l),ready
 979      0000 0000 
 114:mtk_c.c       ****         return task_id;
 980               		.loc 1 114 9 is_stmt 1 view .LVU314
 115:mtk_c.c       ****     }
 981               		.loc 1 115 9 view .LVU315
 982               	.LVL80:
 115:mtk_c.c       ****     }
 983               		.loc 1 115 9 is_stmt 0 view .LVU316
 984               	.LBE81:
 985               	.LBE80:
 986               	.LBE78:
 987               	.LBE77:
 122:mtk_c.c       ****     if (DEBUG) printf("[DEBUG] sched: next_task = %d\n", next_task);
 988               		.loc 1 122 15 view .LVU317
 989 0458 23C4 0000 		move.l %d4,next_task
 989      0000 
 123:mtk_c.c       ****     while (next_task == NULLTASKID); // next_task = NULLTASKID なら無限ループ 
 990               		.loc 1 123 5 is_stmt 1 view .LVU318
 124:mtk_c.c       **** }


 991               		.loc 1 124 22 view .LVU319
 992 045e 6602      		jne .L80
 993               	.L79:
 994 0460 60FE      		jra .L79
 995               	.L80:
 996               	.LBE76:
 997               	.LBE75:
 172:mtk_c.c       ****     swtch();    
 998               		.loc 1 172 5 view .LVU320
 173:mtk_c.c       **** }
 999               		.loc 1 173 1 is_stmt 0 view .LVU321
 1000 0462 4CDF 0C1C 		movem.l (%sp)+,#3100
 172:mtk_c.c       ****     swtch();    
 1001               		.loc 1 172 5 view .LVU322
 1002 0466 4EF9 0000 		jra swtch
 1002      0000 
 1003               	.LVL81:
 1004               	.L67:
 169:mtk_c.c       ****     task_tab[curr_task].status = TASK_SLEEP; /*タスクの状態を管理(TCBのstatusを管理す
 1005               		.loc 1 169 10 is_stmt 1 view .LVU323
 1006               	.LBB86:
 1007               	.LBI86:
  86:mtk_c.c       ****     if (DEBUG) printf("[DEBUG] addq: added task_id = %d\n", task_id);
 1008               		.loc 1 86 6 view .LVU324
 1009               	.LBB87:
  87:mtk_c.c       ****     // 引数にキューへのポインタとタスクの ID を取り，その TCB をキュー
 1010               		.loc 1 87 5 view .LVU325
  89:mtk_c.c       ****     while (cur->next != NULLTASKID) cur = &task_tab[cur->next];
 1011               		.loc 1 89 5 view .LVU326
  90:mtk_c.c       ****     // ここに到達した時点でcur->nextはNULLTASKID
 1012               		.loc 1 90 5 view .LVU327
  90:mtk_c.c       ****     // ここに到達した時点でcur->nextはNULLTASKID
 1013               		.loc 1 90 22 view .LVU328
  90:mtk_c.c       ****     // ここに到達した時点でcur->nextはNULLTASKID
 1014               		.loc 1 90 15 is_stmt 0 view .LVU329
 1015 046c 43F9 0000 		lea task_tab,%a1
 1015      0000 
 1016 0472 2001      		move.l %d1,%d0
 1017 0474 D081      		add.l %d1,%d0
 1018 0476 D080      		add.l %d0,%d0
 1019 0478 D081      		add.l %d1,%d0
 1020 047a D080      		add.l %d0,%d0
 1021 047c D080      		add.l %d0,%d0
 1022 047e 41F1 0800 		lea (%a1,%d0.l),%a0
 1023 0482 2028 0010 		move.l 16(%a0),%d0
  90:mtk_c.c       ****     // ここに到達した時点でcur->nextはNULLTASKID
 1024               		.loc 1 90 22 view .LVU330
 1025 0486 6726      		jeq .L71
 1026               	.LVL82:
 1027               	.L70:
  90:mtk_c.c       ****     // ここに到達した時点でcur->nextはNULLTASKID
 1028               		.loc 1 90 37 is_stmt 1 view .LVU331
  90:mtk_c.c       ****     // ここに到達した時点でcur->nextはNULLTASKID
 1029               		.loc 1 90 22 view .LVU332
 1030 0488 2200      		move.l %d0,%d1
  90:mtk_c.c       ****     // ここに到達した時点でcur->nextはNULLTASKID
 1031               		.loc 1 90 15 is_stmt 0 view .LVU333


 1032 048a D080      		add.l %d0,%d0
 1033               	.LVL83:
  90:mtk_c.c       ****     // ここに到達した時点でcur->nextはNULLTASKID
 1034               		.loc 1 90 15 view .LVU334
 1035 048c D080      		add.l %d0,%d0
 1036 048e D081      		add.l %d1,%d0
 1037 0490 D080      		add.l %d0,%d0
 1038 0492 D080      		add.l %d0,%d0
 1039 0494 2031 0810 		move.l 16(%a1,%d0.l),%d0
  90:mtk_c.c       ****     // ここに到達した時点でcur->nextはNULLTASKID
 1040               		.loc 1 90 22 view .LVU335
 1041 0498 66EE      		jne .L70
  90:mtk_c.c       ****     // ここに到達した時点でcur->nextはNULLTASKID
 1042               		.loc 1 90 41 view .LVU336
 1043 049a 2001      		move.l %d1,%d0
 1044 049c D081      		add.l %d1,%d0
 1045 049e D080      		add.l %d0,%d0
 1046 04a0 D081      		add.l %d1,%d0
 1047 04a2 D080      		add.l %d0,%d0
 1048 04a4 D080      		add.l %d0,%d0
 1049 04a6 2040      		move.l %d0,%a0
 1050 04a8 D1FC 0000 		add.l #task_tab,%a0
 1050      0000 
 1051               	.LVL84:
 1052               	.L71:
  92:mtk_c.c       ****     task_tab[task_id].next = NULLTASKID; // 新しい最後尾
 1053               		.loc 1 92 5 is_stmt 1 view .LVU337
  92:mtk_c.c       ****     task_tab[task_id].next = NULLTASKID; // 新しい最後尾
 1054               		.loc 1 92 15 is_stmt 0 view .LVU338
 1055 04ae 2142 0010 		move.l %d2,16(%a0)
  93:mtk_c.c       **** }
 1056               		.loc 1 93 5 is_stmt 1 view .LVU339
 1057               	.LBE87:
 1058               	.LBE86:
 167:mtk_c.c       ****     }
 1059               		.loc 1 167 34 is_stmt 0 view .LVU340
 1060 04b2 2042      		move.l %d2,%a0
 1061 04b4 D1C2      		add.l %d2,%a0
 1062 04b6 D1C8      		add.l %a0,%a0
 1063 04b8 D1C2      		add.l %d2,%a0
 1064 04ba D1C8      		add.l %a0,%a0
 1065 04bc D1C8      		add.l %a0,%a0
 1066 04be 41F1 8800 		lea (%a1,%a0.l),%a0
 1067 04c2 42A8 0010 		clr.l 16(%a0)
 1068               	.LVL85:
 170:mtk_c.c       ****     sched();
 1069               		.loc 1 170 5 is_stmt 1 view .LVU341
 170:mtk_c.c       ****     sched();
 1070               		.loc 1 170 32 is_stmt 0 view .LVU342
 1071 04c6 7004      		moveq #4,%d0
 1072 04c8 2140 000C 		move.l %d0,12(%a0)
 171:mtk_c.c       ****     swtch();    
 1073               		.loc 1 171 5 is_stmt 1 view .LVU343
 1074               	.LBB88:
 120:mtk_c.c       ****     if (DEBUG) printf("[DEBUG] sched()\n");
 1075               		.loc 1 120 6 view .LVU344
 1076               	.LBB85:


 121:mtk_c.c       ****     next_task = removeq(&task_tab[ready]); // next_task = readyキューの先頭タスクID
 1077               		.loc 1 121 5 view .LVU345
 122:mtk_c.c       ****     if (DEBUG) printf("[DEBUG] sched: next_task = %d\n", next_task);
 1078               		.loc 1 122 5 view .LVU346
 122:mtk_c.c       ****     if (DEBUG) printf("[DEBUG] sched: next_task = %d\n", next_task);
 1079               		.loc 1 122 34 is_stmt 0 view .LVU347
 1080 04cc 2839 0000 		move.l ready,%d4
 1080      0000 
 1081 04d2 2404      		move.l %d4,%d2
 1082 04d4 D484      		add.l %d4,%d2
 1083 04d6 2602      		move.l %d2,%d3
 1084 04d8 D682      		add.l %d2,%d3
 1085 04da D684      		add.l %d4,%d3
 1086 04dc D683      		add.l %d3,%d3
 1087 04de D683      		add.l %d3,%d3
 1088               	.LVL86:
 1089               	.LBB84:
  96:mtk_c.c       ****     TASK_ID_TYPE task_id;
 1090               		.loc 1 96 14 is_stmt 1 view .LVU348
 1091               	.LBB83:
 1092               	.LBB82:
  99:mtk_c.c       ****         if (q_ptr == &task_tab[semaphore[i].task_list]) {
 1093               		.loc 1 99 23 view .LVU349
 1094 04e0 47F9 0000 		lea semaphore+8,%a3
 1094      0000 
  99:mtk_c.c       ****         if (q_ptr == &task_tab[semaphore[i].task_list]) {
 1095               		.loc 1 99 14 is_stmt 0 view .LVU350
 1096 04e6 91C8      		sub.l %a0,%a0
 1097 04e8 6000 FF3E 		jra .L74
 1098               	.LVL87:
 1099               	.L83:
 101:mtk_c.c       ****             semaphore[i].task_list = (*q_ptr).next; // 先頭タスクをキューから取り除
 1100               		.loc 1 101 13 is_stmt 1 view .LVU351
 102:mtk_c.c       ****             // (*q_ptr).next = NULLTASKID;
 1101               		.loc 1 102 13 view .LVU352
 102:mtk_c.c       ****             // (*q_ptr).next = NULLTASKID;
 1102               		.loc 1 102 36 is_stmt 0 view .LVU353
 1103 04ec 2008      		move.l %a0,%d0
 1104 04ee D088      		add.l %a0,%d0
 1105 04f0 D088      		add.l %a0,%d0
 1106 04f2 D080      		add.l %d0,%d0
 1107 04f4 D080      		add.l %d0,%d0
 102:mtk_c.c       ****             // (*q_ptr).next = NULLTASKID;
 1108               		.loc 1 102 46 view .LVU354
 1109 04f6 D482      		add.l %d2,%d2
 1110 04f8 D484      		add.l %d4,%d2
 1111 04fa D482      		add.l %d2,%d2
 1112 04fc D482      		add.l %d2,%d2
 102:mtk_c.c       ****             // (*q_ptr).next = NULLTASKID;
 1113               		.loc 1 102 36 view .LVU355
 1114 04fe 25B1 2810 		move.l 16(%a1,%d2.l),8(%a2,%d0.l)
 1114      0808 
 104:mtk_c.c       ****             return task_id;
 1115               		.loc 1 104 13 is_stmt 1 view .LVU356
 105:mtk_c.c       ****         }
 1116               		.loc 1 105 13 view .LVU357
 100:mtk_c.c       ****             task_id = semaphore[i].task_list; // task_id = キューの先頭タスクID


 1117               		.loc 1 100 44 is_stmt 0 view .LVU358
 1118 0504 2801      		move.l %d1,%d4
 1119               	.LVL88:
 100:mtk_c.c       ****             task_id = semaphore[i].task_list; // task_id = キューの先頭タスクID
 1120               		.loc 1 100 44 view .LVU359
 1121               	.LBE82:
 1122               	.LBE83:
 1123               	.LBE84:
 122:mtk_c.c       ****     if (DEBUG) printf("[DEBUG] sched: next_task = %d\n", next_task);
 1124               		.loc 1 122 15 view .LVU360
 1125 0506 23C4 0000 		move.l %d4,next_task
 1125      0000 
 123:mtk_c.c       ****     while (next_task == NULLTASKID); // next_task = NULLTASKID なら無限ループ 
 1126               		.loc 1 123 5 is_stmt 1 view .LVU361
 124:mtk_c.c       **** }
 1127               		.loc 1 124 22 view .LVU362
 1128 050c 6700 FF52 		jeq .L79
 124:mtk_c.c       **** }
 1129               		.loc 1 124 22 is_stmt 0 view .LVU363
 1130 0510 6000 FF50 		jra .L80
 1131               	.LBE85:
 1132               	.LBE88:
 1133               		.cfi_endproc
 1134               	.LFE13:
 1135               		.size	sleep, .-sleep
 1136               		.align	2
 1137               		.globl	p_body
 1138               		.type	p_body, @function
 1139               	p_body:
 1140               	.LVL89:
 1141               	.LFB10:
 127:mtk_c.c       ****     if (DEBUG) printf("[DEBUG] p_body(%d)\n", ID);
 1142               		.loc 1 127 21 is_stmt 1 view -0
 1143               		.cfi_startproc
 127:mtk_c.c       ****     if (DEBUG) printf("[DEBUG] p_body(%d)\n", ID);
 1144               		.loc 1 127 21 is_stmt 0 view .LVU365
 1145 0514 222F 0004 		move.l 4(%sp),%d1
 128:mtk_c.c       ****     // セマフォIDがスタックに積まれている
 1146               		.loc 1 128 5 is_stmt 1 view .LVU366
 131:mtk_c.c       ****     sema->count -= 1;
 1147               		.loc 1 131 5 view .LVU367
 1148               	.LVL90:
 132:mtk_c.c       ****     // 2.セマフォが獲得できなけれれば sleep(セマフォの ID)
 1149               		.loc 1 132 5 view .LVU368
 132:mtk_c.c       ****     // 2.セマフォが獲得できなけれれば sleep(セマフォの ID)
 1150               		.loc 1 132 17 is_stmt 0 view .LVU369
 1151 0518 43F9 0000 		lea semaphore,%a1
 1151      0000 
 1152 051e 2001      		move.l %d1,%d0
 1153 0520 D081      		add.l %d1,%d0
 1154 0522 D081      		add.l %d1,%d0
 1155 0524 D080      		add.l %d0,%d0
 1156 0526 D080      		add.l %d0,%d0
 1157 0528 2071 0800 		move.l (%a1,%d0.l),%a0
 1158 052c 5388      		subq.l #1,%a0
 1159 052e 2388 0800 		move.l %a0,(%a1,%d0.l)
 134:mtk_c.c       **** }


 1160               		.loc 1 134 5 is_stmt 1 view .LVU370
 134:mtk_c.c       **** }
 1161               		.loc 1 134 8 is_stmt 0 view .LVU371
 1162 0532 6B02      		jmi .L88
 135:mtk_c.c       **** 
 1163               		.loc 1 135 1 view .LVU372
 1164 0534 4E75      		rts
 1165               	.L88:
 134:mtk_c.c       **** }
 1166               		.loc 1 134 26 is_stmt 1 discriminator 1 view .LVU373
 1167 0536 2F41 0004 		move.l %d1,4(%sp)
 135:mtk_c.c       **** 
 1168               		.loc 1 135 1 is_stmt 0 discriminator 1 view .LVU374
 134:mtk_c.c       **** }
 1169               		.loc 1 134 26 discriminator 1 view .LVU375
 1170 053a 6000 FE84 		jra sleep
 1171               	.LVL91:
 134:mtk_c.c       **** }
 1172               		.loc 1 134 26 discriminator 1 view .LVU376
 1173               		.cfi_endproc
 1174               	.LFE10:
 1175               		.size	p_body, .-p_body
 1176               		.align	2
 1177               		.globl	wakeup
 1178               		.type	wakeup, @function
 1179               	wakeup:
 1180               	.LVL92:
 1181               	.LFB14:
 174:mtk_c.c       **** 
 175:mtk_c.c       **** void wakeup(int ch){
 1182               		.loc 1 175 20 is_stmt 1 view -0
 1183               		.cfi_startproc
 1184               		.loc 1 175 20 is_stmt 0 view .LVU378
 1185 053e 48E7 3830 		movem.l #14384,-(%sp)
 1186               		.cfi_def_cfa_offset 24
 1187               		.cfi_offset 2, -24
 1188               		.cfi_offset 3, -20
 1189               		.cfi_offset 4, -16
 1190               		.cfi_offset 10, -12
 1191               		.cfi_offset 11, -8
 1192 0542 222F 0018 		move.l 24(%sp),%d1
 176:mtk_c.c       ****     if (DEBUG) printf("[DEBUG] wakeup(%d)\n", ch);
 1193               		.loc 1 176 5 is_stmt 1 view .LVU379
 177:mtk_c.c       ****     SEMAPHORE_TYPE *sema = &semaphore[ch];
 1194               		.loc 1 177 5 view .LVU380
 1195               	.LVL93:
 178:mtk_c.c       ****     TASK_ID_TYPE woken_task_id = removeq(&task_tab[sema->task_list]);
 1196               		.loc 1 178 5 view .LVU381
 1197               		.loc 1 178 56 is_stmt 0 view .LVU382
 1198 0546 47F9 0000 		lea semaphore,%a3
 1198      0000 
 1199 054c 2001      		move.l %d1,%d0
 1200 054e D081      		add.l %d1,%d0
 1201 0550 D081      		add.l %d1,%d0
 1202 0552 D080      		add.l %d0,%d0
 1203 0554 D080      		add.l %d0,%d0
 1204 0556 2833 0808 		move.l 8(%a3,%d0.l),%d4


 1205               		.loc 1 178 34 view .LVU383
 1206 055a 2604      		move.l %d4,%d3
 1207 055c D684      		add.l %d4,%d3
 1208 055e 2403      		move.l %d3,%d2
 1209 0560 D483      		add.l %d3,%d2
 1210 0562 D484      		add.l %d4,%d2
 1211 0564 D482      		add.l %d2,%d2
 1212 0566 D482      		add.l %d2,%d2
 1213 0568 0682 0000 		add.l #task_tab,%d2
 1213      0000 
 1214               	.LVL94:
 1215               	.LBB97:
 1216               	.LBI97:
  96:mtk_c.c       ****     TASK_ID_TYPE task_id;
 1217               		.loc 1 96 14 is_stmt 1 view .LVU384
 1218               	.LBB98:
 1219               	.LBB99:
  99:mtk_c.c       ****         if (q_ptr == &task_tab[semaphore[i].task_list]) {
 1220               		.loc 1 99 23 view .LVU385
 1221 056e 45F9 0000 		lea semaphore+8,%a2
 1221      0000 
  99:mtk_c.c       ****         if (q_ptr == &task_tab[semaphore[i].task_list]) {
 1222               		.loc 1 99 14 is_stmt 0 view .LVU386
 1223 0574 93C9      		sub.l %a1,%a1
 1224               	.LVL95:
 1225               	.L92:
 100:mtk_c.c       ****             task_id = semaphore[i].task_list; // task_id = キューの先頭タスクID
 1226               		.loc 1 100 9 is_stmt 1 view .LVU387
 100:mtk_c.c       ****             task_id = semaphore[i].task_list; // task_id = キューの先頭タスクID
 1227               		.loc 1 100 44 is_stmt 0 view .LVU388
 1228 0576 2212      		move.l (%a2),%d1
 100:mtk_c.c       ****             task_id = semaphore[i].task_list; // task_id = キューの先頭タスクID
 1229               		.loc 1 100 22 view .LVU389
 1230 0578 2041      		move.l %d1,%a0
 1231 057a D1C1      		add.l %d1,%a0
 1232 057c 2008      		move.l %a0,%d0
 1233 057e D088      		add.l %a0,%d0
 1234 0580 D081      		add.l %d1,%d0
 1235 0582 D080      		add.l %d0,%d0
 1236 0584 D080      		add.l %d0,%d0
 1237 0586 0680 0000 		add.l #task_tab,%d0
 1237      0000 
 100:mtk_c.c       ****             task_id = semaphore[i].task_list; // task_id = キューの先頭タスクID
 1238               		.loc 1 100 12 view .LVU390
 1239 058c B082      		cmp.l %d2,%d0
 1240 058e 6732      		jeq .L108
  99:mtk_c.c       ****         if (q_ptr == &task_tab[semaphore[i].task_list]) {
 1241               		.loc 1 99 40 is_stmt 1 view .LVU391
 1242 0590 5289      		addq.l #1,%a1
 1243               	.LVL96:
  99:mtk_c.c       ****         if (q_ptr == &task_tab[semaphore[i].task_list]) {
 1244               		.loc 1 99 23 view .LVU392
 1245 0592 45EA 000C 		lea (12,%a2),%a2
 1246 0596 7008      		moveq #8,%d0
 1247 0598 B089      		cmp.l %a1,%d0
 1248 059a 66DA      		jne .L92
 1249               	.LVL97:


  99:mtk_c.c       ****         if (q_ptr == &task_tab[semaphore[i].task_list]) {
 1250               		.loc 1 99 23 is_stmt 0 view .LVU393
 1251               	.LBE99:
 1252               	.LBB100:
 1253               	.LBI100:
  96:mtk_c.c       ****     TASK_ID_TYPE task_id;
 1254               		.loc 1 96 14 is_stmt 1 view .LVU394
 1255               	.LBB101:
 110:mtk_c.c       ****         task_id = ready; // task_id = キューの先頭タスクID
 1256               		.loc 1 110 5 view .LVU395
 110:mtk_c.c       ****         task_id = ready; // task_id = キューの先頭タスクID
 1257               		.loc 1 110 27 is_stmt 0 view .LVU396
 1258 059c 2239 0000 		move.l ready,%d1
 1258      0000 
 110:mtk_c.c       ****         task_id = ready; // task_id = キューの先頭タスクID
 1259               		.loc 1 110 18 view .LVU397
 1260 05a2 2041      		move.l %d1,%a0
 1261 05a4 D1C1      		add.l %d1,%a0
 1262 05a6 2008      		move.l %a0,%d0
 1263 05a8 D088      		add.l %a0,%d0
 1264 05aa D081      		add.l %d1,%d0
 1265 05ac D080      		add.l %d0,%d0
 1266 05ae D080      		add.l %d0,%d0
 1267 05b0 0680 0000 		add.l #task_tab,%d0
 1267      0000 
 110:mtk_c.c       ****         task_id = ready; // task_id = キューの先頭タスクID
 1268               		.loc 1 110 8 view .LVU398
 1269 05b6 B082      		cmp.l %d2,%d0
 1270 05b8 6700 00A8 		jeq .L109
 1271               	.LVL98:
 1272               	.L89:
 110:mtk_c.c       ****         task_id = ready; // task_id = キューの先頭タスクID
 1273               		.loc 1 110 8 view .LVU399
 1274               	.LBE101:
 1275               	.LBE100:
 1276               	.LBE98:
 1277               	.LBE97:
 179:mtk_c.c       ****     
 180:mtk_c.c       ****     if (woken_task_id != NULLTASKID) {
 181:mtk_c.c       ****         if (ready == NULLTASKID) {
 182:mtk_c.c       ****             ready = woken_task_id; 
 183:mtk_c.c       ****             task_tab[ready].next = NULLTASKID;
 184:mtk_c.c       ****         }
 185:mtk_c.c       ****         else addq(&task_tab[ready], woken_task_id);
 186:mtk_c.c       ****         task_tab[woken_task_id].status = TASK_READY;
 187:mtk_c.c       ****     }
 188:mtk_c.c       **** }
 1278               		.loc 1 188 1 view .LVU400
 1279 05bc 4CDF 0C1C 		movem.l (%sp)+,#3100
 1280 05c0 4E75      		rts
 1281               	.LVL99:
 1282               	.L108:
 1283               	.LBB107:
 1284               	.LBB105:
 1285               	.LBB103:
 101:mtk_c.c       ****             semaphore[i].task_list = (*q_ptr).next; // 先頭タスクをキューから取り除
 1286               		.loc 1 101 13 is_stmt 1 view .LVU401


 102:mtk_c.c       ****             // (*q_ptr).next = NULLTASKID;
 1287               		.loc 1 102 13 view .LVU402
 102:mtk_c.c       ****             // (*q_ptr).next = NULLTASKID;
 1288               		.loc 1 102 36 is_stmt 0 view .LVU403
 1289 05c2 2009      		move.l %a1,%d0
 1290 05c4 D089      		add.l %a1,%d0
 1291 05c6 D089      		add.l %a1,%d0
 1292 05c8 D080      		add.l %d0,%d0
 1293 05ca D080      		add.l %d0,%d0
 102:mtk_c.c       ****             // (*q_ptr).next = NULLTASKID;
 1294               		.loc 1 102 46 view .LVU404
 1295 05cc 43F9 0000 		lea task_tab,%a1
 1295      0000 
 1296               	.LVL100:
 102:mtk_c.c       ****             // (*q_ptr).next = NULLTASKID;
 1297               		.loc 1 102 46 view .LVU405
 1298 05d2 D683      		add.l %d3,%d3
 1299 05d4 D684      		add.l %d4,%d3
 1300 05d6 D683      		add.l %d3,%d3
 1301 05d8 D683      		add.l %d3,%d3
 102:mtk_c.c       ****             // (*q_ptr).next = NULLTASKID;
 1302               		.loc 1 102 36 view .LVU406
 1303 05da 27B1 3810 		move.l 16(%a1,%d3.l),8(%a3,%d0.l)
 1303      0808 
 104:mtk_c.c       ****             return task_id;
 1304               		.loc 1 104 13 is_stmt 1 view .LVU407
 105:mtk_c.c       ****         }
 1305               		.loc 1 105 13 view .LVU408
 1306               	.LVL101:
 1307               	.L91:
 105:mtk_c.c       ****         }
 1308               		.loc 1 105 13 is_stmt 0 view .LVU409
 1309               	.LBE103:
 1310               	.LBE105:
 1311               	.LBE107:
 180:mtk_c.c       ****         if (ready == NULLTASKID) {
 1312               		.loc 1 180 5 is_stmt 1 view .LVU410
 180:mtk_c.c       ****         if (ready == NULLTASKID) {
 1313               		.loc 1 180 8 is_stmt 0 view .LVU411
 1314 05e0 4A81      		tst.l %d1
 1315 05e2 67D8      		jeq .L89
 181:mtk_c.c       ****             ready = woken_task_id; 
 1316               		.loc 1 181 9 is_stmt 1 view .LVU412
 181:mtk_c.c       ****             ready = woken_task_id; 
 1317               		.loc 1 181 19 is_stmt 0 view .LVU413
 1318 05e4 2439 0000 		move.l ready,%d2
 1318      0000 
 181:mtk_c.c       ****             ready = woken_task_id; 
 1319               		.loc 1 181 12 view .LVU414
 1320 05ea 6620      		jne .L96
 182:mtk_c.c       ****             task_tab[ready].next = NULLTASKID;
 1321               		.loc 1 182 13 is_stmt 1 view .LVU415
 182:mtk_c.c       ****             task_tab[ready].next = NULLTASKID;
 1322               		.loc 1 182 19 is_stmt 0 view .LVU416
 1323 05ec 23C1 0000 		move.l %d1,ready
 1323      0000 
 183:mtk_c.c       ****         }


 1324               		.loc 1 183 13 is_stmt 1 view .LVU417
 183:mtk_c.c       ****         }
 1325               		.loc 1 183 34 is_stmt 0 view .LVU418
 1326 05f2 D1C8      		add.l %a0,%a0
 1327 05f4 D1C1      		add.l %d1,%a0
 1328 05f6 D1C8      		add.l %a0,%a0
 1329 05f8 D1C8      		add.l %a0,%a0
 1330 05fa D3C8      		add.l %a0,%a1
 1331 05fc 42A9 0010 		clr.l 16(%a1)
 186:mtk_c.c       ****     }
 1332               		.loc 1 186 9 is_stmt 1 view .LVU419
 186:mtk_c.c       ****     }
 1333               		.loc 1 186 40 is_stmt 0 view .LVU420
 1334 0600 7003      		moveq #3,%d0
 1335 0602 2340 000C 		move.l %d0,12(%a1)
 1336               	.LVL102:
 1337               	.L110:
 1338               		.loc 1 188 1 view .LVU421
 1339 0606 4CDF 0C1C 		movem.l (%sp)+,#3100
 1340 060a 4E75      		rts
 1341               	.LVL103:
 1342               	.L96:
 185:mtk_c.c       ****         task_tab[woken_task_id].status = TASK_READY;
 1343               		.loc 1 185 14 is_stmt 1 view .LVU422
 1344               	.LBB108:
 1345               	.LBI108:
  86:mtk_c.c       ****     if (DEBUG) printf("[DEBUG] addq: added task_id = %d\n", task_id);
 1346               		.loc 1 86 6 view .LVU423
 1347               	.LBB109:
  87:mtk_c.c       ****     // 引数にキューへのポインタとタスクの ID を取り，その TCB をキュー
 1348               		.loc 1 87 5 view .LVU424
  89:mtk_c.c       ****     while (cur->next != NULLTASKID) cur = &task_tab[cur->next];
 1349               		.loc 1 89 5 view .LVU425
  90:mtk_c.c       ****     // ここに到達した時点でcur->nextはNULLTASKID
 1350               		.loc 1 90 5 view .LVU426
  90:mtk_c.c       ****     // ここに到達した時点でcur->nextはNULLTASKID
 1351               		.loc 1 90 22 view .LVU427
  90:mtk_c.c       ****     // ここに到達した時点でcur->nextはNULLTASKID
 1352               		.loc 1 90 15 is_stmt 0 view .LVU428
 1353 060c 2002      		move.l %d2,%d0
 1354 060e D082      		add.l %d2,%d0
 1355 0610 D080      		add.l %d0,%d0
 1356 0612 D082      		add.l %d2,%d0
 1357 0614 D080      		add.l %d0,%d0
 1358 0616 D080      		add.l %d0,%d0
 1359 0618 45F1 0800 		lea (%a1,%d0.l),%a2
 1360 061c 202A 0010 		move.l 16(%a2),%d0
  90:mtk_c.c       ****     // ここに到達した時点でcur->nextはNULLTASKID
 1361               		.loc 1 90 22 view .LVU429
 1362 0620 6726      		jeq .L100
 1363               	.LVL104:
 1364               	.L99:
  90:mtk_c.c       ****     // ここに到達した時点でcur->nextはNULLTASKID
 1365               		.loc 1 90 37 is_stmt 1 view .LVU430
  90:mtk_c.c       ****     // ここに到達した時点でcur->nextはNULLTASKID
 1366               		.loc 1 90 22 view .LVU431
 1367 0622 2400      		move.l %d0,%d2


  90:mtk_c.c       ****     // ここに到達した時点でcur->nextはNULLTASKID
 1368               		.loc 1 90 15 is_stmt 0 view .LVU432
 1369 0624 D080      		add.l %d0,%d0
 1370               	.LVL105:
  90:mtk_c.c       ****     // ここに到達した時点でcur->nextはNULLTASKID
 1371               		.loc 1 90 15 view .LVU433
 1372 0626 D080      		add.l %d0,%d0
 1373 0628 D082      		add.l %d2,%d0
 1374 062a D080      		add.l %d0,%d0
 1375 062c D080      		add.l %d0,%d0
 1376 062e 2031 0810 		move.l 16(%a1,%d0.l),%d0
  90:mtk_c.c       ****     // ここに到達した時点でcur->nextはNULLTASKID
 1377               		.loc 1 90 22 view .LVU434
 1378 0632 66EE      		jne .L99
  90:mtk_c.c       ****     // ここに到達した時点でcur->nextはNULLTASKID
 1379               		.loc 1 90 41 view .LVU435
 1380 0634 2002      		move.l %d2,%d0
 1381 0636 D082      		add.l %d2,%d0
 1382 0638 D080      		add.l %d0,%d0
 1383 063a D082      		add.l %d2,%d0
 1384 063c D080      		add.l %d0,%d0
 1385 063e D080      		add.l %d0,%d0
 1386 0640 2440      		move.l %d0,%a2
 1387 0642 D5FC 0000 		add.l #task_tab,%a2
 1387      0000 
 1388               	.LVL106:
 1389               	.L100:
  92:mtk_c.c       ****     task_tab[task_id].next = NULLTASKID; // 新しい最後尾
 1390               		.loc 1 92 5 is_stmt 1 view .LVU436
  92:mtk_c.c       ****     task_tab[task_id].next = NULLTASKID; // 新しい最後尾
 1391               		.loc 1 92 15 is_stmt 0 view .LVU437
 1392 0648 2541 0010 		move.l %d1,16(%a2)
  93:mtk_c.c       **** }
 1393               		.loc 1 93 5 is_stmt 1 view .LVU438
 1394               	.LBE109:
 1395               	.LBE108:
 183:mtk_c.c       ****         }
 1396               		.loc 1 183 34 is_stmt 0 view .LVU439
 1397 064c D1C8      		add.l %a0,%a0
 1398 064e D1C1      		add.l %d1,%a0
 1399 0650 D1C8      		add.l %a0,%a0
 1400 0652 D1C8      		add.l %a0,%a0
 1401 0654 D3C8      		add.l %a0,%a1
 1402 0656 42A9 0010 		clr.l 16(%a1)
 1403               	.LVL107:
 186:mtk_c.c       ****     }
 1404               		.loc 1 186 9 is_stmt 1 view .LVU440
 186:mtk_c.c       ****     }
 1405               		.loc 1 186 40 is_stmt 0 view .LVU441
 1406 065a 7003      		moveq #3,%d0
 1407 065c 2340 000C 		move.l %d0,12(%a1)
 1408               	.LVL108:
 186:mtk_c.c       ****     }
 1409               		.loc 1 186 40 view .LVU442
 1410 0660 60A4      		jra .L110
 1411               	.LVL109:
 1412               	.L109:


 1413               	.LBB110:
 1414               	.LBB106:
 1415               	.LBB104:
 1416               	.LBB102:
 111:mtk_c.c       ****         ready = (*q_ptr).next; // 先頭タスクをキューから取り除く
 1417               		.loc 1 111 9 is_stmt 1 view .LVU443
 112:mtk_c.c       ****         // (*q_ptr).next = NULLTASKID;
 1418               		.loc 1 112 9 view .LVU444
 112:mtk_c.c       ****         // (*q_ptr).next = NULLTASKID;
 1419               		.loc 1 112 25 is_stmt 0 view .LVU445
 1420 0662 43F9 0000 		lea task_tab,%a1
 1420      0000 
 1421               	.LVL110:
 112:mtk_c.c       ****         // (*q_ptr).next = NULLTASKID;
 1422               		.loc 1 112 25 view .LVU446
 1423 0668 D683      		add.l %d3,%d3
 1424 066a D684      		add.l %d4,%d3
 1425 066c D683      		add.l %d3,%d3
 1426 066e D683      		add.l %d3,%d3
 112:mtk_c.c       ****         // (*q_ptr).next = NULLTASKID;
 1427               		.loc 1 112 15 view .LVU447
 1428 0670 23F1 3810 		move.l 16(%a1,%d3.l),ready
 1428      0000 0000 
 114:mtk_c.c       ****         return task_id;
 1429               		.loc 1 114 9 is_stmt 1 view .LVU448
 115:mtk_c.c       ****     }
 1430               		.loc 1 115 9 view .LVU449
 115:mtk_c.c       ****     }
 1431               		.loc 1 115 16 is_stmt 0 view .LVU450
 1432 0678 6000 FF66 		jra .L91
 1433               	.LBE102:
 1434               	.LBE104:
 1435               	.LBE106:
 1436               	.LBE110:
 1437               		.cfi_endproc
 1438               	.LFE14:
 1439               		.size	wakeup, .-wakeup
 1440               		.align	2
 1441               		.globl	v_body
 1442               		.type	v_body, @function
 1443               	v_body:
 1444               	.LVL111:
 1445               	.LFB12:
 152:mtk_c.c       ****     if (DEBUG) printf("[DEBUG] v_body(%d)\n", ID);
 1446               		.loc 1 152 21 is_stmt 1 view -0
 1447               		.cfi_startproc
 152:mtk_c.c       ****     if (DEBUG) printf("[DEBUG] v_body(%d)\n", ID);
 1448               		.loc 1 152 21 is_stmt 0 view .LVU452
 1449 067c 222F 0004 		move.l 4(%sp),%d1
 153:mtk_c.c       ****     // セマフォIDがスタックに積まれている
 1450               		.loc 1 153 5 is_stmt 1 view .LVU453
 156:mtk_c.c       ****     sema->count += 1;
 1451               		.loc 1 156 5 view .LVU454
 1452               	.LVL112:
 157:mtk_c.c       ****     // 2.セマフォが空けば，wakeup(セマフォの ID) 
 1453               		.loc 1 157 5 view .LVU455
 157:mtk_c.c       ****     // 2.セマフォが空けば，wakeup(セマフォの ID) 


 1454               		.loc 1 157 17 is_stmt 0 view .LVU456
 1455 0680 43F9 0000 		lea semaphore,%a1
 1455      0000 
 1456 0686 2001      		move.l %d1,%d0
 1457 0688 D081      		add.l %d1,%d0
 1458 068a D081      		add.l %d1,%d0
 1459 068c D080      		add.l %d0,%d0
 1460 068e D080      		add.l %d0,%d0
 1461 0690 2071 0800 		move.l (%a1,%d0.l),%a0
 1462 0694 5288      		addq.l #1,%a0
 1463 0696 2388 0800 		move.l %a0,(%a1,%d0.l)
 159:mtk_c.c       **** }
 1464               		.loc 1 159 5 is_stmt 1 view .LVU457
 159:mtk_c.c       **** }
 1465               		.loc 1 159 8 is_stmt 0 view .LVU458
 1466 069a 6F02      		jle .L115
 160:mtk_c.c       **** 
 1467               		.loc 1 160 1 view .LVU459
 1468 069c 4E75      		rts
 1469               	.L115:
 159:mtk_c.c       **** }
 1470               		.loc 1 159 27 is_stmt 1 discriminator 1 view .LVU460
 1471 069e 2F41 0004 		move.l %d1,4(%sp)
 160:mtk_c.c       **** 
 1472               		.loc 1 160 1 is_stmt 0 discriminator 1 view .LVU461
 159:mtk_c.c       **** }
 1473               		.loc 1 159 27 discriminator 1 view .LVU462
 1474 06a2 6000 FE9A 		jra wakeup
 1475               	.LVL113:
 159:mtk_c.c       **** }
 1476               		.loc 1 159 27 discriminator 1 view .LVU463
 1477               		.cfi_endproc
 1478               	.LFE12:
 1479               		.size	v_body, .-v_body
 1480               		.align	2
 1481               		.globl	waitp_body
 1482               		.type	waitp_body, @function
 1483               	waitp_body:
 1484               	.LVL114:
 1485               	.LFB11:
 137:mtk_c.c       ****     SEMAPHORE_TYPE *sp;
 1486               		.loc 1 137 43 is_stmt 1 view -0
 1487               		.cfi_startproc
 137:mtk_c.c       ****     SEMAPHORE_TYPE *sp;
 1488               		.loc 1 137 43 is_stmt 0 view .LVU465
 1489 06a6 48E7 3F3E 		movem.l #16190,-(%sp)
 1490               		.cfi_def_cfa_offset 48
 1491               		.cfi_offset 2, -48
 1492               		.cfi_offset 3, -44
 1493               		.cfi_offset 4, -40
 1494               		.cfi_offset 5, -36
 1495               		.cfi_offset 6, -32
 1496               		.cfi_offset 7, -28
 1497               		.cfi_offset 10, -24
 1498               		.cfi_offset 11, -20
 1499               		.cfi_offset 12, -16
 1500               		.cfi_offset 13, -12


 1501               		.cfi_offset 14, -8
 1502 06aa 262F 0030 		move.l 48(%sp),%d3
 138:mtk_c.c       ****     sp = &semaphore[sem_id];
 1503               		.loc 1 138 5 is_stmt 1 view .LVU466
 139:mtk_c.c       ****     if (sp->count != -(sp->nst - 1)) {
 1504               		.loc 1 139 5 view .LVU467
 1505               	.LVL115:
 140:mtk_c.c       ****         p_body(sem_id);
 1506               		.loc 1 140 5 view .LVU468
 140:mtk_c.c       ****         p_body(sem_id);
 1507               		.loc 1 140 11 is_stmt 0 view .LVU469
 1508 06ae 4DF9 0000 		lea semaphore,%a6
 1508      0000 
 1509 06b4 2C03      		move.l %d3,%d6
 1510 06b6 DC83      		add.l %d3,%d6
 1511 06b8 DC83      		add.l %d3,%d6
 1512 06ba DC86      		add.l %d6,%d6
 1513 06bc DC86      		add.l %d6,%d6
 1514 06be 2036 6800 		move.l (%a6,%d6.l),%d0
 140:mtk_c.c       ****         p_body(sem_id);
 1515               		.loc 1 140 26 view .LVU470
 1516 06c2 47F6 6804 		lea 4(%a6,%d6.l),%a3
 1517 06c6 2213      		move.l (%a3),%d1
 140:mtk_c.c       ****         p_body(sem_id);
 1518               		.loc 1 140 22 view .LVU471
 1519 06c8 307C 0001 		move.w #1,%a0
 1520 06cc 91C1      		sub.l %d1,%a0
 140:mtk_c.c       ****         p_body(sem_id);
 1521               		.loc 1 140 8 view .LVU472
 1522 06ce B1C0      		cmp.l %d0,%a0
 1523 06d0 6600 00D2 		jne .L117
 1524               	.LVL116:
 1525               	.LBB126:
 143:mtk_c.c       **** 	    v_body(sem_id);
 1526               		.loc 1 143 20 is_stmt 1 view .LVU473
 1527 06d4 7401      		moveq #1,%d2
 1528 06d6 B481      		cmp.l %d1,%d2
 1529 06d8 6C00 00D4 		jge .L116
 143:mtk_c.c       **** 	    v_body(sem_id);
 1530               		.loc 1 143 11 is_stmt 0 view .LVU474
 1531 06dc 7400      		moveq #0,%d2
 1532 06de 45F9 0000 		lea task_tab,%a2
 1532      0000 
 1533 06e4 49F9 0000 		lea swtch,%a4
 1533      0000 
 1534               	.LBB127:
 1535               	.LBB128:
 159:mtk_c.c       **** }
 1536               		.loc 1 159 27 view .LVU475
 1537 06ea 2E3C 0000 		move.l #wakeup,%d7
 1537      0000 
 1538               	.LVL117:
 159:mtk_c.c       **** }
 1539               		.loc 1 159 27 view .LVU476
 1540               	.LBE128:
 1541               	.LBE127:
 144:mtk_c.c       **** 	addq(&task_tab[ready], curr_task);


 1542               		.loc 1 144 6 is_stmt 1 view .LVU477
 1543               	.LBB133:
 1544               	.LBI127:
 152:mtk_c.c       ****     if (DEBUG) printf("[DEBUG] v_body(%d)\n", ID);
 1545               		.loc 1 152 6 view .LVU478
 1546               	.LBB129:
 153:mtk_c.c       ****     // セマフォIDがスタックに積まれている
 1547               		.loc 1 153 5 view .LVU479
 156:mtk_c.c       ****     sema->count += 1;
 1548               		.loc 1 156 5 view .LVU480
 157:mtk_c.c       ****     // 2.セマフォが空けば，wakeup(セマフォの ID) 
 1549               		.loc 1 157 5 view .LVU481
 157:mtk_c.c       ****     // 2.セマフォが空けば，wakeup(セマフォの ID) 
 1550               		.loc 1 157 17 is_stmt 0 view .LVU482
 1551 06f0 5280      		addq.l #1,%d0
 1552 06f2 2D80 6800 		move.l %d0,(%a6,%d6.l)
 159:mtk_c.c       **** }
 1553               		.loc 1 159 5 is_stmt 1 view .LVU483
 159:mtk_c.c       **** }
 1554               		.loc 1 159 8 is_stmt 0 view .LVU484
 1555 06f6 6F00 00BC 		jle .L136
 1556               	.LVL118:
 1557               	.L120:
 159:mtk_c.c       **** }
 1558               		.loc 1 159 8 view .LVU485
 1559               	.LBE129:
 1560               	.LBE133:
 145:mtk_c.c       **** 	sched();
 1561               		.loc 1 145 2 is_stmt 1 view .LVU486
 1562 06fa 2A39 0000 		move.l curr_task,%d5
 1562      0000 
 145:mtk_c.c       **** 	sched();
 1563               		.loc 1 145 16 is_stmt 0 view .LVU487
 1564 0700 2839 0000 		move.l ready,%d4
 1564      0000 
 145:mtk_c.c       **** 	sched();
 1565               		.loc 1 145 2 view .LVU488
 1566 0706 2244      		move.l %d4,%a1
 1567 0708 D3C4      		add.l %d4,%a1
 1568 070a 41F1 9800 		lea (%a1,%a1.l),%a0
 1569 070e D1C4      		add.l %d4,%a0
 1570 0710 D1C8      		add.l %a0,%a0
 1571 0712 D1C8      		add.l %a0,%a0
 1572 0714 D1FC 0000 		add.l #task_tab,%a0
 1572      0000 
 1573               	.LVL119:
 1574               	.LBB134:
 1575               	.LBI134:
  86:mtk_c.c       ****     if (DEBUG) printf("[DEBUG] addq: added task_id = %d\n", task_id);
 1576               		.loc 1 86 6 is_stmt 1 view .LVU489
 1577               	.LBB135:
  87:mtk_c.c       ****     // 引数にキューへのポインタとタスクの ID を取り，その TCB をキュー
 1578               		.loc 1 87 5 view .LVU490
  89:mtk_c.c       ****     while (cur->next != NULLTASKID) cur = &task_tab[cur->next];
 1579               		.loc 1 89 5 view .LVU491
  90:mtk_c.c       ****     // ここに到達した時点でcur->nextはNULLTASKID
 1580               		.loc 1 90 5 view .LVU492


  90:mtk_c.c       ****     // ここに到達した時点でcur->nextはNULLTASKID
 1581               		.loc 1 90 22 view .LVU493
  90:mtk_c.c       ****     // ここに到達した時点でcur->nextはNULLTASKID
 1582               		.loc 1 90 15 is_stmt 0 view .LVU494
 1583 071a 2028 0010 		move.l 16(%a0),%d0
  90:mtk_c.c       ****     // ここに到達した時点でcur->nextはNULLTASKID
 1584               		.loc 1 90 22 view .LVU495
 1585 071e 6700 00E2 		jeq .L128
 1586               	.LVL120:
 1587               	.L122:
  90:mtk_c.c       ****     // ここに到達した時点でcur->nextはNULLTASKID
 1588               		.loc 1 90 37 is_stmt 1 view .LVU496
  90:mtk_c.c       ****     // ここに到達した時点でcur->nextはNULLTASKID
 1589               		.loc 1 90 22 view .LVU497
 1590 0722 2200      		move.l %d0,%d1
  90:mtk_c.c       ****     // ここに到達した時点でcur->nextはNULLTASKID
 1591               		.loc 1 90 15 is_stmt 0 view .LVU498
 1592 0724 D080      		add.l %d0,%d0
 1593               	.LVL121:
  90:mtk_c.c       ****     // ここに到達した時点でcur->nextはNULLTASKID
 1594               		.loc 1 90 15 view .LVU499
 1595 0726 D080      		add.l %d0,%d0
 1596 0728 D081      		add.l %d1,%d0
 1597 072a D080      		add.l %d0,%d0
 1598 072c D080      		add.l %d0,%d0
 1599 072e 2032 0810 		move.l 16(%a2,%d0.l),%d0
  90:mtk_c.c       ****     // ここに到達した時点でcur->nextはNULLTASKID
 1600               		.loc 1 90 22 view .LVU500
 1601 0732 66EE      		jne .L122
  90:mtk_c.c       ****     // ここに到達した時点でcur->nextはNULLTASKID
 1602               		.loc 1 90 41 view .LVU501
 1603 0734 2001      		move.l %d1,%d0
 1604 0736 D081      		add.l %d1,%d0
 1605 0738 D080      		add.l %d0,%d0
 1606 073a D081      		add.l %d1,%d0
 1607 073c D080      		add.l %d0,%d0
 1608 073e D080      		add.l %d0,%d0
 1609 0740 2A40      		move.l %d0,%a5
 1610 0742 DBFC 0000 		add.l #task_tab,%a5
 1610      0000 
  92:mtk_c.c       ****     task_tab[task_id].next = NULLTASKID; // 新しい最後尾
 1611               		.loc 1 92 5 is_stmt 1 view .LVU502
  92:mtk_c.c       ****     task_tab[task_id].next = NULLTASKID; // 新しい最後尾
 1612               		.loc 1 92 15 is_stmt 0 view .LVU503
 1613 0748 2B45 0010 		move.l %d5,16(%a5)
  93:mtk_c.c       **** }
 1614               		.loc 1 93 5 is_stmt 1 view .LVU504
  93:mtk_c.c       **** }
 1615               		.loc 1 93 28 is_stmt 0 view .LVU505
 1616 074c 2005      		move.l %d5,%d0
 1617 074e D085      		add.l %d5,%d0
 1618 0750 D080      		add.l %d0,%d0
 1619 0752 D085      		add.l %d5,%d0
 1620 0754 D080      		add.l %d0,%d0
 1621 0756 D080      		add.l %d0,%d0
 1622 0758 42B2 0810 		clr.l 16(%a2,%d0.l)
 1623               	.LVL122:


  93:mtk_c.c       **** }
 1624               		.loc 1 93 28 view .LVU506
 1625               	.LBE135:
 1626               	.LBE134:
 146:mtk_c.c       **** 	swtch();
 1627               		.loc 1 146 2 is_stmt 1 view .LVU507
 1628               	.LBB138:
 1629               	.LBI138:
 120:mtk_c.c       ****     if (DEBUG) printf("[DEBUG] sched()\n");
 1630               		.loc 1 120 6 view .LVU508
 1631               	.LBB139:
 121:mtk_c.c       ****     next_task = removeq(&task_tab[ready]); // next_task = readyキューの先頭タスクID
 1632               		.loc 1 121 5 view .LVU509
 122:mtk_c.c       ****     if (DEBUG) printf("[DEBUG] sched: next_task = %d\n", next_task);
 1633               		.loc 1 122 5 view .LVU510
 1634               	.LBB140:
 1635               	.LBI140:
  96:mtk_c.c       ****     TASK_ID_TYPE task_id;
 1636               		.loc 1 96 14 view .LVU511
 1637               	.LBB141:
 1638               	.LBB142:
  99:mtk_c.c       ****         if (q_ptr == &task_tab[semaphore[i].task_list]) {
 1639               		.loc 1 99 23 view .LVU512
 1640 075c 4BF9 0000 		lea semaphore+8,%a5
 1640      0000 
  99:mtk_c.c       ****         if (q_ptr == &task_tab[semaphore[i].task_list]) {
 1641               		.loc 1 99 14 is_stmt 0 view .LVU513
 1642 0762 7A00      		moveq #0,%d5
 1643               	.LVL123:
 1644               	.L125:
 100:mtk_c.c       ****             task_id = semaphore[i].task_list; // task_id = キューの先頭タスクID
 1645               		.loc 1 100 9 is_stmt 1 view .LVU514
 100:mtk_c.c       ****             task_id = semaphore[i].task_list; // task_id = キューの先頭タスクID
 1646               		.loc 1 100 44 is_stmt 0 view .LVU515
 1647 0764 2215      		move.l (%a5),%d1
 100:mtk_c.c       ****             task_id = semaphore[i].task_list; // task_id = キューの先頭タスクID
 1648               		.loc 1 100 22 view .LVU516
 1649 0766 2001      		move.l %d1,%d0
 1650 0768 D081      		add.l %d1,%d0
 1651 076a D080      		add.l %d0,%d0
 1652 076c D081      		add.l %d1,%d0
 1653 076e D080      		add.l %d0,%d0
 1654 0770 D080      		add.l %d0,%d0
 1655 0772 0680 0000 		add.l #task_tab,%d0
 1655      0000 
 100:mtk_c.c       ****             task_id = semaphore[i].task_list; // task_id = キューの先頭タスクID
 1656               		.loc 1 100 12 view .LVU517
 1657 0778 B088      		cmp.l %a0,%d0
 1658 077a 6700 00A8 		jeq .L137
  99:mtk_c.c       ****         if (q_ptr == &task_tab[semaphore[i].task_list]) {
 1659               		.loc 1 99 40 is_stmt 1 view .LVU518
 1660 077e 5285      		addq.l #1,%d5
 1661               	.LVL124:
  99:mtk_c.c       ****         if (q_ptr == &task_tab[semaphore[i].task_list]) {
 1662               		.loc 1 99 23 view .LVU519
 1663 0780 4BED 000C 		lea (12,%a5),%a5
 1664 0784 7008      		moveq #8,%d0


 1665 0786 B085      		cmp.l %d5,%d0
 1666 0788 66DA      		jne .L125
 1667               	.LVL125:
  99:mtk_c.c       ****         if (q_ptr == &task_tab[semaphore[i].task_list]) {
 1668               		.loc 1 99 23 is_stmt 0 view .LVU520
 1669               	.LBE142:
 1670               	.LBB143:
 1671               	.LBI143:
  96:mtk_c.c       ****     TASK_ID_TYPE task_id;
 1672               		.loc 1 96 14 is_stmt 1 view .LVU521
 1673               	.LBB144:
 110:mtk_c.c       ****         task_id = ready; // task_id = キューの先頭タスクID
 1674               		.loc 1 110 5 view .LVU522
 111:mtk_c.c       ****         ready = (*q_ptr).next; // 先頭タスクをキューから取り除く
 1675               		.loc 1 111 9 view .LVU523
 112:mtk_c.c       ****         // (*q_ptr).next = NULLTASKID;
 1676               		.loc 1 112 9 view .LVU524
 112:mtk_c.c       ****         // (*q_ptr).next = NULLTASKID;
 1677               		.loc 1 112 25 is_stmt 0 view .LVU525
 1678 078a D3C9      		add.l %a1,%a1
 1679 078c D3C4      		add.l %d4,%a1
 1680 078e D3C9      		add.l %a1,%a1
 1681 0790 D3C9      		add.l %a1,%a1
 112:mtk_c.c       ****         // (*q_ptr).next = NULLTASKID;
 1682               		.loc 1 112 15 view .LVU526
 1683 0792 23F2 9810 		move.l 16(%a2,%a1.l),ready
 1683      0000 0000 
 114:mtk_c.c       ****         return task_id;
 1684               		.loc 1 114 9 is_stmt 1 view .LVU527
 115:mtk_c.c       ****     }
 1685               		.loc 1 115 9 view .LVU528
 1686               	.LVL126:
 115:mtk_c.c       ****     }
 1687               		.loc 1 115 9 is_stmt 0 view .LVU529
 1688               	.LBE144:
 1689               	.LBE143:
 1690               	.LBE141:
 1691               	.LBE140:
 122:mtk_c.c       ****     if (DEBUG) printf("[DEBUG] sched: next_task = %d\n", next_task);
 1692               		.loc 1 122 15 view .LVU530
 1693 079a 23C4 0000 		move.l %d4,next_task
 1693      0000 
 123:mtk_c.c       ****     while (next_task == NULLTASKID); // next_task = NULLTASKID なら無限ループ 
 1694               		.loc 1 123 5 is_stmt 1 view .LVU531
 124:mtk_c.c       **** }
 1695               		.loc 1 124 22 view .LVU532
 1696 07a0 6644      		jne .L133
 1697               	.L132:
 1698 07a2 60FE      		jra .L132
 1699               	.LVL127:
 1700               	.L117:
 124:mtk_c.c       **** }
 1701               		.loc 1 124 22 is_stmt 0 view .LVU533
 1702               	.LBE139:
 1703               	.LBE138:
 1704               	.LBE126:
 141:mtk_c.c       ****     } else {


 1705               		.loc 1 141 9 is_stmt 1 view .LVU534
 1706               	.LBB155:
 1707               	.LBI155:
 127:mtk_c.c       ****     if (DEBUG) printf("[DEBUG] p_body(%d)\n", ID);
 1708               		.loc 1 127 6 view .LVU535
 1709               	.LBB156:
 128:mtk_c.c       ****     // セマフォIDがスタックに積まれている
 1710               		.loc 1 128 5 view .LVU536
 131:mtk_c.c       ****     sema->count -= 1;
 1711               		.loc 1 131 5 view .LVU537
 132:mtk_c.c       ****     // 2.セマフォが獲得できなけれれば sleep(セマフォの ID)
 1712               		.loc 1 132 5 view .LVU538
 132:mtk_c.c       ****     // 2.セマフォが獲得できなけれれば sleep(セマフォの ID)
 1713               		.loc 1 132 17 is_stmt 0 view .LVU539
 1714 07a4 5380      		subq.l #1,%d0
 1715 07a6 2D80 6800 		move.l %d0,(%a6,%d6.l)
 134:mtk_c.c       **** }
 1716               		.loc 1 134 5 is_stmt 1 view .LVU540
 134:mtk_c.c       **** }
 1717               		.loc 1 134 8 is_stmt 0 view .LVU541
 1718 07aa 6B00 009E 		jmi .L138
 1719               	.LVL128:
 1720               	.L116:
 134:mtk_c.c       **** }
 1721               		.loc 1 134 8 view .LVU542
 1722               	.LBE156:
 1723               	.LBE155:
 150:mtk_c.c       **** 
 1724               		.loc 1 150 1 view .LVU543
 1725 07ae 4CDF 7CFC 		movem.l (%sp)+,#31996
 1726               	.LVL129:
 150:mtk_c.c       **** 
 1727               		.loc 1 150 1 view .LVU544
 1728 07b2 4E75      		rts
 1729               	.LVL130:
 1730               	.L136:
 1731               	.LBB159:
 1732               	.LBB149:
 1733               	.LBB130:
 159:mtk_c.c       **** }
 1734               		.loc 1 159 27 is_stmt 1 view .LVU545
 1735 07b4 2F03      		move.l %d3,-(%sp)
 1736               		.cfi_def_cfa_offset 52
 1737 07b6 2047      		move.l %d7,%a0
 1738 07b8 4E90      		jsr (%a0)
 1739               	.LVL131:
 1740 07ba 588F      		addq.l #4,%sp
 1741               		.cfi_def_cfa_offset 48
 1742               	.LVL132:
 159:mtk_c.c       **** }
 1743               		.loc 1 159 27 is_stmt 0 view .LVU546
 1744               	.LBE130:
 1745               	.LBE149:
 145:mtk_c.c       **** 	sched();
 1746               		.loc 1 145 2 is_stmt 1 view .LVU547
 1747 07bc 2A39 0000 		move.l curr_task,%d5
 1747      0000 


 145:mtk_c.c       **** 	sched();
 1748               		.loc 1 145 16 is_stmt 0 view .LVU548
 1749 07c2 2839 0000 		move.l ready,%d4
 1749      0000 
 145:mtk_c.c       **** 	sched();
 1750               		.loc 1 145 2 view .LVU549
 1751 07c8 2244      		move.l %d4,%a1
 1752 07ca D3C4      		add.l %d4,%a1
 1753 07cc 41F1 9800 		lea (%a1,%a1.l),%a0
 1754 07d0 D1C4      		add.l %d4,%a0
 1755 07d2 D1C8      		add.l %a0,%a0
 1756 07d4 D1C8      		add.l %a0,%a0
 1757 07d6 D1FC 0000 		add.l #task_tab,%a0
 1757      0000 
 1758               	.LVL133:
 1759               	.LBB150:
  86:mtk_c.c       ****     if (DEBUG) printf("[DEBUG] addq: added task_id = %d\n", task_id);
 1760               		.loc 1 86 6 is_stmt 1 view .LVU550
 1761               	.LBB136:
  87:mtk_c.c       ****     // 引数にキューへのポインタとタスクの ID を取り，その TCB をキュー
 1762               		.loc 1 87 5 view .LVU551
  89:mtk_c.c       ****     while (cur->next != NULLTASKID) cur = &task_tab[cur->next];
 1763               		.loc 1 89 5 view .LVU552
  90:mtk_c.c       ****     // ここに到達した時点でcur->nextはNULLTASKID
 1764               		.loc 1 90 5 view .LVU553
  90:mtk_c.c       ****     // ここに到達した時点でcur->nextはNULLTASKID
 1765               		.loc 1 90 22 view .LVU554
  90:mtk_c.c       ****     // ここに到達した時点でcur->nextはNULLTASKID
 1766               		.loc 1 90 15 is_stmt 0 view .LVU555
 1767 07dc 2028 0010 		move.l 16(%a0),%d0
  90:mtk_c.c       ****     // ここに到達した時点でcur->nextはNULLTASKID
 1768               		.loc 1 90 22 view .LVU556
 1769 07e0 6600 FF40 		jne .L122
 1770 07e4 601C      		jra .L128
 1771               	.LVL134:
 1772               	.L133:
  90:mtk_c.c       ****     // ここに到達した時点でcur->nextはNULLTASKID
 1773               		.loc 1 90 22 view .LVU557
 1774               	.LBE136:
 1775               	.LBE150:
 147:mtk_c.c       **** 	}	
 1776               		.loc 1 147 2 is_stmt 1 view .LVU558
 1777 07e6 4E94      		jsr (%a4)
 1778               	.LVL135:
 143:mtk_c.c       **** 	    v_body(sem_id);
 1779               		.loc 1 143 36 view .LVU559
 1780 07e8 5282      		addq.l #1,%d2
 1781               	.LVL136:
 143:mtk_c.c       **** 	    v_body(sem_id);
 1782               		.loc 1 143 20 view .LVU560
 143:mtk_c.c       **** 	    v_body(sem_id);
 1783               		.loc 1 143 30 is_stmt 0 view .LVU561
 1784 07ea 2013      		move.l (%a3),%d0
 1785 07ec 5380      		subq.l #1,%d0
 143:mtk_c.c       **** 	    v_body(sem_id);
 1786               		.loc 1 143 20 view .LVU562
 1787 07ee B480      		cmp.l %d0,%d2


 1788 07f0 6CBC      		jge .L116
 1789               	.LBB151:
 1790               	.LBB131:
 157:mtk_c.c       ****     // 2.セマフォが空けば，wakeup(セマフォの ID) 
 1791               		.loc 1 157 17 view .LVU563
 1792 07f2 2036 6800 		move.l (%a6,%d6.l),%d0
 157:mtk_c.c       ****     // 2.セマフォが空けば，wakeup(セマフォの ID) 
 1793               		.loc 1 157 17 view .LVU564
 1794               	.LBE131:
 1795               	.LBE151:
 144:mtk_c.c       **** 	addq(&task_tab[ready], curr_task);
 1796               		.loc 1 144 6 is_stmt 1 view .LVU565
 1797               	.LVL137:
 1798               	.LBB152:
 152:mtk_c.c       ****     if (DEBUG) printf("[DEBUG] v_body(%d)\n", ID);
 1799               		.loc 1 152 6 view .LVU566
 1800               	.LBB132:
 153:mtk_c.c       ****     // セマフォIDがスタックに積まれている
 1801               		.loc 1 153 5 view .LVU567
 156:mtk_c.c       ****     sema->count += 1;
 1802               		.loc 1 156 5 view .LVU568
 157:mtk_c.c       ****     // 2.セマフォが空けば，wakeup(セマフォの ID) 
 1803               		.loc 1 157 5 view .LVU569
 157:mtk_c.c       ****     // 2.セマフォが空けば，wakeup(セマフォの ID) 
 1804               		.loc 1 157 17 is_stmt 0 view .LVU570
 1805 07f6 5280      		addq.l #1,%d0
 1806 07f8 2D80 6800 		move.l %d0,(%a6,%d6.l)
 159:mtk_c.c       **** }
 1807               		.loc 1 159 5 is_stmt 1 view .LVU571
 159:mtk_c.c       **** }
 1808               		.loc 1 159 8 is_stmt 0 view .LVU572
 1809 07fc 6E00 FEFC 		jgt .L120
 1810 0800 60B2      		jra .L136
 1811               	.LVL138:
 1812               	.L128:
 159:mtk_c.c       **** }
 1813               		.loc 1 159 8 view .LVU573
 1814               	.LBE132:
 1815               	.LBE152:
 1816               	.LBB153:
 1817               	.LBB137:
  89:mtk_c.c       ****     while (cur->next != NULLTASKID) cur = &task_tab[cur->next];
 1818               		.loc 1 89 15 view .LVU574
 1819 0802 2A48      		move.l %a0,%a5
  92:mtk_c.c       ****     task_tab[task_id].next = NULLTASKID; // 新しい最後尾
 1820               		.loc 1 92 5 is_stmt 1 view .LVU575
  92:mtk_c.c       ****     task_tab[task_id].next = NULLTASKID; // 新しい最後尾
 1821               		.loc 1 92 15 is_stmt 0 view .LVU576
 1822 0804 2B45 0010 		move.l %d5,16(%a5)
  93:mtk_c.c       **** }
 1823               		.loc 1 93 5 is_stmt 1 view .LVU577
  93:mtk_c.c       **** }
 1824               		.loc 1 93 28 is_stmt 0 view .LVU578
 1825 0808 2005      		move.l %d5,%d0
 1826 080a D085      		add.l %d5,%d0
 1827 080c D080      		add.l %d0,%d0
 1828 080e D085      		add.l %d5,%d0


 1829 0810 D080      		add.l %d0,%d0
 1830 0812 D080      		add.l %d0,%d0
 1831 0814 42B2 0810 		clr.l 16(%a2,%d0.l)
 1832               	.LVL139:
  93:mtk_c.c       **** }
 1833               		.loc 1 93 28 view .LVU579
 1834               	.LBE137:
 1835               	.LBE153:
 146:mtk_c.c       **** 	swtch();
 1836               		.loc 1 146 2 is_stmt 1 view .LVU580
 1837               	.LBB154:
 120:mtk_c.c       ****     if (DEBUG) printf("[DEBUG] sched()\n");
 1838               		.loc 1 120 6 view .LVU581
 1839               	.LBB148:
 121:mtk_c.c       ****     next_task = removeq(&task_tab[ready]); // next_task = readyキューの先頭タスクID
 1840               		.loc 1 121 5 view .LVU582
 122:mtk_c.c       ****     if (DEBUG) printf("[DEBUG] sched: next_task = %d\n", next_task);
 1841               		.loc 1 122 5 view .LVU583
 1842               	.LBB147:
  96:mtk_c.c       ****     TASK_ID_TYPE task_id;
 1843               		.loc 1 96 14 view .LVU584
 1844               	.LBB146:
 1845               	.LBB145:
  99:mtk_c.c       ****         if (q_ptr == &task_tab[semaphore[i].task_list]) {
 1846               		.loc 1 99 23 view .LVU585
 1847 0818 4BF9 0000 		lea semaphore+8,%a5
 1847      0000 
  99:mtk_c.c       ****         if (q_ptr == &task_tab[semaphore[i].task_list]) {
 1848               		.loc 1 99 14 is_stmt 0 view .LVU586
 1849 081e 7A00      		moveq #0,%d5
 1850 0820 6000 FF42 		jra .L125
 1851               	.LVL140:
 1852               	.L137:
 101:mtk_c.c       ****             semaphore[i].task_list = (*q_ptr).next; // 先頭タスクをキューから取り除
 1853               		.loc 1 101 13 is_stmt 1 view .LVU587
 102:mtk_c.c       ****             // (*q_ptr).next = NULLTASKID;
 1854               		.loc 1 102 13 view .LVU588
 102:mtk_c.c       ****             // (*q_ptr).next = NULLTASKID;
 1855               		.loc 1 102 36 is_stmt 0 view .LVU589
 1856 0824 2005      		move.l %d5,%d0
 1857 0826 D085      		add.l %d5,%d0
 1858 0828 D085      		add.l %d5,%d0
 1859 082a D080      		add.l %d0,%d0
 1860 082c D080      		add.l %d0,%d0
 102:mtk_c.c       ****             // (*q_ptr).next = NULLTASKID;
 1861               		.loc 1 102 46 view .LVU590
 1862 082e D3C9      		add.l %a1,%a1
 1863 0830 D3C4      		add.l %d4,%a1
 1864 0832 D3C9      		add.l %a1,%a1
 1865 0834 D3C9      		add.l %a1,%a1
 102:mtk_c.c       ****             // (*q_ptr).next = NULLTASKID;
 1866               		.loc 1 102 36 view .LVU591
 1867 0836 2DB2 9810 		move.l 16(%a2,%a1.l),8(%a6,%d0.l)
 1867      0808 
 104:mtk_c.c       ****             return task_id;
 1868               		.loc 1 104 13 is_stmt 1 view .LVU592
 105:mtk_c.c       ****         }


 1869               		.loc 1 105 13 view .LVU593
 100:mtk_c.c       ****             task_id = semaphore[i].task_list; // task_id = キューの先頭タスクID
 1870               		.loc 1 100 44 is_stmt 0 view .LVU594
 1871 083c 2801      		move.l %d1,%d4
 1872               	.LVL141:
 100:mtk_c.c       ****             task_id = semaphore[i].task_list; // task_id = キューの先頭タスクID
 1873               		.loc 1 100 44 view .LVU595
 1874               	.LBE145:
 1875               	.LBE146:
 1876               	.LBE147:
 122:mtk_c.c       ****     if (DEBUG) printf("[DEBUG] sched: next_task = %d\n", next_task);
 1877               		.loc 1 122 15 view .LVU596
 1878 083e 23C4 0000 		move.l %d4,next_task
 1878      0000 
 123:mtk_c.c       ****     while (next_task == NULLTASKID); // next_task = NULLTASKID なら無限ループ 
 1879               		.loc 1 123 5 is_stmt 1 view .LVU597
 124:mtk_c.c       **** }
 1880               		.loc 1 124 22 view .LVU598
 1881 0844 6700 FF5C 		jeq .L132
 124:mtk_c.c       **** }
 1882               		.loc 1 124 22 is_stmt 0 view .LVU599
 1883 0848 609C      		jra .L133
 1884               	.LVL142:
 1885               	.L138:
 124:mtk_c.c       **** }
 1886               		.loc 1 124 22 view .LVU600
 1887               	.LBE148:
 1888               	.LBE154:
 1889               	.LBE159:
 1890               	.LBB160:
 1891               	.LBB157:
 134:mtk_c.c       **** }
 1892               		.loc 1 134 26 is_stmt 1 view .LVU601
 1893 084a 2F43 0030 		move.l %d3,48(%sp)
 1894               	.LBE157:
 1895               	.LBE160:
 150:mtk_c.c       **** 
 1896               		.loc 1 150 1 is_stmt 0 view .LVU602
 1897 084e 4CDF 7CFC 		movem.l (%sp)+,#31996
 1898               	.LVL143:
 150:mtk_c.c       **** 
 1899               		.loc 1 150 1 view .LVU603
 1900               	.LBB161:
 1901               	.LBB158:
 134:mtk_c.c       **** }
 1902               		.loc 1 134 26 view .LVU604
 1903 0852 6000 FB6C 		jra sleep
 1904               	.LVL144:
 134:mtk_c.c       **** }
 1905               		.loc 1 134 26 view .LVU605
 1906               	.LBE158:
 1907               	.LBE161:
 1908               		.cfi_endproc
 1909               	.LFE11:
 1910               		.size	waitp_body, .-waitp_body
 1911               		.section	.rodata.str1.1
 1912               	.LC3:


 1913 0023 7200      		.string	"r"
 1914               	.LC4:
 1915 0025 7700      		.string	"w"
 1916               		.text
 1917               		.align	2
 1918               		.globl	fd_mapping
 1919               		.type	fd_mapping, @function
 1920               	fd_mapping:
 1921               	.LFB15:
 189:mtk_c.c       **** 
 190:mtk_c.c       **** FILE* com0in;
 191:mtk_c.c       **** FILE* com0out;
 192:mtk_c.c       **** FILE* com1in;
 193:mtk_c.c       **** FILE* com1out;
 194:mtk_c.c       **** 
 195:mtk_c.c       **** void fd_mapping() {
 1922               		.loc 1 195 19 is_stmt 1 view -0
 1923               		.cfi_startproc
 1924 0856 2F0A      		move.l %a2,-(%sp)
 1925               		.cfi_def_cfa_offset 8
 1926               		.cfi_offset 10, -8
 196:mtk_c.c       ****     com0in  = fdopen(3, "r");
 1927               		.loc 1 196 5 view .LVU607
 1928               		.loc 1 196 15 is_stmt 0 view .LVU608
 1929 0858 4879 0000 		pea .LC3
 1929      0000 
 1930               		.cfi_def_cfa_offset 12
 1931 085e 4878 0003 		pea 3.w
 1932               		.cfi_def_cfa_offset 16
 1933 0862 45F9 0000 		lea fdopen,%a2
 1933      0000 
 1934 0868 4E92      		jsr (%a2)
 1935               	.LVL145:
 1936               		.loc 1 196 13 view .LVU609
 1937 086a 23C0 0000 		move.l %d0,com0in
 1937      0000 
 197:mtk_c.c       ****     com0out = fdopen(3, "w");
 1938               		.loc 1 197 5 is_stmt 1 view .LVU610
 1939               		.loc 1 197 15 is_stmt 0 view .LVU611
 1940 0870 4879 0000 		pea .LC4
 1940      0000 
 1941               		.cfi_def_cfa_offset 20
 1942 0876 4878 0003 		pea 3.w
 1943               		.cfi_def_cfa_offset 24
 1944 087a 4E92      		jsr (%a2)
 1945               	.LVL146:
 1946               		.loc 1 197 13 view .LVU612
 1947 087c 23C0 0000 		move.l %d0,com0out
 1947      0000 
 198:mtk_c.c       ****     com1in  = fdopen(4, "r");
 1948               		.loc 1 198 5 is_stmt 1 view .LVU613
 1949               		.loc 1 198 15 is_stmt 0 view .LVU614
 1950 0882 4879 0000 		pea .LC3
 1950      0000 
 1951               		.cfi_def_cfa_offset 28
 1952 0888 4878 0004 		pea 4.w
 1953               		.cfi_def_cfa_offset 32


 1954 088c 4E92      		jsr (%a2)
 1955               	.LVL147:
 1956               		.loc 1 198 13 view .LVU615
 1957 088e 23C0 0000 		move.l %d0,com1in
 1957      0000 
 199:mtk_c.c       ****     com1out = fdopen(4, "w");
 1958               		.loc 1 199 5 is_stmt 1 view .LVU616
 1959               		.loc 1 199 15 is_stmt 0 view .LVU617
 1960 0894 4879 0000 		pea .LC4
 1960      0000 
 1961               		.cfi_def_cfa_offset 36
 1962 089a 4878 0004 		pea 4.w
 1963               		.cfi_def_cfa_offset 40
 1964 089e 4E92      		jsr (%a2)
 1965               	.LVL148:
 1966               		.loc 1 199 13 view .LVU618
 1967 08a0 23C0 0000 		move.l %d0,com1out
 1967      0000 
 200:mtk_c.c       **** }
 1968               		.loc 1 200 1 view .LVU619
 1969 08a6 4FEF 0020 		lea (32,%sp),%sp
 1970               		.cfi_def_cfa_offset 8
 1971 08aa 245F      		move.l (%sp)+,%a2
 1972 08ac 4E75      		rts
 1973               		.cfi_endproc
 1974               	.LFE15:
 1975               		.size	fd_mapping, .-fd_mapping
 1976               		.globl	com1out
 1977               		.section	.bss
 1978               		.align	2
 1979               		.type	com1out, @object
 1980               		.size	com1out, 4
 1981               	com1out:
 1982 0000 0000 0000 		.zero	4
 1983               		.globl	com1in
 1984               		.align	2
 1985               		.type	com1in, @object
 1986               		.size	com1in, 4
 1987               	com1in:
 1988 0004 0000 0000 		.zero	4
 1989               		.globl	com0out
 1990               		.align	2
 1991               		.type	com0out, @object
 1992               		.size	com0out, 4
 1993               	com0out:
 1994 0008 0000 0000 		.zero	4
 1995               		.globl	com0in
 1996               		.align	2
 1997               		.type	com0in, @object
 1998               		.size	com0in, 4
 1999               	com0in:
 2000 000c 0000 0000 		.zero	4
 2001               		.globl	semaphore
 2002               		.align	2
 2003               		.type	semaphore, @object
 2004               		.size	semaphore, 96
 2005               	semaphore:


 2006 0010 0000 0000 		.zero	96
 2006      0000 0000 
 2006      0000 0000 
 2006      0000 0000 
 2006      0000 0000 
 2007               		.globl	stacks
 2008               		.type	stacks, @object
 2009               		.size	stacks, 12288
 2010               	stacks:
 2011 0070 0000 0000 		.zero	12288
 2011      0000 0000 
 2011      0000 0000 
 2011      0000 0000 
 2011      0000 0000 
 2012               		.globl	task_tab
 2013               		.align	2
 2014               		.type	task_tab, @object
 2015               		.size	task_tab, 140
 2016               	task_tab:
 2017 3070 0000 0000 		.zero	140
 2017      0000 0000 
 2017      0000 0000 
 2017      0000 0000 
 2017      0000 0000 
 2018               		.globl	ready
 2019               		.align	2
 2020               		.type	ready, @object
 2021               		.size	ready, 4
 2022               	ready:
 2023 30fc 0000 0000 		.zero	4
 2024               		.globl	next_task
 2025               		.align	2
 2026               		.type	next_task, @object
 2027               		.size	next_task, 4
 2028               	next_task:
 2029 3100 0000 0000 		.zero	4
 2030               		.globl	new_task
 2031               		.align	2
 2032               		.type	new_task, @object
 2033               		.size	new_task, 4
 2034               	new_task:
 2035 3104 0000 0000 		.zero	4
 2036               		.globl	curr_task
 2037               		.align	2
 2038               		.type	curr_task, @object
 2039               		.size	curr_task, 4
 2040               	curr_task:
 2041 3108 0000 0000 		.zero	4
 2042               		.text
 2043               	.Letext0:
 2044               		.file 2 "/usr/local/m68k-elf/include/machine/_default_types.h"
 2045               		.file 3 "/usr/local/lib/gcc/m68k-elf/11.4.0/include/stddef.h"
 2046               		.file 4 "/usr/local/m68k-elf/include/sys/_types.h"
 2047               		.file 5 "/usr/local/m68k-elf/include/sys/reent.h"
 2048               		.file 6 "/usr/local/m68k-elf/include/sys/lock.h"
 2049               		.file 7 "/usr/local/m68k-elf/include/stdio.h"
 2050               		.file 8 "/usr/local/m68k-elf/include/sys/_stdint.h"


 2051               		.file 9 "mtk_c.h"
 2052               		.file 10 "<built-in>"
 2053               		.section	.debug_info,"",@progbits
 2054               	.Ldebug_info0:
 2055 0000 0000 1304 		.long	0x1304
 2056 0004 0005      		.word	0x5
 2057 0006 01        		.byte	0x1
 2058 0007 04        		.byte	0x4
 2059 0008 0000 0000 		.long	.Ldebug_abbrev0
 2060 000c 2E        		.uleb128 0x2e
 2061 000d 0000 0000 		.long	.LASF150
 2062 0011 1D        		.byte	0x1d
 2063 0012 0000 0000 		.long	.LASF151
 2064 0016 0000 0000 		.long	.LASF152
 2065 001a 0000 0000 		.long	.Ltext0
 2066 001e 0000 08AE 		.long	.Letext0-.Ltext0
 2067 0022 0000 0000 		.long	.Ldebug_line0
 2068 0026 0A        		.uleb128 0xa
 2069 0027 01        		.byte	0x1
 2070 0028 06        		.byte	0x6
 2071 0029 0000 0000 		.long	.LASF0
 2072 002d 0A        		.uleb128 0xa
 2073 002e 01        		.byte	0x1
 2074 002f 08        		.byte	0x8
 2075 0030 0000 0000 		.long	.LASF1
 2076 0034 0A        		.uleb128 0xa
 2077 0035 02        		.byte	0x2
 2078 0036 05        		.byte	0x5
 2079 0037 0000 0000 		.long	.LASF2
 2080 003b 0A        		.uleb128 0xa
 2081 003c 02        		.byte	0x2
 2082 003d 07        		.byte	0x7
 2083 003e 0000 0000 		.long	.LASF3
 2084 0042 0A        		.uleb128 0xa
 2085 0043 04        		.byte	0x4
 2086 0044 05        		.byte	0x5
 2087 0045 0000 0000 		.long	.LASF4
 2088 0049 0A        		.uleb128 0xa
 2089 004a 04        		.byte	0x4
 2090 004b 07        		.byte	0x7
 2091 004c 0000 0000 		.long	.LASF5
 2092 0050 0A        		.uleb128 0xa
 2093 0051 08        		.byte	0x8
 2094 0052 05        		.byte	0x5
 2095 0053 0000 0000 		.long	.LASF6
 2096 0057 0A        		.uleb128 0xa
 2097 0058 08        		.byte	0x8
 2098 0059 07        		.byte	0x7
 2099 005a 0000 0000 		.long	.LASF7
 2100 005e 07        		.uleb128 0x7
 2101 005f 0000 0000 		.long	.LASF9
 2102 0063 02        		.byte	0x2
 2103 0064 E8        		.byte	0xe8
 2104 0065 1A        		.byte	0x1a
 2105 0066 0000 0049 		.long	0x49
 2106 006a 0A        		.uleb128 0xa
 2107 006b 0C        		.byte	0xc


 2108 006c 04        		.byte	0x4
 2109 006d 0000 0000 		.long	.LASF8
 2110 0071 27        		.uleb128 0x27
 2111 0072 0000 0000 		.long	.LASF10
 2112 0076 03        		.byte	0x3
 2113 0077 015E      		.word	0x15e
 2114 0079 17        		.byte	0x17
 2115 007a 0000 007E 		.long	0x7e
 2116 007e 0A        		.uleb128 0xa
 2117 007f 04        		.byte	0x4
 2118 0080 07        		.byte	0x7
 2119 0081 0000 0000 		.long	.LASF11
 2120 0085 07        		.uleb128 0x7
 2121 0086 0000 0000 		.long	.LASF12
 2122 008a 04        		.byte	0x4
 2123 008b 2E        		.byte	0x2e
 2124 008c 0E        		.byte	0xe
 2125 008d 0000 0042 		.long	0x42
 2126 0091 2F        		.uleb128 0x2f
 2127 0092 04        		.byte	0x4
 2128 0093 05        		.byte	0x5
 2129 0094 696E 7400 		.string	"int"
 2130 0098 07        		.uleb128 0x7
 2131 0099 0000 0000 		.long	.LASF13
 2132 009d 04        		.byte	0x4
 2133 009e 74        		.byte	0x74
 2134 009f 0E        		.byte	0xe
 2135 00a0 0000 0042 		.long	0x42
 2136 00a4 07        		.uleb128 0x7
 2137 00a5 0000 0000 		.long	.LASF14
 2138 00a9 04        		.byte	0x4
 2139 00aa 93        		.byte	0x93
 2140 00ab 17        		.byte	0x17
 2141 00ac 0000 0042 		.long	0x42
 2142 00b0 30        		.uleb128 0x30
 2143 00b1 04        		.byte	0x4
 2144 00b2 04        		.byte	0x4
 2145 00b3 A5        		.byte	0xa5
 2146 00b4 03        		.byte	0x3
 2147 00b5 0000 00D0 		.long	0xd0
 2148 00b9 28        		.uleb128 0x28
 2149 00ba 0000 0000 		.long	.LASF15
 2150 00be A7        		.byte	0xa7
 2151 00bf 0C        		.byte	0xc
 2152 00c0 0000 0071 		.long	0x71
 2153 00c4 28        		.uleb128 0x28
 2154 00c5 0000 0000 		.long	.LASF16
 2155 00c9 A8        		.byte	0xa8
 2156 00ca 13        		.byte	0x13
 2157 00cb 0000 00D0 		.long	0xd0
 2158 00cf 00        		.byte	0
 2159 00d0 08        		.uleb128 0x8
 2160 00d1 0000 002D 		.long	0x2d
 2161 00d5 0000 00E0 		.long	0xe0
 2162 00d9 09        		.uleb128 0x9
 2163 00da 0000 0049 		.long	0x49
 2164 00de 03        		.byte	0x3


 2165 00df 00        		.byte	0
 2166 00e0 20        		.uleb128 0x20
 2167 00e1 08        		.byte	0x8
 2168 00e2 04        		.byte	0x4
 2169 00e3 A2        		.byte	0xa2
 2170 00e4 0000 0103 		.long	0x103
 2171 00e8 01        		.uleb128 0x1
 2172 00e9 0000 0000 		.long	.LASF17
 2173 00ed 04        		.byte	0x4
 2174 00ee A4        		.byte	0xa4
 2175 00ef 07        		.byte	0x7
 2176 00f0 0000 0091 		.long	0x91
 2177 00f4 00        		.byte	0
 2178 00f5 01        		.uleb128 0x1
 2179 00f6 0000 0000 		.long	.LASF18
 2180 00fa 04        		.byte	0x4
 2181 00fb A9        		.byte	0xa9
 2182 00fc 05        		.byte	0x5
 2183 00fd 0000 00B0 		.long	0xb0
 2184 0101 04        		.byte	0x4
 2185 0102 00        		.byte	0
 2186 0103 07        		.uleb128 0x7
 2187 0104 0000 0000 		.long	.LASF19
 2188 0108 04        		.byte	0x4
 2189 0109 AA        		.byte	0xaa
 2190 010a 03        		.byte	0x3
 2191 010b 0000 00E0 		.long	0xe0
 2192 010f 31        		.uleb128 0x31
 2193 0110 04        		.byte	0x4
 2194 0111 07        		.uleb128 0x7
 2195 0112 0000 0000 		.long	.LASF20
 2196 0116 05        		.byte	0x5
 2197 0117 16        		.byte	0x16
 2198 0118 19        		.byte	0x19
 2199 0119 0000 0049 		.long	0x49
 2200 011d 07        		.uleb128 0x7
 2201 011e 0000 0000 		.long	.LASF21
 2202 0122 06        		.byte	0x6
 2203 0123 0C        		.byte	0xc
 2204 0124 0D        		.byte	0xd
 2205 0125 0000 0091 		.long	0x91
 2206 0129 07        		.uleb128 0x7
 2207 012a 0000 0000 		.long	.LASF22
 2208 012e 05        		.byte	0x5
 2209 012f 23        		.byte	0x23
 2210 0130 1B        		.byte	0x1b
 2211 0131 0000 011D 		.long	0x11d
 2212 0135 1A        		.uleb128 0x1a
 2213 0136 0000 0000 		.long	.LASF27
 2214 013a 18        		.byte	0x18
 2215 013b 34        		.byte	0x34
 2216 013c 0000 018D 		.long	0x18d
 2217 0140 01        		.uleb128 0x1
 2218 0141 0000 0000 		.long	.LASF23
 2219 0145 05        		.byte	0x5
 2220 0146 36        		.byte	0x36
 2221 0147 13        		.byte	0x13


 2222 0148 0000 018D 		.long	0x18d
 2223 014c 00        		.byte	0
 2224 014d 0B        		.uleb128 0xb
 2225 014e 5F6B 00   		.string	"_k"
 2226 0151 05        		.byte	0x5
 2227 0152 37        		.byte	0x37
 2228 0153 07        		.byte	0x7
 2229 0154 0000 0091 		.long	0x91
 2230 0158 04        		.byte	0x4
 2231 0159 01        		.uleb128 0x1
 2232 015a 0000 0000 		.long	.LASF24
 2233 015e 05        		.byte	0x5
 2234 015f 37        		.byte	0x37
 2235 0160 0B        		.byte	0xb
 2236 0161 0000 0091 		.long	0x91
 2237 0165 08        		.byte	0x8
 2238 0166 01        		.uleb128 0x1
 2239 0167 0000 0000 		.long	.LASF25
 2240 016b 05        		.byte	0x5
 2241 016c 37        		.byte	0x37
 2242 016d 14        		.byte	0x14
 2243 016e 0000 0091 		.long	0x91
 2244 0172 0C        		.byte	0xc
 2245 0173 01        		.uleb128 0x1
 2246 0174 0000 0000 		.long	.LASF26
 2247 0178 05        		.byte	0x5
 2248 0179 37        		.byte	0x37
 2249 017a 1B        		.byte	0x1b
 2250 017b 0000 0091 		.long	0x91
 2251 017f 10        		.byte	0x10
 2252 0180 0B        		.uleb128 0xb
 2253 0181 5F78 00   		.string	"_x"
 2254 0184 05        		.byte	0x5
 2255 0185 38        		.byte	0x38
 2256 0186 0B        		.byte	0xb
 2257 0187 0000 0192 		.long	0x192
 2258 018b 14        		.byte	0x14
 2259 018c 00        		.byte	0
 2260 018d 04        		.uleb128 0x4
 2261 018e 0000 0135 		.long	0x135
 2262 0192 08        		.uleb128 0x8
 2263 0193 0000 0111 		.long	0x111
 2264 0197 0000 01A2 		.long	0x1a2
 2265 019b 09        		.uleb128 0x9
 2266 019c 0000 0049 		.long	0x49
 2267 01a0 00        		.byte	0
 2268 01a1 00        		.byte	0
 2269 01a2 1A        		.uleb128 0x1a
 2270 01a3 0000 0000 		.long	.LASF28
 2271 01a7 24        		.byte	0x24
 2272 01a8 3C        		.byte	0x3c
 2273 01a9 0000 0223 		.long	0x223
 2274 01ad 01        		.uleb128 0x1
 2275 01ae 0000 0000 		.long	.LASF29
 2276 01b2 05        		.byte	0x5
 2277 01b3 3E        		.byte	0x3e
 2278 01b4 09        		.byte	0x9


 2279 01b5 0000 0091 		.long	0x91
 2280 01b9 00        		.byte	0
 2281 01ba 01        		.uleb128 0x1
 2282 01bb 0000 0000 		.long	.LASF30
 2283 01bf 05        		.byte	0x5
 2284 01c0 3F        		.byte	0x3f
 2285 01c1 09        		.byte	0x9
 2286 01c2 0000 0091 		.long	0x91
 2287 01c6 04        		.byte	0x4
 2288 01c7 01        		.uleb128 0x1
 2289 01c8 0000 0000 		.long	.LASF31
 2290 01cc 05        		.byte	0x5
 2291 01cd 40        		.byte	0x40
 2292 01ce 09        		.byte	0x9
 2293 01cf 0000 0091 		.long	0x91
 2294 01d3 08        		.byte	0x8
 2295 01d4 01        		.uleb128 0x1
 2296 01d5 0000 0000 		.long	.LASF32
 2297 01d9 05        		.byte	0x5
 2298 01da 41        		.byte	0x41
 2299 01db 09        		.byte	0x9
 2300 01dc 0000 0091 		.long	0x91
 2301 01e0 0C        		.byte	0xc
 2302 01e1 01        		.uleb128 0x1
 2303 01e2 0000 0000 		.long	.LASF33
 2304 01e6 05        		.byte	0x5
 2305 01e7 42        		.byte	0x42
 2306 01e8 09        		.byte	0x9
 2307 01e9 0000 0091 		.long	0x91
 2308 01ed 10        		.byte	0x10
 2309 01ee 01        		.uleb128 0x1
 2310 01ef 0000 0000 		.long	.LASF34
 2311 01f3 05        		.byte	0x5
 2312 01f4 43        		.byte	0x43
 2313 01f5 09        		.byte	0x9
 2314 01f6 0000 0091 		.long	0x91
 2315 01fa 14        		.byte	0x14
 2316 01fb 01        		.uleb128 0x1
 2317 01fc 0000 0000 		.long	.LASF35
 2318 0200 05        		.byte	0x5
 2319 0201 44        		.byte	0x44
 2320 0202 09        		.byte	0x9
 2321 0203 0000 0091 		.long	0x91
 2322 0207 18        		.byte	0x18
 2323 0208 01        		.uleb128 0x1
 2324 0209 0000 0000 		.long	.LASF36
 2325 020d 05        		.byte	0x5
 2326 020e 45        		.byte	0x45
 2327 020f 09        		.byte	0x9
 2328 0210 0000 0091 		.long	0x91
 2329 0214 1C        		.byte	0x1c
 2330 0215 01        		.uleb128 0x1
 2331 0216 0000 0000 		.long	.LASF37
 2332 021a 05        		.byte	0x5
 2333 021b 46        		.byte	0x46
 2334 021c 09        		.byte	0x9
 2335 021d 0000 0091 		.long	0x91


 2336 0221 20        		.byte	0x20
 2337 0222 00        		.byte	0
 2338 0223 1A        		.uleb128 0x1a
 2339 0224 0000 0000 		.long	.LASF38
 2340 0228 08        		.byte	0x8
 2341 0229 73        		.byte	0x73
 2342 022a 0000 0249 		.long	0x249
 2343 022e 01        		.uleb128 0x1
 2344 022f 0000 0000 		.long	.LASF39
 2345 0233 05        		.byte	0x5
 2346 0234 74        		.byte	0x74
 2347 0235 11        		.byte	0x11
 2348 0236 0000 0249 		.long	0x249
 2349 023a 00        		.byte	0
 2350 023b 01        		.uleb128 0x1
 2351 023c 0000 0000 		.long	.LASF40
 2352 0240 05        		.byte	0x5
 2353 0241 75        		.byte	0x75
 2354 0242 06        		.byte	0x6
 2355 0243 0000 0091 		.long	0x91
 2356 0247 04        		.byte	0x4
 2357 0248 00        		.byte	0
 2358 0249 04        		.uleb128 0x4
 2359 024a 0000 002D 		.long	0x2d
 2360 024e 1A        		.uleb128 0x1a
 2361 024f 0000 0000 		.long	.LASF41
 2362 0253 68        		.byte	0x68
 2363 0254 98        		.byte	0x98
 2364 0255 0000 038F 		.long	0x38f
 2365 0259 0B        		.uleb128 0xb
 2366 025a 5F70 00   		.string	"_p"
 2367 025d 05        		.byte	0x5
 2368 025e 99        		.byte	0x99
 2369 025f 12        		.byte	0x12
 2370 0260 0000 0249 		.long	0x249
 2371 0264 00        		.byte	0
 2372 0265 0B        		.uleb128 0xb
 2373 0266 5F72 00   		.string	"_r"
 2374 0269 05        		.byte	0x5
 2375 026a 9A        		.byte	0x9a
 2376 026b 07        		.byte	0x7
 2377 026c 0000 0091 		.long	0x91
 2378 0270 04        		.byte	0x4
 2379 0271 0B        		.uleb128 0xb
 2380 0272 5F77 00   		.string	"_w"
 2381 0275 05        		.byte	0x5
 2382 0276 9B        		.byte	0x9b
 2383 0277 07        		.byte	0x7
 2384 0278 0000 0091 		.long	0x91
 2385 027c 08        		.byte	0x8
 2386 027d 01        		.uleb128 0x1
 2387 027e 0000 0000 		.long	.LASF42
 2388 0282 05        		.byte	0x5
 2389 0283 9C        		.byte	0x9c
 2390 0284 09        		.byte	0x9
 2391 0285 0000 0034 		.long	0x34
 2392 0289 0C        		.byte	0xc


 2393 028a 01        		.uleb128 0x1
 2394 028b 0000 0000 		.long	.LASF43
 2395 028f 05        		.byte	0x5
 2396 0290 9D        		.byte	0x9d
 2397 0291 09        		.byte	0x9
 2398 0292 0000 0034 		.long	0x34
 2399 0296 0E        		.byte	0xe
 2400 0297 0B        		.uleb128 0xb
 2401 0298 5F62 6600 		.string	"_bf"
 2402 029c 05        		.byte	0x5
 2403 029d 9E        		.byte	0x9e
 2404 029e 11        		.byte	0x11
 2405 029f 0000 0223 		.long	0x223
 2406 02a3 10        		.byte	0x10
 2407 02a4 01        		.uleb128 0x1
 2408 02a5 0000 0000 		.long	.LASF44
 2409 02a9 05        		.byte	0x5
 2410 02aa 9F        		.byte	0x9f
 2411 02ab 07        		.byte	0x7
 2412 02ac 0000 0091 		.long	0x91
 2413 02b0 18        		.byte	0x18
 2414 02b1 01        		.uleb128 0x1
 2415 02b2 0000 0000 		.long	.LASF45
 2416 02b6 05        		.byte	0x5
 2417 02b7 A6        		.byte	0xa6
 2418 02b8 0A        		.byte	0xa
 2419 02b9 0000 010F 		.long	0x10f
 2420 02bd 1C        		.byte	0x1c
 2421 02be 01        		.uleb128 0x1
 2422 02bf 0000 0000 		.long	.LASF46
 2423 02c3 05        		.byte	0x5
 2424 02c4 A8        		.byte	0xa8
 2425 02c5 1D        		.byte	0x1d
 2426 02c6 0000 04A5 		.long	0x4a5
 2427 02ca 20        		.byte	0x20
 2428 02cb 01        		.uleb128 0x1
 2429 02cc 0000 0000 		.long	.LASF47
 2430 02d0 05        		.byte	0x5
 2431 02d1 AA        		.byte	0xaa
 2432 02d2 1D        		.byte	0x1d
 2433 02d3 0000 04CD 		.long	0x4cd
 2434 02d7 24        		.byte	0x24
 2435 02d8 01        		.uleb128 0x1
 2436 02d9 0000 0000 		.long	.LASF48
 2437 02dd 05        		.byte	0x5
 2438 02de AD        		.byte	0xad
 2439 02df 0D        		.byte	0xd
 2440 02e0 0000 04F0 		.long	0x4f0
 2441 02e4 28        		.byte	0x28
 2442 02e5 01        		.uleb128 0x1
 2443 02e6 0000 0000 		.long	.LASF49
 2444 02ea 05        		.byte	0x5
 2445 02eb AE        		.byte	0xae
 2446 02ec 09        		.byte	0x9
 2447 02ed 0000 0509 		.long	0x509
 2448 02f1 2C        		.byte	0x2c
 2449 02f2 0B        		.uleb128 0xb


 2450 02f3 5F75 6200 		.string	"_ub"
 2451 02f7 05        		.byte	0x5
 2452 02f8 B1        		.byte	0xb1
 2453 02f9 11        		.byte	0x11
 2454 02fa 0000 0223 		.long	0x223
 2455 02fe 30        		.byte	0x30
 2456 02ff 0B        		.uleb128 0xb
 2457 0300 5F75 7000 		.string	"_up"
 2458 0304 05        		.byte	0x5
 2459 0305 B2        		.byte	0xb2
 2460 0306 12        		.byte	0x12
 2461 0307 0000 0249 		.long	0x249
 2462 030b 38        		.byte	0x38
 2463 030c 0B        		.uleb128 0xb
 2464 030d 5F75 7200 		.string	"_ur"
 2465 0311 05        		.byte	0x5
 2466 0312 B3        		.byte	0xb3
 2467 0313 07        		.byte	0x7
 2468 0314 0000 0091 		.long	0x91
 2469 0318 3C        		.byte	0x3c
 2470 0319 01        		.uleb128 0x1
 2471 031a 0000 0000 		.long	.LASF50
 2472 031e 05        		.byte	0x5
 2473 031f B6        		.byte	0xb6
 2474 0320 11        		.byte	0x11
 2475 0321 0000 050E 		.long	0x50e
 2476 0325 40        		.byte	0x40
 2477 0326 01        		.uleb128 0x1
 2478 0327 0000 0000 		.long	.LASF51
 2479 032b 05        		.byte	0x5
 2480 032c B7        		.byte	0xb7
 2481 032d 11        		.byte	0x11
 2482 032e 0000 051E 		.long	0x51e
 2483 0332 43        		.byte	0x43
 2484 0333 0B        		.uleb128 0xb
 2485 0334 5F6C 6200 		.string	"_lb"
 2486 0338 05        		.byte	0x5
 2487 0339 BA        		.byte	0xba
 2488 033a 11        		.byte	0x11
 2489 033b 0000 0223 		.long	0x223
 2490 033f 44        		.byte	0x44
 2491 0340 01        		.uleb128 0x1
 2492 0341 0000 0000 		.long	.LASF52
 2493 0345 05        		.byte	0x5
 2494 0346 BD        		.byte	0xbd
 2495 0347 07        		.byte	0x7
 2496 0348 0000 0091 		.long	0x91
 2497 034c 4C        		.byte	0x4c
 2498 034d 01        		.uleb128 0x1
 2499 034e 0000 0000 		.long	.LASF53
 2500 0352 05        		.byte	0x5
 2501 0353 BE        		.byte	0xbe
 2502 0354 0A        		.byte	0xa
 2503 0355 0000 0085 		.long	0x85
 2504 0359 50        		.byte	0x50
 2505 035a 01        		.uleb128 0x1
 2506 035b 0000 0000 		.long	.LASF54


 2507 035f 05        		.byte	0x5
 2508 0360 C1        		.byte	0xc1
 2509 0361 12        		.byte	0x12
 2510 0362 0000 03AD 		.long	0x3ad
 2511 0366 54        		.byte	0x54
 2512 0367 01        		.uleb128 0x1
 2513 0368 0000 0000 		.long	.LASF55
 2514 036c 05        		.byte	0x5
 2515 036d C5        		.byte	0xc5
 2516 036e 0C        		.byte	0xc
 2517 036f 0000 0129 		.long	0x129
 2518 0373 58        		.byte	0x58
 2519 0374 01        		.uleb128 0x1
 2520 0375 0000 0000 		.long	.LASF56
 2521 0379 05        		.byte	0x5
 2522 037a C7        		.byte	0xc7
 2523 037b 0E        		.byte	0xe
 2524 037c 0000 0103 		.long	0x103
 2525 0380 5C        		.byte	0x5c
 2526 0381 01        		.uleb128 0x1
 2527 0382 0000 0000 		.long	.LASF57
 2528 0386 05        		.byte	0x5
 2529 0387 C8        		.byte	0xc8
 2530 0388 09        		.byte	0x9
 2531 0389 0000 0091 		.long	0x91
 2532 038d 64        		.byte	0x64
 2533 038e 00        		.byte	0
 2534 038f 1B        		.uleb128 0x1b
 2535 0390 0000 00A4 		.long	0xa4
 2536 0394 0000 03AD 		.long	0x3ad
 2537 0398 06        		.uleb128 0x6
 2538 0399 0000 03AD 		.long	0x3ad
 2539 039d 06        		.uleb128 0x6
 2540 039e 0000 010F 		.long	0x10f
 2541 03a2 06        		.uleb128 0x6
 2542 03a3 0000 0494 		.long	0x494
 2543 03a7 06        		.uleb128 0x6
 2544 03a8 0000 0091 		.long	0x91
 2545 03ac 00        		.byte	0
 2546 03ad 04        		.uleb128 0x4
 2547 03ae 0000 03B2 		.long	0x3b2
 2548 03b2 32        		.uleb128 0x32
 2549 03b3 0000 0000 		.long	.LASF58
 2550 03b7 0116      		.word	0x116
 2551 03b9 05        		.byte	0x5
 2552 03ba 0237      		.word	0x237
 2553 03bc 08        		.byte	0x8
 2554 03bd 0000 0494 		.long	0x494
 2555 03c1 02        		.uleb128 0x2
 2556 03c2 0000 0000 		.long	.LASF59
 2557 03c6 0239      		.word	0x239
 2558 03c8 07        		.byte	0x7
 2559 03c9 0000 0091 		.long	0x91
 2560 03cd 00        		.byte	0
 2561 03ce 02        		.uleb128 0x2
 2562 03cf 0000 0000 		.long	.LASF60
 2563 03d3 023E      		.word	0x23e


 2564 03d5 0B        		.byte	0xb
 2565 03d6 0000 053B 		.long	0x53b
 2566 03da 04        		.byte	0x4
 2567 03db 02        		.uleb128 0x2
 2568 03dc 0000 0000 		.long	.LASF61
 2569 03e0 023E      		.word	0x23e
 2570 03e2 14        		.byte	0x14
 2571 03e3 0000 053B 		.long	0x53b
 2572 03e7 08        		.byte	0x8
 2573 03e8 02        		.uleb128 0x2
 2574 03e9 0000 0000 		.long	.LASF62
 2575 03ed 023E      		.word	0x23e
 2576 03ef 1E        		.byte	0x1e
 2577 03f0 0000 053B 		.long	0x53b
 2578 03f4 0C        		.byte	0xc
 2579 03f5 02        		.uleb128 0x2
 2580 03f6 0000 0000 		.long	.LASF63
 2581 03fa 0240      		.word	0x240
 2582 03fc 08        		.byte	0x8
 2583 03fd 0000 0091 		.long	0x91
 2584 0401 10        		.byte	0x10
 2585 0402 02        		.uleb128 0x2
 2586 0403 0000 0000 		.long	.LASF64
 2587 0407 0241      		.word	0x241
 2588 0409 08        		.byte	0x8
 2589 040a 0000 06C3 		.long	0x6c3
 2590 040e 14        		.byte	0x14
 2591 040f 02        		.uleb128 0x2
 2592 0410 0000 0000 		.long	.LASF65
 2593 0414 0246      		.word	0x246
 2594 0416 16        		.byte	0x16
 2595 0417 0000 06D8 		.long	0x6d8
 2596 041b 2E        		.byte	0x2e
 2597 041c 02        		.uleb128 0x2
 2598 041d 0000 0000 		.long	.LASF66
 2599 0421 024C      		.word	0x24c
 2600 0423 0A        		.byte	0xa
 2601 0424 0000 06E8 		.long	0x6e8
 2602 0428 32        		.byte	0x32
 2603 0429 02        		.uleb128 0x2
 2604 042a 0000 0000 		.long	.LASF67
 2605 042e 024F      		.word	0x24f
 2606 0430 13        		.byte	0x13
 2607 0431 0000 018D 		.long	0x18d
 2608 0435 36        		.byte	0x36
 2609 0436 02        		.uleb128 0x2
 2610 0437 0000 0000 		.long	.LASF68
 2611 043b 0250      		.word	0x250
 2612 043d 07        		.byte	0x7
 2613 043e 0000 0091 		.long	0x91
 2614 0442 3A        		.byte	0x3a
 2615 0443 02        		.uleb128 0x2
 2616 0444 0000 0000 		.long	.LASF69
 2617 0448 0251      		.word	0x251
 2618 044a 13        		.byte	0x13
 2619 044b 0000 018D 		.long	0x18d
 2620 044f 3E        		.byte	0x3e


 2621 0450 02        		.uleb128 0x2
 2622 0451 0000 0000 		.long	.LASF70
 2623 0455 0252      		.word	0x252
 2624 0457 14        		.byte	0x14
 2625 0458 0000 06ED 		.long	0x6ed
 2626 045c 42        		.byte	0x42
 2627 045d 02        		.uleb128 0x2
 2628 045e 0000 0000 		.long	.LASF71
 2629 0462 0255      		.word	0x255
 2630 0464 07        		.byte	0x7
 2631 0465 0000 0091 		.long	0x91
 2632 0469 46        		.byte	0x46
 2633 046a 02        		.uleb128 0x2
 2634 046b 0000 0000 		.long	.LASF72
 2635 046f 0256      		.word	0x256
 2636 0471 09        		.byte	0x9
 2637 0472 0000 0494 		.long	0x494
 2638 0476 4A        		.byte	0x4a
 2639 0477 02        		.uleb128 0x2
 2640 0478 0000 0000 		.long	.LASF73
 2641 047c 0279      		.word	0x279
 2642 047e 07        		.byte	0x7
 2643 047f 0000 06AB 		.long	0x6ab
 2644 0483 4E        		.byte	0x4e
 2645 0484 33        		.uleb128 0x33
 2646 0485 0000 0000 		.long	.LASF74
 2647 0489 05        		.byte	0x5
 2648 048a 0281      		.word	0x281
 2649 048c 0B        		.byte	0xb
 2650 048d 0000 06FD 		.long	0x6fd
 2651 0491 0112      		.word	0x112
 2652 0493 00        		.byte	0
 2653 0494 04        		.uleb128 0x4
 2654 0495 0000 0499 		.long	0x499
 2655 0499 0A        		.uleb128 0xa
 2656 049a 01        		.byte	0x1
 2657 049b 06        		.byte	0x6
 2658 049c 0000 0000 		.long	.LASF75
 2659 04a0 34        		.uleb128 0x34
 2660 04a1 0000 0499 		.long	0x499
 2661 04a5 04        		.uleb128 0x4
 2662 04a6 0000 038F 		.long	0x38f
 2663 04aa 1B        		.uleb128 0x1b
 2664 04ab 0000 00A4 		.long	0xa4
 2665 04af 0000 04C8 		.long	0x4c8
 2666 04b3 06        		.uleb128 0x6
 2667 04b4 0000 03AD 		.long	0x3ad
 2668 04b8 06        		.uleb128 0x6
 2669 04b9 0000 010F 		.long	0x10f
 2670 04bd 06        		.uleb128 0x6
 2671 04be 0000 04C8 		.long	0x4c8
 2672 04c2 06        		.uleb128 0x6
 2673 04c3 0000 0091 		.long	0x91
 2674 04c7 00        		.byte	0
 2675 04c8 04        		.uleb128 0x4
 2676 04c9 0000 04A0 		.long	0x4a0
 2677 04cd 04        		.uleb128 0x4


 2678 04ce 0000 04AA 		.long	0x4aa
 2679 04d2 1B        		.uleb128 0x1b
 2680 04d3 0000 0098 		.long	0x98
 2681 04d7 0000 04F0 		.long	0x4f0
 2682 04db 06        		.uleb128 0x6
 2683 04dc 0000 03AD 		.long	0x3ad
 2684 04e0 06        		.uleb128 0x6
 2685 04e1 0000 010F 		.long	0x10f
 2686 04e5 06        		.uleb128 0x6
 2687 04e6 0000 0098 		.long	0x98
 2688 04ea 06        		.uleb128 0x6
 2689 04eb 0000 0091 		.long	0x91
 2690 04ef 00        		.byte	0
 2691 04f0 04        		.uleb128 0x4
 2692 04f1 0000 04D2 		.long	0x4d2
 2693 04f5 1B        		.uleb128 0x1b
 2694 04f6 0000 0091 		.long	0x91
 2695 04fa 0000 0509 		.long	0x509
 2696 04fe 06        		.uleb128 0x6
 2697 04ff 0000 03AD 		.long	0x3ad
 2698 0503 06        		.uleb128 0x6
 2699 0504 0000 010F 		.long	0x10f
 2700 0508 00        		.byte	0
 2701 0509 04        		.uleb128 0x4
 2702 050a 0000 04F5 		.long	0x4f5
 2703 050e 08        		.uleb128 0x8
 2704 050f 0000 002D 		.long	0x2d
 2705 0513 0000 051E 		.long	0x51e
 2706 0517 09        		.uleb128 0x9
 2707 0518 0000 0049 		.long	0x49
 2708 051c 02        		.byte	0x2
 2709 051d 00        		.byte	0
 2710 051e 08        		.uleb128 0x8
 2711 051f 0000 002D 		.long	0x2d
 2712 0523 0000 052E 		.long	0x52e
 2713 0527 09        		.uleb128 0x9
 2714 0528 0000 0049 		.long	0x49
 2715 052c 00        		.byte	0
 2716 052d 00        		.byte	0
 2717 052e 27        		.uleb128 0x27
 2718 052f 0000 0000 		.long	.LASF76
 2719 0533 05        		.byte	0x5
 2720 0534 010D      		.word	0x10d
 2721 0536 1A        		.byte	0x1a
 2722 0537 0000 024E 		.long	0x24e
 2723 053b 04        		.uleb128 0x4
 2724 053c 0000 052E 		.long	0x52e
 2725 0540 35        		.uleb128 0x35
 2726 0541 0000 0000 		.long	.LASF77
 2727 0545 0E        		.byte	0xe
 2728 0546 05        		.byte	0x5
 2729 0547 0131      		.word	0x131
 2730 0549 08        		.byte	0x8
 2731 054a 0000 0576 		.long	0x576
 2732 054e 02        		.uleb128 0x2
 2733 054f 0000 0000 		.long	.LASF78
 2734 0553 0132      		.word	0x132


 2735 0555 12        		.byte	0x12
 2736 0556 0000 0576 		.long	0x576
 2737 055a 00        		.byte	0
 2738 055b 02        		.uleb128 0x2
 2739 055c 0000 0000 		.long	.LASF79
 2740 0560 0133      		.word	0x133
 2741 0562 12        		.byte	0x12
 2742 0563 0000 0576 		.long	0x576
 2743 0567 06        		.byte	0x6
 2744 0568 02        		.uleb128 0x2
 2745 0569 0000 0000 		.long	.LASF80
 2746 056d 0134      		.word	0x134
 2747 056f 12        		.byte	0x12
 2748 0570 0000 003B 		.long	0x3b
 2749 0574 0C        		.byte	0xc
 2750 0575 00        		.byte	0
 2751 0576 08        		.uleb128 0x8
 2752 0577 0000 003B 		.long	0x3b
 2753 057b 0000 0586 		.long	0x586
 2754 057f 09        		.uleb128 0x9
 2755 0580 0000 0049 		.long	0x49
 2756 0584 02        		.byte	0x2
 2757 0585 00        		.byte	0
 2758 0586 36        		.uleb128 0x36
 2759 0587 C4        		.byte	0xc4
 2760 0588 05        		.byte	0x5
 2761 0589 025A      		.word	0x25a
 2762 058b 07        		.byte	0x7
 2763 058c 0000 067B 		.long	0x67b
 2764 0590 02        		.uleb128 0x2
 2765 0591 0000 0000 		.long	.LASF81
 2766 0595 025F      		.word	0x25f
 2767 0597 12        		.byte	0x12
 2768 0598 0000 0494 		.long	0x494
 2769 059c 00        		.byte	0
 2770 059d 02        		.uleb128 0x2
 2771 059e 0000 0000 		.long	.LASF82
 2772 05a2 0260      		.word	0x260
 2773 05a4 10        		.byte	0x10
 2774 05a5 0000 067B 		.long	0x67b
 2775 05a9 04        		.byte	0x4
 2776 05aa 02        		.uleb128 0x2
 2777 05ab 0000 0000 		.long	.LASF83
 2778 05af 0261      		.word	0x261
 2779 05b1 17        		.byte	0x17
 2780 05b2 0000 01A2 		.long	0x1a2
 2781 05b6 1E        		.byte	0x1e
 2782 05b7 02        		.uleb128 0x2
 2783 05b8 0000 0000 		.long	.LASF84
 2784 05bc 0262      		.word	0x262
 2785 05be 0F        		.byte	0xf
 2786 05bf 0000 0091 		.long	0x91
 2787 05c3 42        		.byte	0x42
 2788 05c4 02        		.uleb128 0x2
 2789 05c5 0000 0000 		.long	.LASF85
 2790 05c9 0263      		.word	0x263
 2791 05cb 2C        		.byte	0x2c


 2792 05cc 0000 0057 		.long	0x57
 2793 05d0 46        		.byte	0x46
 2794 05d1 02        		.uleb128 0x2
 2795 05d2 0000 0000 		.long	.LASF86
 2796 05d6 0264      		.word	0x264
 2797 05d8 1A        		.byte	0x1a
 2798 05d9 0000 0540 		.long	0x540
 2799 05dd 4E        		.byte	0x4e
 2800 05de 02        		.uleb128 0x2
 2801 05df 0000 0000 		.long	.LASF87
 2802 05e3 0265      		.word	0x265
 2803 05e5 16        		.byte	0x16
 2804 05e6 0000 0103 		.long	0x103
 2805 05ea 5C        		.byte	0x5c
 2806 05eb 02        		.uleb128 0x2
 2807 05ec 0000 0000 		.long	.LASF88
 2808 05f0 0266      		.word	0x266
 2809 05f2 16        		.byte	0x16
 2810 05f3 0000 0103 		.long	0x103
 2811 05f7 64        		.byte	0x64
 2812 05f8 02        		.uleb128 0x2
 2813 05f9 0000 0000 		.long	.LASF89
 2814 05fd 0267      		.word	0x267
 2815 05ff 16        		.byte	0x16
 2816 0600 0000 0103 		.long	0x103
 2817 0604 6C        		.byte	0x6c
 2818 0605 02        		.uleb128 0x2
 2819 0606 0000 0000 		.long	.LASF90
 2820 060a 0268      		.word	0x268
 2821 060c 10        		.byte	0x10
 2822 060d 0000 068B 		.long	0x68b
 2823 0611 74        		.byte	0x74
 2824 0612 02        		.uleb128 0x2
 2825 0613 0000 0000 		.long	.LASF91
 2826 0617 0269      		.word	0x269
 2827 0619 10        		.byte	0x10
 2828 061a 0000 069B 		.long	0x69b
 2829 061e 7C        		.byte	0x7c
 2830 061f 02        		.uleb128 0x2
 2831 0620 0000 0000 		.long	.LASF92
 2832 0624 026A      		.word	0x26a
 2833 0626 0F        		.byte	0xf
 2834 0627 0000 0091 		.long	0x91
 2835 062b 94        		.byte	0x94
 2836 062c 02        		.uleb128 0x2
 2837 062d 0000 0000 		.long	.LASF93
 2838 0631 026B      		.word	0x26b
 2839 0633 16        		.byte	0x16
 2840 0634 0000 0103 		.long	0x103
 2841 0638 98        		.byte	0x98
 2842 0639 02        		.uleb128 0x2
 2843 063a 0000 0000 		.long	.LASF94
 2844 063e 026C      		.word	0x26c
 2845 0640 16        		.byte	0x16
 2846 0641 0000 0103 		.long	0x103
 2847 0645 A0        		.byte	0xa0
 2848 0646 02        		.uleb128 0x2


 2849 0647 0000 0000 		.long	.LASF95
 2850 064b 026D      		.word	0x26d
 2851 064d 16        		.byte	0x16
 2852 064e 0000 0103 		.long	0x103
 2853 0652 A8        		.byte	0xa8
 2854 0653 02        		.uleb128 0x2
 2855 0654 0000 0000 		.long	.LASF96
 2856 0658 026E      		.word	0x26e
 2857 065a 16        		.byte	0x16
 2858 065b 0000 0103 		.long	0x103
 2859 065f B0        		.byte	0xb0
 2860 0660 02        		.uleb128 0x2
 2861 0661 0000 0000 		.long	.LASF97
 2862 0665 026F      		.word	0x26f
 2863 0667 16        		.byte	0x16
 2864 0668 0000 0103 		.long	0x103
 2865 066c B8        		.byte	0xb8
 2866 066d 02        		.uleb128 0x2
 2867 066e 0000 0000 		.long	.LASF98
 2868 0672 0270      		.word	0x270
 2869 0674 08        		.byte	0x8
 2870 0675 0000 0091 		.long	0x91
 2871 0679 C0        		.byte	0xc0
 2872 067a 00        		.byte	0
 2873 067b 08        		.uleb128 0x8
 2874 067c 0000 0499 		.long	0x499
 2875 0680 0000 068B 		.long	0x68b
 2876 0684 09        		.uleb128 0x9
 2877 0685 0000 0049 		.long	0x49
 2878 0689 19        		.byte	0x19
 2879 068a 00        		.byte	0
 2880 068b 08        		.uleb128 0x8
 2881 068c 0000 0499 		.long	0x499
 2882 0690 0000 069B 		.long	0x69b
 2883 0694 09        		.uleb128 0x9
 2884 0695 0000 0049 		.long	0x49
 2885 0699 07        		.byte	0x7
 2886 069a 00        		.byte	0
 2887 069b 08        		.uleb128 0x8
 2888 069c 0000 0499 		.long	0x499
 2889 06a0 0000 06AB 		.long	0x6ab
 2890 06a4 09        		.uleb128 0x9
 2891 06a5 0000 0049 		.long	0x49
 2892 06a9 17        		.byte	0x17
 2893 06aa 00        		.byte	0
 2894 06ab 37        		.uleb128 0x37
 2895 06ac C4        		.byte	0xc4
 2896 06ad 05        		.byte	0x5
 2897 06ae 0258      		.word	0x258
 2898 06b0 03        		.byte	0x3
 2899 06b1 0000 06C3 		.long	0x6c3
 2900 06b5 38        		.uleb128 0x38
 2901 06b6 0000 0000 		.long	.LASF58
 2902 06ba 05        		.byte	0x5
 2903 06bb 0271      		.word	0x271
 2904 06bd 0B        		.byte	0xb
 2905 06be 0000 0586 		.long	0x586


 2906 06c2 00        		.byte	0
 2907 06c3 08        		.uleb128 0x8
 2908 06c4 0000 0499 		.long	0x499
 2909 06c8 0000 06D3 		.long	0x6d3
 2910 06cc 09        		.uleb128 0x9
 2911 06cd 0000 0049 		.long	0x49
 2912 06d1 18        		.byte	0x18
 2913 06d2 00        		.byte	0
 2914 06d3 39        		.uleb128 0x39
 2915 06d4 0000 0000 		.long	.LASF153
 2916 06d8 04        		.uleb128 0x4
 2917 06d9 0000 06D3 		.long	0x6d3
 2918 06dd 29        		.uleb128 0x29
 2919 06de 0000 06E8 		.long	0x6e8
 2920 06e2 06        		.uleb128 0x6
 2921 06e3 0000 03AD 		.long	0x3ad
 2922 06e7 00        		.byte	0
 2923 06e8 04        		.uleb128 0x4
 2924 06e9 0000 06DD 		.long	0x6dd
 2925 06ed 04        		.uleb128 0x4
 2926 06ee 0000 018D 		.long	0x18d
 2927 06f2 29        		.uleb128 0x29
 2928 06f3 0000 06FD 		.long	0x6fd
 2929 06f7 06        		.uleb128 0x6
 2930 06f8 0000 0091 		.long	0x91
 2931 06fc 00        		.byte	0
 2932 06fd 04        		.uleb128 0x4
 2933 06fe 0000 0702 		.long	0x702
 2934 0702 04        		.uleb128 0x4
 2935 0703 0000 06F2 		.long	0x6f2
 2936 0707 07        		.uleb128 0x7
 2937 0708 0000 0000 		.long	.LASF99
 2938 070c 07        		.byte	0x7
 2939 070d 42        		.byte	0x42
 2940 070e 10        		.byte	0x10
 2941 070f 0000 052E 		.long	0x52e
 2942 0713 07        		.uleb128 0x7
 2943 0714 0000 0000 		.long	.LASF100
 2944 0718 08        		.byte	0x8
 2945 0719 52        		.byte	0x52
 2946 071a 15        		.byte	0x15
 2947 071b 0000 005E 		.long	0x5e
 2948 071f 07        		.uleb128 0x7
 2949 0720 0000 0000 		.long	.LASF101
 2950 0724 09        		.byte	0x9
 2951 0725 0E        		.byte	0xe
 2952 0726 0D        		.byte	0xd
 2953 0727 0000 0091 		.long	0x91
 2954 072b 07        		.uleb128 0x7
 2955 072c 0000 0000 		.long	.LASF102
 2956 0730 09        		.byte	0x9
 2957 0731 0F        		.byte	0xf
 2958 0732 0D        		.byte	0xd
 2959 0733 0000 0091 		.long	0x91
 2960 0737 20        		.uleb128 0x20
 2961 0738 0C        		.byte	0xc
 2962 0739 09        		.byte	0x9


 2963 073a 14        		.byte	0x14
 2964 073b 0000 0767 		.long	0x767
 2965 073f 01        		.uleb128 0x1
 2966 0740 0000 0000 		.long	.LASF103
 2967 0744 09        		.byte	0x9
 2968 0745 15        		.byte	0x15
 2969 0746 09        		.byte	0x9
 2970 0747 0000 0091 		.long	0x91
 2971 074b 00        		.byte	0
 2972 074c 0B        		.uleb128 0xb
 2973 074d 6E73 7400 		.string	"nst"
 2974 0751 09        		.byte	0x9
 2975 0752 16        		.byte	0x16
 2976 0753 09        		.byte	0x9
 2977 0754 0000 0091 		.long	0x91
 2978 0758 04        		.byte	0x4
 2979 0759 01        		.uleb128 0x1
 2980 075a 0000 0000 		.long	.LASF104
 2981 075e 09        		.byte	0x9
 2982 075f 17        		.byte	0x17
 2983 0760 12        		.byte	0x12
 2984 0761 0000 071F 		.long	0x71f
 2985 0765 08        		.byte	0x8
 2986 0766 00        		.byte	0
 2987 0767 07        		.uleb128 0x7
 2988 0768 0000 0000 		.long	.LASF105
 2989 076c 09        		.byte	0x9
 2990 076d 18        		.byte	0x18
 2991 076e 03        		.byte	0x3
 2992 076f 0000 0737 		.long	0x737
 2993 0773 20        		.uleb128 0x20
 2994 0774 14        		.byte	0x14
 2995 0775 09        		.byte	0x9
 2996 0776 1A        		.byte	0x1a
 2997 0777 0000 07BD 		.long	0x7bd
 2998 077b 01        		.uleb128 0x1
 2999 077c 0000 0000 		.long	.LASF106
 3000 0780 09        		.byte	0x9
 3001 0781 1B        		.byte	0x1b
 3002 0782 0C        		.byte	0xc
 3003 0783 0000 07C4 		.long	0x7c4
 3004 0787 00        		.byte	0
 3005 0788 01        		.uleb128 0x1
 3006 0789 0000 0000 		.long	.LASF107
 3007 078d 09        		.byte	0x9
 3008 078e 1C        		.byte	0x1c
 3009 078f 0B        		.byte	0xb
 3010 0790 0000 010F 		.long	0x10f
 3011 0794 04        		.byte	0x4
 3012 0795 01        		.uleb128 0x1
 3013 0796 0000 0000 		.long	.LASF108
 3014 079a 09        		.byte	0x9
 3015 079b 1D        		.byte	0x1d
 3016 079c 09        		.byte	0x9
 3017 079d 0000 0091 		.long	0x91
 3018 07a1 08        		.byte	0x8
 3019 07a2 01        		.uleb128 0x1


 3020 07a3 0000 0000 		.long	.LASF109
 3021 07a7 09        		.byte	0x9
 3022 07a8 1E        		.byte	0x1e
 3023 07a9 09        		.byte	0x9
 3024 07aa 0000 0091 		.long	0x91
 3025 07ae 0C        		.byte	0xc
 3026 07af 01        		.uleb128 0x1
 3027 07b0 0000 0000 		.long	.LASF110
 3028 07b4 09        		.byte	0x9
 3029 07b5 1F        		.byte	0x1f
 3030 07b6 12        		.byte	0x12
 3031 07b7 0000 071F 		.long	0x71f
 3032 07bb 10        		.byte	0x10
 3033 07bc 00        		.byte	0
 3034 07bd 3A        		.uleb128 0x3a
 3035 07be 0000 07C4 		.long	0x7c4
 3036 07c2 18        		.uleb128 0x18
 3037 07c3 00        		.byte	0
 3038 07c4 04        		.uleb128 0x4
 3039 07c5 0000 07BD 		.long	0x7bd
 3040 07c9 07        		.uleb128 0x7
 3041 07ca 0000 0000 		.long	.LASF111
 3042 07ce 09        		.byte	0x9
 3043 07cf 20        		.byte	0x20
 3044 07d0 03        		.byte	0x3
 3045 07d1 0000 0773 		.long	0x773
 3046 07d5 08        		.uleb128 0x8
 3047 07d6 0000 07C9 		.long	0x7c9
 3048 07da 0000 07E5 		.long	0x7e5
 3049 07de 09        		.uleb128 0x9
 3050 07df 0000 0049 		.long	0x49
 3051 07e3 06        		.byte	0x6
 3052 07e4 00        		.byte	0
 3053 07e5 0C        		.uleb128 0xc
 3054 07e6 0000 0000 		.long	.LASF115
 3055 07ea 21        		.byte	0x21
 3056 07eb 11        		.byte	0x11
 3057 07ec 0000 07D5 		.long	0x7d5
 3058 07f0 3B        		.uleb128 0x3b
 3059 07f1 0800      		.word	0x800
 3060 07f3 09        		.byte	0x9
 3061 07f4 23        		.byte	0x23
 3062 07f5 09        		.byte	0x9
 3063 07f6 0000 0816 		.long	0x816
 3064 07fa 01        		.uleb128 0x1
 3065 07fb 0000 0000 		.long	.LASF112
 3066 07ff 09        		.byte	0x9
 3067 0800 24        		.byte	0x24
 3068 0801 0A        		.byte	0xa
 3069 0802 0000 0816 		.long	0x816
 3070 0806 00        		.byte	0
 3071 0807 3C        		.uleb128 0x3c
 3072 0808 0000 0000 		.long	.LASF113
 3073 080c 09        		.byte	0x9
 3074 080d 25        		.byte	0x25
 3075 080e 0A        		.byte	0xa
 3076 080f 0000 0816 		.long	0x816


 3077 0813 0400      		.word	0x400
 3078 0815 00        		.byte	0
 3079 0816 08        		.uleb128 0x8
 3080 0817 0000 0499 		.long	0x499
 3081 081b 0000 0827 		.long	0x827
 3082 081f 3D        		.uleb128 0x3d
 3083 0820 0000 0049 		.long	0x49
 3084 0824 03FF      		.word	0x3ff
 3085 0826 00        		.byte	0
 3086 0827 07        		.uleb128 0x7
 3087 0828 0000 0000 		.long	.LASF114
 3088 082c 09        		.byte	0x9
 3089 082d 26        		.byte	0x26
 3090 082e 03        		.byte	0x3
 3091 082f 0000 07F0 		.long	0x7f0
 3092 0833 08        		.uleb128 0x8
 3093 0834 0000 0827 		.long	0x827
 3094 0838 0000 0843 		.long	0x843
 3095 083c 09        		.uleb128 0x9
 3096 083d 0000 0049 		.long	0x49
 3097 0841 05        		.byte	0x5
 3098 0842 00        		.byte	0
 3099 0843 0C        		.uleb128 0xc
 3100 0844 0000 0000 		.long	.LASF116
 3101 0848 27        		.byte	0x27
 3102 0849 13        		.byte	0x13
 3103 084a 0000 0833 		.long	0x833
 3104 084e 0C        		.uleb128 0xc
 3105 084f 0000 0000 		.long	.LASF117
 3106 0853 29        		.byte	0x29
 3107 0854 15        		.byte	0x15
 3108 0855 0000 071F 		.long	0x71f
 3109 0859 0C        		.uleb128 0xc
 3110 085a 0000 0000 		.long	.LASF118
 3111 085e 2A        		.byte	0x2a
 3112 085f 15        		.byte	0x15
 3113 0860 0000 071F 		.long	0x71f
 3114 0864 0C        		.uleb128 0xc
 3115 0865 0000 0000 		.long	.LASF119
 3116 0869 2B        		.byte	0x2b
 3117 086a 15        		.byte	0x15
 3118 086b 0000 071F 		.long	0x71f
 3119 086f 0C        		.uleb128 0xc
 3120 0870 0000 0000 		.long	.LASF120
 3121 0874 2C        		.byte	0x2c
 3122 0875 15        		.byte	0x15
 3123 0876 0000 071F 		.long	0x71f
 3124 087a 08        		.uleb128 0x8
 3125 087b 0000 0767 		.long	0x767
 3126 087f 0000 088A 		.long	0x88a
 3127 0883 09        		.uleb128 0x9
 3128 0884 0000 0049 		.long	0x49
 3129 0888 07        		.byte	0x7
 3130 0889 00        		.byte	0
 3131 088a 0C        		.uleb128 0xc
 3132 088b 0000 0000 		.long	.LASF121
 3133 088f 2D        		.byte	0x2d


 3134 0890 17        		.byte	0x17
 3135 0891 0000 087A 		.long	0x87a
 3136 0895 0C        		.uleb128 0xc
 3137 0896 0000 0000 		.long	.LASF122
 3138 089a 47        		.byte	0x47
 3139 089b 0E        		.byte	0xe
 3140 089c 0000 08A0 		.long	0x8a0
 3141 08a0 04        		.uleb128 0x4
 3142 08a1 0000 0707 		.long	0x707
 3143 08a5 0C        		.uleb128 0xc
 3144 08a6 0000 0000 		.long	.LASF123
 3145 08aa 48        		.byte	0x48
 3146 08ab 0E        		.byte	0xe
 3147 08ac 0000 08A0 		.long	0x8a0
 3148 08b0 0C        		.uleb128 0xc
 3149 08b1 0000 0000 		.long	.LASF124
 3150 08b5 49        		.byte	0x49
 3151 08b6 0E        		.byte	0xe
 3152 08b7 0000 08A0 		.long	0x8a0
 3153 08bb 0C        		.uleb128 0xc
 3154 08bc 0000 0000 		.long	.LASF125
 3155 08c0 4A        		.byte	0x4a
 3156 08c1 0E        		.byte	0xe
 3157 08c2 0000 08A0 		.long	0x8a0
 3158 08c6 0D        		.uleb128 0xd
 3159 08c7 0000 084E 		.long	0x84e
 3160 08cb 08        		.byte	0x8
 3161 08cc 0E        		.byte	0xe
 3162 08cd 05        		.uleb128 0x5
 3163 08ce 03        		.byte	0x3
 3164 08cf 0000 0000 		.long	curr_task
 3165 08d3 0D        		.uleb128 0xd
 3166 08d4 0000 0859 		.long	0x859
 3167 08d8 09        		.byte	0x9
 3168 08d9 0E        		.byte	0xe
 3169 08da 05        		.uleb128 0x5
 3170 08db 03        		.byte	0x3
 3171 08dc 0000 0000 		.long	new_task
 3172 08e0 0D        		.uleb128 0xd
 3173 08e1 0000 0864 		.long	0x864
 3174 08e5 0A        		.byte	0xa
 3175 08e6 0E        		.byte	0xe
 3176 08e7 05        		.uleb128 0x5
 3177 08e8 03        		.byte	0x3
 3178 08e9 0000 0000 		.long	next_task
 3179 08ed 0D        		.uleb128 0xd
 3180 08ee 0000 086F 		.long	0x86f
 3181 08f2 0B        		.byte	0xb
 3182 08f3 0E        		.byte	0xe
 3183 08f4 05        		.uleb128 0x5
 3184 08f5 03        		.byte	0x3
 3185 08f6 0000 0000 		.long	ready
 3186 08fa 0D        		.uleb128 0xd
 3187 08fb 0000 07E5 		.long	0x7e5
 3188 08ff 0C        		.byte	0xc
 3189 0900 0A        		.byte	0xa
 3190 0901 05        		.uleb128 0x5


 3191 0902 03        		.byte	0x3
 3192 0903 0000 0000 		.long	task_tab
 3193 0907 0D        		.uleb128 0xd
 3194 0908 0000 0843 		.long	0x843
 3195 090c 0D        		.byte	0xd
 3196 090d 0C        		.byte	0xc
 3197 090e 05        		.uleb128 0x5
 3198 090f 03        		.byte	0x3
 3199 0910 0000 0000 		.long	stacks
 3200 0914 0D        		.uleb128 0xd
 3201 0915 0000 088A 		.long	0x88a
 3202 0919 0E        		.byte	0xe
 3203 091a 10        		.byte	0x10
 3204 091b 05        		.uleb128 0x5
 3205 091c 03        		.byte	0x3
 3206 091d 0000 0000 		.long	semaphore
 3207 0921 0D        		.uleb128 0xd
 3208 0922 0000 0895 		.long	0x895
 3209 0926 BE        		.byte	0xbe
 3210 0927 07        		.byte	0x7
 3211 0928 05        		.uleb128 0x5
 3212 0929 03        		.byte	0x3
 3213 092a 0000 0000 		.long	com0in
 3214 092e 0D        		.uleb128 0xd
 3215 092f 0000 08A5 		.long	0x8a5
 3216 0933 BF        		.byte	0xbf
 3217 0934 07        		.byte	0x7
 3218 0935 05        		.uleb128 0x5
 3219 0936 03        		.byte	0x3
 3220 0937 0000 0000 		.long	com0out
 3221 093b 0D        		.uleb128 0xd
 3222 093c 0000 08B0 		.long	0x8b0
 3223 0940 C0        		.byte	0xc0
 3224 0941 07        		.byte	0x7
 3225 0942 05        		.uleb128 0x5
 3226 0943 03        		.byte	0x3
 3227 0944 0000 0000 		.long	com1in
 3228 0948 0D        		.uleb128 0xd
 3229 0949 0000 08BB 		.long	0x8bb
 3230 094d C1        		.byte	0xc1
 3231 094e 07        		.byte	0x7
 3232 094f 05        		.uleb128 0x5
 3233 0950 03        		.byte	0x3
 3234 0951 0000 0000 		.long	com1out
 3235 0955 3E        		.uleb128 0x3e
 3236 0956 0000 0000 		.long	.LASF129
 3237 095a 07        		.byte	0x7
 3238 095b 0159      		.word	0x159
 3239 095d 08        		.byte	0x8
 3240 095e 0000 08A0 		.long	0x8a0
 3241 0962 0000 0971 		.long	0x971
 3242 0966 06        		.uleb128 0x6
 3243 0967 0000 0091 		.long	0x91
 3244 096b 06        		.uleb128 0x6
 3245 096c 0000 04C8 		.long	0x4c8
 3246 0970 00        		.byte	0
 3247 0971 21        		.uleb128 0x21


 3248 0972 0000 0000 		.long	.LASF126
 3249 0976 38        		.byte	0x38
 3250 0977 0000 097D 		.long	0x97d
 3251 097b 18        		.uleb128 0x18
 3252 097c 00        		.byte	0
 3253 097d 21        		.uleb128 0x21
 3254 097e 0000 0000 		.long	.LASF127
 3255 0982 37        		.byte	0x37
 3256 0983 0000 0989 		.long	0x989
 3257 0987 18        		.uleb128 0x18
 3258 0988 00        		.byte	0
 3259 0989 21        		.uleb128 0x21
 3260 098a 0000 0000 		.long	.LASF128
 3261 098e 3A        		.byte	0x3a
 3262 098f 0000 0995 		.long	0x995
 3263 0993 18        		.uleb128 0x18
 3264 0994 00        		.byte	0
 3265 0995 3F        		.uleb128 0x3f
 3266 0996 0000 0000 		.long	.LASF130
 3267 099a 07        		.byte	0x7
 3268 099b CE        		.byte	0xce
 3269 099c 05        		.byte	0x5
 3270 099d 0000 0091 		.long	0x91
 3271 09a1 0000 09AC 		.long	0x9ac
 3272 09a5 06        		.uleb128 0x6
 3273 09a6 0000 04C8 		.long	0x4c8
 3274 09aa 18        		.uleb128 0x18
 3275 09ab 00        		.byte	0
 3276 09ac 40        		.uleb128 0x40
 3277 09ad 0000 0000 		.long	.LASF154
 3278 09b1 09        		.byte	0x9
 3279 09b2 12        		.byte	0x12
 3280 09b3 0D        		.byte	0xd
 3281 09b4 22        		.uleb128 0x22
 3282 09b5 0000 0000 		.long	.LASF146
 3283 09b9 C3        		.byte	0xc3
 3284 09ba 0000 0000 		.long	.LFB15
 3285 09be 0000 0058 		.long	.LFE15-.LFB15
 3286 09c2 01        		.uleb128 0x1
 3287 09c3 9C        		.byte	0x9c
 3288 09c4 0000 09ED 		.long	0x9ed
 3289 09c8 0E        		.uleb128 0xe
 3290 09c9 0000 0000 		.long	.LVL145
 3291 09cd 0000 0955 		.long	0x955
 3292 09d1 0E        		.uleb128 0xe
 3293 09d2 0000 0000 		.long	.LVL146
 3294 09d6 0000 0955 		.long	0x955
 3295 09da 0E        		.uleb128 0xe
 3296 09db 0000 0000 		.long	.LVL147
 3297 09df 0000 0955 		.long	0x955
 3298 09e3 0E        		.uleb128 0xe
 3299 09e4 0000 0000 		.long	.LVL148
 3300 09e8 0000 0955 		.long	0x955
 3301 09ec 00        		.byte	0
 3302 09ed 1C        		.uleb128 0x1c
 3303 09ee 0000 0000 		.long	.LASF133
 3304 09f2 AF        		.byte	0xaf


 3305 09f3 0000 0000 		.long	.LFB14
 3306 09f7 0000 013E 		.long	.LFE14-.LFB14
 3307 09fb 01        		.uleb128 0x1
 3308 09fc 9C        		.byte	0x9c
 3309 09fd 0000 0AF1 		.long	0xaf1
 3310 0a01 2A        		.uleb128 0x2a
 3311 0a02 6368 00   		.string	"ch"
 3312 0a05 AF        		.byte	0xaf
 3313 0a06 11        		.byte	0x11
 3314 0a07 0000 0091 		.long	0x91
 3315 0a0b 02        		.uleb128 0x2
 3316 0a0c 91        		.byte	0x91
 3317 0a0d 00        		.sleb128 0
 3318 0a0e 1D        		.uleb128 0x1d
 3319 0a0f 0000 0000 		.long	.LASF131
 3320 0a13 B1        		.byte	0xb1
 3321 0a14 15        		.byte	0x15
 3322 0a15 0000 0AF1 		.long	0xaf1
 3323 0a19 0000 0000 		.long	.LLST51
 3324 0a1d 0000 0000 		.long	.LVUS51
 3325 0a21 1D        		.uleb128 0x1d
 3326 0a22 0000 0000 		.long	.LASF132
 3327 0a26 B2        		.byte	0xb2
 3328 0a27 12        		.byte	0x12
 3329 0a28 0000 071F 		.long	0x71f
 3330 0a2c 0000 0000 		.long	.LLST52
 3331 0a30 0000 0000 		.long	.LVUS52
 3332 0a34 13        		.uleb128 0x13
 3333 0a35 0000 0DE6 		.long	0xde6
 3334 0a39 0000 0000 		.long	.LBI97
 3335 0a3d 00        		.byte	.LVU384
 3336 0a3e 0000 0000 		.long	.LLRL53
 3337 0a42 B2        		.byte	0xb2
 3338 0a43 22        		.byte	0x22
 3339 0a44 0000 0AB5 		.long	0xab5
 3340 0a48 05        		.uleb128 0x5
 3341 0a49 0000 0DF5 		.long	0xdf5
 3342 0a4d 0000 0000 		.long	.LLST54
 3343 0a51 0000 0000 		.long	.LVUS54
 3344 0a55 0F        		.uleb128 0xf
 3345 0a56 0000 0000 		.long	.LLRL53
 3346 0a5a 03        		.uleb128 0x3
 3347 0a5b 0000 0E00 		.long	0xe00
 3348 0a5f 0000 0000 		.long	.LLST55
 3349 0a63 0000 0000 		.long	.LVUS55
 3350 0a67 14        		.uleb128 0x14
 3351 0a68 0000 0E0B 		.long	0xe0b
 3352 0a6c 0000 0000 		.long	.LLRL56
 3353 0a70 0000 0A82 		.long	0xa82
 3354 0a74 03        		.uleb128 0x3
 3355 0a75 0000 0E0C 		.long	0xe0c
 3356 0a79 0000 0000 		.long	.LLST57
 3357 0a7d 0000 0000 		.long	.LVUS57
 3358 0a81 00        		.byte	0
 3359 0a82 15        		.uleb128 0x15
 3360 0a83 0000 0DE6 		.long	0xde6
 3361 0a87 0000 0000 		.long	.LBI100


 3362 0a8b 01        		.byte	.LVU394
 3363 0a8c 0000 0000 		.long	.LLRL58
 3364 0a90 60        		.byte	0x60
 3365 0a91 0E        		.byte	0xe
 3366 0a92 05        		.uleb128 0x5
 3367 0a93 0000 0DF5 		.long	0xdf5
 3368 0a97 0000 0000 		.long	.LLST59
 3369 0a9b 0000 0000 		.long	.LVUS59
 3370 0a9f 0F        		.uleb128 0xf
 3371 0aa0 0000 0000 		.long	.LLRL58
 3372 0aa4 03        		.uleb128 0x3
 3373 0aa5 0000 0E00 		.long	0xe00
 3374 0aa9 0000 0000 		.long	.LLST60
 3375 0aad 0000 0000 		.long	.LVUS60
 3376 0ab1 00        		.byte	0
 3377 0ab2 00        		.byte	0
 3378 0ab3 00        		.byte	0
 3379 0ab4 00        		.byte	0
 3380 0ab5 19        		.uleb128 0x19
 3381 0ab6 0000 0E1C 		.long	0xe1c
 3382 0aba 0000 0000 		.long	.LBI108
 3383 0abe 01        		.byte	.LVU423
 3384 0abf 0000 0000 		.long	.LBB108
 3385 0ac3 0000 0040 		.long	.LBE108-.LBB108
 3386 0ac7 B9        		.byte	0xb9
 3387 0ac8 05        		.uleb128 0x5
 3388 0ac9 0000 0E31 		.long	0xe31
 3389 0acd 0000 0000 		.long	.LLST61
 3390 0ad1 0000 0000 		.long	.LVUS61
 3391 0ad5 05        		.uleb128 0x5
 3392 0ad6 0000 0E26 		.long	0xe26
 3393 0ada 0000 0000 		.long	.LLST62
 3394 0ade 0000 0000 		.long	.LVUS62
 3395 0ae2 03        		.uleb128 0x3
 3396 0ae3 0000 0E3C 		.long	0xe3c
 3397 0ae7 0000 0000 		.long	.LLST63
 3398 0aeb 0000 0000 		.long	.LVUS63
 3399 0aef 00        		.byte	0
 3400 0af0 00        		.byte	0
 3401 0af1 04        		.uleb128 0x4
 3402 0af2 0000 0767 		.long	0x767
 3403 0af6 1C        		.uleb128 0x1c
 3404 0af7 0000 0000 		.long	.LASF134
 3405 0afb A2        		.byte	0xa2
 3406 0afc 0000 0000 		.long	.LFB13
 3407 0b00 0000 0154 		.long	.LFE13-.LFB13
 3408 0b04 01        		.uleb128 0x1
 3409 0b05 9C        		.byte	0x9c
 3410 0b06 0000 0BFB 		.long	0xbfb
 3411 0b0a 2A        		.uleb128 0x2a
 3412 0b0b 6368 00   		.string	"ch"
 3413 0b0e A2        		.byte	0xa2
 3414 0b0f 10        		.byte	0x10
 3415 0b10 0000 0091 		.long	0x91
 3416 0b14 02        		.uleb128 0x2
 3417 0b15 91        		.byte	0x91
 3418 0b16 00        		.sleb128 0


 3419 0b17 1D        		.uleb128 0x1d
 3420 0b18 0000 0000 		.long	.LASF131
 3421 0b1c A4        		.byte	0xa4
 3422 0b1d 15        		.byte	0x15
 3423 0b1e 0000 0AF1 		.long	0xaf1
 3424 0b22 0000 0000 		.long	.LLST39
 3425 0b26 0000 0000 		.long	.LVUS39
 3426 0b2a 13        		.uleb128 0x13
 3427 0b2b 0000 0DDD 		.long	0xddd
 3428 0b2f 0000 0000 		.long	.LBI75
 3429 0b33 01        		.byte	.LVU295
 3430 0b34 0000 0000 		.long	.LLRL40
 3431 0b38 AB        		.byte	0xab
 3432 0b39 05        		.byte	0x5
 3433 0b3a 0000 0BB1 		.long	0xbb1
 3434 0b3e 15        		.uleb128 0x15
 3435 0b3f 0000 0DE6 		.long	0xde6
 3436 0b43 0000 0000 		.long	.LBI77
 3437 0b47 00        		.byte	.LVU299
 3438 0b48 0000 0000 		.long	.LLRL41
 3439 0b4c 7A        		.byte	0x7a
 3440 0b4d 11        		.byte	0x11
 3441 0b4e 05        		.uleb128 0x5
 3442 0b4f 0000 0DF5 		.long	0xdf5
 3443 0b53 0000 0000 		.long	.LLST42
 3444 0b57 0000 0000 		.long	.LVUS42
 3445 0b5b 0F        		.uleb128 0xf
 3446 0b5c 0000 0000 		.long	.LLRL41
 3447 0b60 03        		.uleb128 0x3
 3448 0b61 0000 0E00 		.long	0xe00
 3449 0b65 0000 0000 		.long	.LLST43
 3450 0b69 0000 0000 		.long	.LVUS43
 3451 0b6d 14        		.uleb128 0x14
 3452 0b6e 0000 0E0B 		.long	0xe0b
 3453 0b72 0000 0000 		.long	.LLRL44
 3454 0b76 0000 0B88 		.long	0xb88
 3455 0b7a 03        		.uleb128 0x3
 3456 0b7b 0000 0E0C 		.long	0xe0c
 3457 0b7f 0000 0000 		.long	.LLST45
 3458 0b83 0000 0000 		.long	.LVUS45
 3459 0b87 00        		.byte	0
 3460 0b88 19        		.uleb128 0x19
 3461 0b89 0000 0DE6 		.long	0xde6
 3462 0b8d 0000 0000 		.long	.LBI80
 3463 0b91 01        		.byte	.LVU308
 3464 0b92 0000 0000 		.long	.LBB80
 3465 0b96 0000 0010 		.long	.LBE80-.LBB80
 3466 0b9a 60        		.byte	0x60
 3467 0b9b 41        		.uleb128 0x41
 3468 0b9c 0000 0DF5 		.long	0xdf5
 3469 0ba0 03        		.uleb128 0x3
 3470 0ba1 0000 0E00 		.long	0xe00
 3471 0ba5 0000 0000 		.long	.LLST46
 3472 0ba9 0000 0000 		.long	.LVUS46
 3473 0bad 00        		.byte	0
 3474 0bae 00        		.byte	0
 3475 0baf 00        		.byte	0


 3476 0bb0 00        		.byte	0
 3477 0bb1 23        		.uleb128 0x23
 3478 0bb2 0000 0E1C 		.long	0xe1c
 3479 0bb6 0000 0000 		.long	.LBI86
 3480 0bba 01        		.byte	.LVU324
 3481 0bbb 0000 0000 		.long	.LBB86
 3482 0bbf 0000 0046 		.long	.LBE86-.LBB86
 3483 0bc3 A9        		.byte	0xa9
 3484 0bc4 0A        		.byte	0xa
 3485 0bc5 0000 0BF1 		.long	0xbf1
 3486 0bc9 05        		.uleb128 0x5
 3487 0bca 0000 0E31 		.long	0xe31
 3488 0bce 0000 0000 		.long	.LLST47
 3489 0bd2 0000 0000 		.long	.LVUS47
 3490 0bd6 05        		.uleb128 0x5
 3491 0bd7 0000 0E26 		.long	0xe26
 3492 0bdb 0000 0000 		.long	.LLST48
 3493 0bdf 0000 0000 		.long	.LVUS48
 3494 0be3 03        		.uleb128 0x3
 3495 0be4 0000 0E3C 		.long	0xe3c
 3496 0be8 0000 0000 		.long	.LLST49
 3497 0bec 0000 0000 		.long	.LVUS49
 3498 0bf0 00        		.byte	0
 3499 0bf1 10        		.uleb128 0x10
 3500 0bf2 0000 0000 		.long	.LVL81
 3501 0bf6 0000 0971 		.long	0x971
 3502 0bfa 00        		.byte	0
 3503 0bfb 24        		.uleb128 0x24
 3504 0bfc 0000 0000 		.long	.LASF137
 3505 0c00 98        		.byte	0x98
 3506 0c01 0000 0C1B 		.long	0xc1b
 3507 0c05 25        		.uleb128 0x25
 3508 0c06 4944 00   		.string	"ID"
 3509 0c09 98        		.byte	0x98
 3510 0c0a 11        		.byte	0x11
 3511 0c0b 0000 0091 		.long	0x91
 3512 0c0f 11        		.uleb128 0x11
 3513 0c10 0000 0000 		.long	.LASF131
 3514 0c14 9C        		.byte	0x9c
 3515 0c15 15        		.byte	0x15
 3516 0c16 0000 0AF1 		.long	0xaf1
 3517 0c1a 00        		.byte	0
 3518 0c1b 1C        		.uleb128 0x1c
 3519 0c1c 0000 0000 		.long	.LASF135
 3520 0c20 89        		.byte	0x89
 3521 0c21 0000 0000 		.long	.LFB11
 3522 0c25 0000 01B0 		.long	.LFE11-.LFB11
 3523 0c29 01        		.uleb128 0x1
 3524 0c2a 9C        		.byte	0x9c
 3525 0c2b 0000 0DBD 		.long	0xdbd
 3526 0c2f 2B        		.uleb128 0x2b
 3527 0c30 0000 0000 		.long	.LASF136
 3528 0c34 89        		.byte	0x89
 3529 0c35 23        		.byte	0x23
 3530 0c36 0000 072B 		.long	0x72b
 3531 0c3a 02        		.uleb128 0x2
 3532 0c3b 91        		.byte	0x91


 3533 0c3c 00        		.sleb128 0
 3534 0c3d 12        		.uleb128 0x12
 3535 0c3e 7370 00   		.string	"sp"
 3536 0c41 8A        		.byte	0x8a
 3537 0c42 15        		.byte	0x15
 3538 0c43 0000 0AF1 		.long	0xaf1
 3539 0c47 0000 0000 		.long	.LLST65
 3540 0c4b 0000 0000 		.long	.LVUS65
 3541 0c4f 42        		.uleb128 0x42
 3542 0c50 0000 0000 		.long	.LLRL66
 3543 0c54 0000 0D82 		.long	0xd82
 3544 0c58 12        		.uleb128 0x12
 3545 0c59 6B00      		.string	"k"
 3546 0c5b 8F        		.byte	0x8f
 3547 0c5c 0B        		.byte	0xb
 3548 0c5d 0000 0091 		.long	0x91
 3549 0c61 0000 0000 		.long	.LLST67
 3550 0c65 0000 0000 		.long	.LVUS67
 3551 0c69 13        		.uleb128 0x13
 3552 0c6a 0000 0BFB 		.long	0xbfb
 3553 0c6e 0000 0000 		.long	.LBI127
 3554 0c72 02        		.byte	.LVU478
 3555 0c73 0000 0000 		.long	.LLRL68
 3556 0c77 90        		.byte	0x90
 3557 0c78 06        		.byte	0x6
 3558 0c79 0000 0CA7 		.long	0xca7
 3559 0c7d 05        		.uleb128 0x5
 3560 0c7e 0000 0C05 		.long	0xc05
 3561 0c82 0000 0000 		.long	.LLST69
 3562 0c86 0000 0000 		.long	.LVUS69
 3563 0c8a 0F        		.uleb128 0xf
 3564 0c8b 0000 0000 		.long	.LLRL68
 3565 0c8f 03        		.uleb128 0x3
 3566 0c90 0000 0C0F 		.long	0xc0f
 3567 0c94 0000 0000 		.long	.LLST70
 3568 0c98 0000 0000 		.long	.LVUS70
 3569 0c9c 0E        		.uleb128 0xe
 3570 0c9d 0000 0000 		.long	.LVL131
 3571 0ca1 0000 09ED 		.long	0x9ed
 3572 0ca5 00        		.byte	0
 3573 0ca6 00        		.byte	0
 3574 0ca7 13        		.uleb128 0x13
 3575 0ca8 0000 0E1C 		.long	0xe1c
 3576 0cac 0000 0000 		.long	.LBI134
 3577 0cb0 00        		.byte	.LVU489
 3578 0cb1 0000 0000 		.long	.LLRL71
 3579 0cb5 91        		.byte	0x91
 3580 0cb6 02        		.byte	0x2
 3581 0cb7 0000 0CE9 		.long	0xce9
 3582 0cbb 05        		.uleb128 0x5
 3583 0cbc 0000 0E31 		.long	0xe31
 3584 0cc0 0000 0000 		.long	.LLST72
 3585 0cc4 0000 0000 		.long	.LVUS72
 3586 0cc8 05        		.uleb128 0x5
 3587 0cc9 0000 0E26 		.long	0xe26
 3588 0ccd 0000 0000 		.long	.LLST73
 3589 0cd1 0000 0000 		.long	.LVUS73


 3590 0cd5 0F        		.uleb128 0xf
 3591 0cd6 0000 0000 		.long	.LLRL71
 3592 0cda 03        		.uleb128 0x3
 3593 0cdb 0000 0E3C 		.long	0xe3c
 3594 0cdf 0000 0000 		.long	.LLST74
 3595 0ce3 0000 0000 		.long	.LVUS74
 3596 0ce7 00        		.byte	0
 3597 0ce8 00        		.byte	0
 3598 0ce9 13        		.uleb128 0x13
 3599 0cea 0000 0DDD 		.long	0xddd
 3600 0cee 0000 0000 		.long	.LBI138
 3601 0cf2 02        		.byte	.LVU508
 3602 0cf3 0000 0000 		.long	.LLRL75
 3603 0cf7 92        		.byte	0x92
 3604 0cf8 02        		.byte	0x2
 3605 0cf9 0000 0D78 		.long	0xd78
 3606 0cfd 15        		.uleb128 0x15
 3607 0cfe 0000 0DE6 		.long	0xde6
 3608 0d02 0000 0000 		.long	.LBI140
 3609 0d06 05        		.byte	.LVU511
 3610 0d07 0000 0000 		.long	.LLRL76
 3611 0d0b 7A        		.byte	0x7a
 3612 0d0c 11        		.byte	0x11
 3613 0d0d 05        		.uleb128 0x5
 3614 0d0e 0000 0DF5 		.long	0xdf5
 3615 0d12 0000 0000 		.long	.LLST77
 3616 0d16 0000 0000 		.long	.LVUS77
 3617 0d1a 0F        		.uleb128 0xf
 3618 0d1b 0000 0000 		.long	.LLRL76
 3619 0d1f 03        		.uleb128 0x3
 3620 0d20 0000 0E00 		.long	0xe00
 3621 0d24 0000 0000 		.long	.LLST78
 3622 0d28 0000 0000 		.long	.LVUS78
 3623 0d2c 14        		.uleb128 0x14
 3624 0d2d 0000 0E0B 		.long	0xe0b
 3625 0d31 0000 0000 		.long	.LLRL79
 3626 0d35 0000 0D47 		.long	0xd47
 3627 0d39 03        		.uleb128 0x3
 3628 0d3a 0000 0E0C 		.long	0xe0c
 3629 0d3e 0000 0000 		.long	.LLST80
 3630 0d42 0000 0000 		.long	.LVUS80
 3631 0d46 00        		.byte	0
 3632 0d47 19        		.uleb128 0x19
 3633 0d48 0000 0DE6 		.long	0xde6
 3634 0d4c 0000 0000 		.long	.LBI143
 3635 0d50 01        		.byte	.LVU521
 3636 0d51 0000 0000 		.long	.LBB143
 3637 0d55 0000 0010 		.long	.LBE143-.LBB143
 3638 0d59 60        		.byte	0x60
 3639 0d5a 05        		.uleb128 0x5
 3640 0d5b 0000 0DF5 		.long	0xdf5
 3641 0d5f 0000 0000 		.long	.LLST81
 3642 0d63 0000 0000 		.long	.LVUS81
 3643 0d67 03        		.uleb128 0x3
 3644 0d68 0000 0E00 		.long	0xe00
 3645 0d6c 0000 0000 		.long	.LLST82
 3646 0d70 0000 0000 		.long	.LVUS82


 3647 0d74 00        		.byte	0
 3648 0d75 00        		.byte	0
 3649 0d76 00        		.byte	0
 3650 0d77 00        		.byte	0
 3651 0d78 0E        		.uleb128 0xe
 3652 0d79 0000 0000 		.long	.LVL135
 3653 0d7d 0000 0971 		.long	0x971
 3654 0d81 00        		.byte	0
 3655 0d82 15        		.uleb128 0x15
 3656 0d83 0000 0DBD 		.long	0xdbd
 3657 0d87 0000 0000 		.long	.LBI155
 3658 0d8b 02        		.byte	.LVU535
 3659 0d8c 0000 0000 		.long	.LLRL83
 3660 0d90 8D        		.byte	0x8d
 3661 0d91 09        		.byte	0x9
 3662 0d92 05        		.uleb128 0x5
 3663 0d93 0000 0DC7 		.long	0xdc7
 3664 0d97 0000 0000 		.long	.LLST84
 3665 0d9b 0000 0000 		.long	.LVUS84
 3666 0d9f 0F        		.uleb128 0xf
 3667 0da0 0000 0000 		.long	.LLRL83
 3668 0da4 03        		.uleb128 0x3
 3669 0da5 0000 0DD1 		.long	0xdd1
 3670 0da9 0000 0000 		.long	.LLST85
 3671 0dad 0000 0000 		.long	.LVUS85
 3672 0db1 10        		.uleb128 0x10
 3673 0db2 0000 0000 		.long	.LVL144
 3674 0db6 0000 0AF6 		.long	0xaf6
 3675 0dba 00        		.byte	0
 3676 0dbb 00        		.byte	0
 3677 0dbc 00        		.byte	0
 3678 0dbd 24        		.uleb128 0x24
 3679 0dbe 0000 0000 		.long	.LASF138
 3680 0dc2 7F        		.byte	0x7f
 3681 0dc3 0000 0DDD 		.long	0xddd
 3682 0dc7 25        		.uleb128 0x25
 3683 0dc8 4944 00   		.string	"ID"
 3684 0dcb 7F        		.byte	0x7f
 3685 0dcc 11        		.byte	0x11
 3686 0dcd 0000 0091 		.long	0x91
 3687 0dd1 11        		.uleb128 0x11
 3688 0dd2 0000 0000 		.long	.LASF131
 3689 0dd6 83        		.byte	0x83
 3690 0dd7 15        		.byte	0x15
 3691 0dd8 0000 0AF1 		.long	0xaf1
 3692 0ddc 00        		.byte	0
 3693 0ddd 43        		.uleb128 0x43
 3694 0dde 0000 0000 		.long	.LASF155
 3695 0de2 01        		.byte	0x1
 3696 0de3 78        		.byte	0x78
 3697 0de4 06        		.byte	0x6
 3698 0de5 01        		.byte	0x1
 3699 0de6 2C        		.uleb128 0x2c
 3700 0de7 0000 0000 		.long	.LASF139
 3701 0deb 60        		.byte	0x60
 3702 0dec 0E        		.byte	0xe
 3703 0ded 0000 071F 		.long	0x71f


 3704 0df1 0000 0E17 		.long	0xe17
 3705 0df5 26        		.uleb128 0x26
 3706 0df6 0000 0000 		.long	.LASF140
 3707 0dfa 60        		.byte	0x60
 3708 0dfb 20        		.byte	0x20
 3709 0dfc 0000 0E17 		.long	0xe17
 3710 0e00 11        		.uleb128 0x11
 3711 0e01 0000 0000 		.long	.LASF141
 3712 0e05 61        		.byte	0x61
 3713 0e06 12        		.byte	0x12
 3714 0e07 0000 071F 		.long	0x71f
 3715 0e0b 44        		.uleb128 0x44
 3716 0e0c 1E        		.uleb128 0x1e
 3717 0e0d 6900      		.string	"i"
 3718 0e0f 63        		.byte	0x63
 3719 0e10 0E        		.byte	0xe
 3720 0e11 0000 0091 		.long	0x91
 3721 0e15 00        		.byte	0
 3722 0e16 00        		.byte	0
 3723 0e17 04        		.uleb128 0x4
 3724 0e18 0000 07C9 		.long	0x7c9
 3725 0e1c 24        		.uleb128 0x24
 3726 0e1d 0000 0000 		.long	.LASF142
 3727 0e21 56        		.byte	0x56
 3728 0e22 0000 0E48 		.long	0xe48
 3729 0e26 26        		.uleb128 0x26
 3730 0e27 0000 0000 		.long	.LASF140
 3731 0e2b 56        		.byte	0x56
 3732 0e2c 15        		.byte	0x15
 3733 0e2d 0000 0E17 		.long	0xe17
 3734 0e31 26        		.uleb128 0x26
 3735 0e32 0000 0000 		.long	.LASF141
 3736 0e36 56        		.byte	0x56
 3737 0e37 29        		.byte	0x29
 3738 0e38 0000 071F 		.long	0x71f
 3739 0e3c 1E        		.uleb128 0x1e
 3740 0e3d 6375 7200 		.string	"cur"
 3741 0e41 59        		.byte	0x59
 3742 0e42 0F        		.byte	0xf
 3743 0e43 0000 0E17 		.long	0xe17
 3744 0e47 00        		.byte	0
 3745 0e48 2C        		.uleb128 0x2c
 3746 0e49 0000 0000 		.long	.LASF143
 3747 0e4d 49        		.byte	0x49
 3748 0e4e 07        		.byte	0x7
 3749 0e4f 0000 010F 		.long	0x10f
 3750 0e53 0000 0E8E 		.long	0xe8e
 3751 0e57 25        		.uleb128 0x25
 3752 0e58 6964 00   		.string	"id"
 3753 0e5b 49        		.byte	0x49
 3754 0e5c 1F        		.byte	0x1f
 3755 0e5d 0000 071F 		.long	0x71f
 3756 0e61 11        		.uleb128 0x11
 3757 0e62 0000 0000 		.long	.LASF144
 3758 0e66 4A        		.byte	0x4a
 3759 0e67 0B        		.byte	0xb
 3760 0e68 0000 0494 		.long	0x494


 3761 0e6c 11        		.uleb128 0x11
 3762 0e6d 0000 0000 		.long	.LASF113
 3763 0e71 4B        		.byte	0x4b
 3764 0e72 0B        		.byte	0xb
 3765 0e73 0000 0494 		.long	0x494
 3766 0e77 1E        		.uleb128 0x1e
 3767 0e78 7373 7000 		.string	"ssp"
 3768 0e7c 4C        		.byte	0x4c
 3769 0e7d 0A        		.byte	0xa
 3770 0e7e 0000 0E8E 		.long	0xe8e
 3771 0e82 11        		.uleb128 0x11
 3772 0e83 0000 0000 		.long	.LASF145
 3773 0e87 4E        		.byte	0x4e
 3774 0e88 0C        		.byte	0xc
 3775 0e89 0000 0E93 		.long	0xe93
 3776 0e8d 00        		.byte	0
 3777 0e8e 04        		.uleb128 0x4
 3778 0e8f 0000 0091 		.long	0x91
 3779 0e93 04        		.uleb128 0x4
 3780 0e94 0000 0034 		.long	0x34
 3781 0e98 22        		.uleb128 0x22
 3782 0e99 0000 0000 		.long	.LASF147
 3783 0e9d 41        		.byte	0x41
 3784 0e9e 0000 0000 		.long	.LFB5
 3785 0ea2 0000 00C2 		.long	.LFE5-.LFB5
 3786 0ea6 01        		.uleb128 0x1
 3787 0ea7 9C        		.byte	0x9c
 3788 0ea8 0000 0F61 		.long	0xf61
 3789 0eac 13        		.uleb128 0x13
 3790 0ead 0000 0DE6 		.long	0xde6
 3791 0eb1 0000 0000 		.long	.LBI32
 3792 0eb5 00        		.byte	.LVU118
 3793 0eb6 0000 0000 		.long	.LLRL14
 3794 0eba 42        		.byte	0x42
 3795 0ebb 11        		.byte	0x11
 3796 0ebc 0000 0F2A 		.long	0xf2a
 3797 0ec0 05        		.uleb128 0x5
 3798 0ec1 0000 0DF5 		.long	0xdf5
 3799 0ec5 0000 0000 		.long	.LLST15
 3800 0ec9 0000 0000 		.long	.LVUS15
 3801 0ecd 0F        		.uleb128 0xf
 3802 0ece 0000 0000 		.long	.LLRL14
 3803 0ed2 03        		.uleb128 0x3
 3804 0ed3 0000 0E00 		.long	0xe00
 3805 0ed7 0000 0000 		.long	.LLST16
 3806 0edb 0000 0000 		.long	.LVUS16
 3807 0edf 14        		.uleb128 0x14
 3808 0ee0 0000 0E0B 		.long	0xe0b
 3809 0ee4 0000 0000 		.long	.LLRL17
 3810 0ee8 0000 0EFA 		.long	0xefa
 3811 0eec 03        		.uleb128 0x3
 3812 0eed 0000 0E0C 		.long	0xe0c
 3813 0ef1 0000 0000 		.long	.LLST18
 3814 0ef5 0000 0000 		.long	.LVUS18
 3815 0ef9 00        		.byte	0
 3816 0efa 19        		.uleb128 0x19
 3817 0efb 0000 0DE6 		.long	0xde6


 3818 0eff 0000 0000 		.long	.LBI35
 3819 0f03 01        		.byte	.LVU130
 3820 0f04 0000 0000 		.long	.LBB35
 3821 0f08 0000 0016 		.long	.LBE35-.LBB35
 3822 0f0c 60        		.byte	0x60
 3823 0f0d 05        		.uleb128 0x5
 3824 0f0e 0000 0DF5 		.long	0xdf5
 3825 0f12 0000 0000 		.long	.LLST19
 3826 0f16 0000 0000 		.long	.LVUS19
 3827 0f1a 03        		.uleb128 0x3
 3828 0f1b 0000 0E00 		.long	0xe00
 3829 0f1f 0000 0000 		.long	.LLST20
 3830 0f23 0000 0000 		.long	.LVUS20
 3831 0f27 00        		.byte	0
 3832 0f28 00        		.byte	0
 3833 0f29 00        		.byte	0
 3834 0f2a 0E        		.uleb128 0xe
 3835 0f2b 0000 0000 		.long	.LVL35
 3836 0f2f 0000 0989 		.long	0x989
 3837 0f33 0E        		.uleb128 0xe
 3838 0f34 0000 0000 		.long	.LVL36
 3839 0f38 0000 12FC 		.long	0x12fc
 3840 0f3c 10        		.uleb128 0x10
 3841 0f3d 0000 0000 		.long	.LVL37
 3842 0f41 0000 097D 		.long	0x97d
 3843 0f45 0E        		.uleb128 0xe
 3844 0f46 0000 0000 		.long	.LVL40
 3845 0f4a 0000 0989 		.long	0x989
 3846 0f4e 0E        		.uleb128 0xe
 3847 0f4f 0000 0000 		.long	.LVL41
 3848 0f53 0000 12FC 		.long	0x12fc
 3849 0f57 10        		.uleb128 0x10
 3850 0f58 0000 0000 		.long	.LVL43
 3851 0f5c 0000 097D 		.long	0x97d
 3852 0f60 00        		.byte	0
 3853 0f61 1C        		.uleb128 0x1c
 3854 0f62 0000 0000 		.long	.LASF148
 3855 0f66 27        		.byte	0x27
 3856 0f67 0000 0000 		.long	.LFB4
 3857 0f6b 0000 010C 		.long	.LFE4-.LFB4
 3858 0f6f 01        		.uleb128 0x1
 3859 0f70 9C        		.byte	0x9c
 3860 0f71 0000 109B 		.long	0x109b
 3861 0f75 2B        		.uleb128 0x2b
 3862 0f76 0000 0000 		.long	.LASF106
 3863 0f7a 27        		.byte	0x27
 3864 0f7b 16        		.byte	0x16
 3865 0f7c 0000 07C4 		.long	0x7c4
 3866 0f80 02        		.uleb128 0x2
 3867 0f81 91        		.byte	0x91
 3868 0f82 00        		.sleb128 0
 3869 0f83 1D        		.uleb128 0x1d
 3870 0f84 0000 0000 		.long	.LASF141
 3871 0f88 29        		.byte	0x29
 3872 0f89 12        		.byte	0x12
 3873 0f8a 0000 071F 		.long	0x71f
 3874 0f8e 0000 0000 		.long	.LLST2


 3875 0f92 0000 0000 		.long	.LVUS2
 3876 0f96 12        		.uleb128 0x12
 3877 0f97 7463 6200 		.string	"tcb"
 3878 0f9b 34        		.byte	0x34
 3879 0f9c 0F        		.byte	0xf
 3880 0f9d 0000 0E17 		.long	0xe17
 3881 0fa1 0000 0000 		.long	.LLST3
 3882 0fa5 0000 0000 		.long	.LVUS3
 3883 0fa9 2D        		.uleb128 0x2d
 3884 0faa 0000 0000 		.long	.LBB20
 3885 0fae 0000 001C 		.long	.LBE20-.LBB20
 3886 0fb2 0000 0FE5 		.long	0xfe5
 3887 0fb6 12        		.uleb128 0x12
 3888 0fb7 6900      		.string	"i"
 3889 0fb9 2A        		.byte	0x2a
 3890 0fba 0E        		.byte	0xe
 3891 0fbb 0000 0091 		.long	0x91
 3892 0fbf 0000 0000 		.long	.LLST4
 3893 0fc3 0000 0000 		.long	.LVUS4
 3894 0fc7 1F        		.uleb128 0x1f
 3895 0fc8 0000 0000 		.long	.LBB21
 3896 0fcc 0000 000A 		.long	.LBE21-.LBB21
 3897 0fd0 12        		.uleb128 0x12
 3898 0fd1 7463 6200 		.string	"tcb"
 3899 0fd5 2B        		.byte	0x2b
 3900 0fd6 13        		.byte	0x13
 3901 0fd7 0000 0E17 		.long	0xe17
 3902 0fdb 0000 0000 		.long	.LLST5
 3903 0fdf 0000 0000 		.long	.LVUS5
 3904 0fe3 00        		.byte	0
 3905 0fe4 00        		.byte	0
 3906 0fe5 23        		.uleb128 0x23
 3907 0fe6 0000 0E48 		.long	0xe48
 3908 0fea 0000 0000 		.long	.LBI22
 3909 0fee 01        		.byte	.LVU61
 3910 0fef 0000 0000 		.long	.LBB22
 3911 0ff3 0000 0020 		.long	.LBE22-.LBB22
 3912 0ff7 37        		.byte	0x37
 3913 0ff8 16        		.byte	0x16
 3914 0ff9 0000 103F 		.long	0x103f
 3915 0ffd 05        		.uleb128 0x5
 3916 0ffe 0000 0E57 		.long	0xe57
 3917 1002 0000 0000 		.long	.LLST6
 3918 1006 0000 0000 		.long	.LVUS6
 3919 100a 03        		.uleb128 0x3
 3920 100b 0000 0E61 		.long	0xe61
 3921 100f 0000 0000 		.long	.LLST7
 3922 1013 0000 0000 		.long	.LVUS7
 3923 1017 03        		.uleb128 0x3
 3924 1018 0000 0E6C 		.long	0xe6c
 3925 101c 0000 0000 		.long	.LLST8
 3926 1020 0000 0000 		.long	.LVUS8
 3927 1024 03        		.uleb128 0x3
 3928 1025 0000 0E77 		.long	0xe77
 3929 1029 0000 0000 		.long	.LLST9
 3930 102d 0000 0000 		.long	.LVUS9
 3931 1031 03        		.uleb128 0x3


 3932 1032 0000 0E82 		.long	0xe82
 3933 1036 0000 0000 		.long	.LLST10
 3934 103a 0000 0000 		.long	.LVUS10
 3935 103e 00        		.byte	0
 3936 103f 23        		.uleb128 0x23
 3937 1040 0000 0E1C 		.long	0xe1c
 3938 1044 0000 0000 		.long	.LBI24
 3939 1048 01        		.byte	.LVU91
 3940 1049 0000 0000 		.long	.LBB24
 3941 104d 0000 0040 		.long	.LBE24-.LBB24
 3942 1051 3D        		.byte	0x3d
 3943 1052 0A        		.byte	0xa
 3944 1053 0000 107F 		.long	0x107f
 3945 1057 05        		.uleb128 0x5
 3946 1058 0000 0E31 		.long	0xe31
 3947 105c 0000 0000 		.long	.LLST11
 3948 1060 0000 0000 		.long	.LVUS11
 3949 1064 05        		.uleb128 0x5
 3950 1065 0000 0E26 		.long	0xe26
 3951 1069 0000 0000 		.long	.LLST12
 3952 106d 0000 0000 		.long	.LVUS12
 3953 1071 03        		.uleb128 0x3
 3954 1072 0000 0E3C 		.long	0xe3c
 3955 1076 0000 0000 		.long	.LLST13
 3956 107a 0000 0000 		.long	.LVUS13
 3957 107e 00        		.byte	0
 3958 107f 10        		.uleb128 0x10
 3959 1080 0000 0000 		.long	.LVL9
 3960 1084 0000 0995 		.long	0x995
 3961 1088 10        		.uleb128 0x10
 3962 1089 0000 0000 		.long	.LVL20
 3963 108d 0000 12FC 		.long	0x12fc
 3964 1091 10        		.uleb128 0x10
 3965 1092 0000 0000 		.long	.LVL28
 3966 1096 0000 12FC 		.long	0x12fc
 3967 109a 00        		.byte	0
 3968 109b 22        		.uleb128 0x22
 3969 109c 0000 0000 		.long	.LASF149
 3970 10a0 10        		.byte	0x10
 3971 10a1 0000 0000 		.long	.LFB3
 3972 10a5 0000 0052 		.long	.LFE3-.LFB3
 3973 10a9 01        		.uleb128 0x1
 3974 10aa 9C        		.byte	0x9c
 3975 10ab 0000 1114 		.long	0x1114
 3976 10af 2D        		.uleb128 0x2d
 3977 10b0 0000 0000 		.long	.LBB16
 3978 10b4 0000 0024 		.long	.LBE16-.LBB16
 3979 10b8 0000 10E3 		.long	0x10e3
 3980 10bc 12        		.uleb128 0x12
 3981 10bd 6900      		.string	"i"
 3982 10bf 12        		.byte	0x12
 3983 10c0 0E        		.byte	0xe
 3984 10c1 0000 0091 		.long	0x91
 3985 10c5 0000 0000 		.long	.LLST0
 3986 10c9 0000 0000 		.long	.LVUS0
 3987 10cd 1F        		.uleb128 0x1f
 3988 10ce 0000 0000 		.long	.LBB17


 3989 10d2 0000 0012 		.long	.LBE17-.LBB17
 3990 10d6 1E        		.uleb128 0x1e
 3991 10d7 7463 6200 		.string	"tcb"
 3992 10db 13        		.byte	0x13
 3993 10dc 13        		.byte	0x13
 3994 10dd 0000 0E17 		.long	0xe17
 3995 10e1 00        		.byte	0
 3996 10e2 00        		.byte	0
 3997 10e3 1F        		.uleb128 0x1f
 3998 10e4 0000 0000 		.long	.LBB18
 3999 10e8 0000 001E 		.long	.LBE18-.LBB18
 4000 10ec 12        		.uleb128 0x12
 4001 10ed 6900      		.string	"i"
 4002 10ef 1F        		.byte	0x1f
 4003 10f0 0E        		.byte	0xe
 4004 10f1 0000 0091 		.long	0x91
 4005 10f5 0000 0000 		.long	.LLST1
 4006 10f9 0000 0000 		.long	.LVUS1
 4007 10fd 1F        		.uleb128 0x1f
 4008 10fe 0000 0000 		.long	.LBB19
 4009 1102 0000 000C 		.long	.LBE19-.LBB19
 4010 1106 11        		.uleb128 0x11
 4011 1107 0000 0000 		.long	.LASF131
 4012 110b 20        		.byte	0x20
 4013 110c 19        		.byte	0x19
 4014 110d 0000 0AF1 		.long	0xaf1
 4015 1111 00        		.byte	0
 4016 1112 00        		.byte	0
 4017 1113 00        		.byte	0
 4018 1114 16        		.uleb128 0x16
 4019 1115 0000 0E48 		.long	0xe48
 4020 1119 0000 0000 		.long	.LFB6
 4021 111d 0000 0040 		.long	.LFE6-.LFB6
 4022 1121 01        		.uleb128 0x1
 4023 1122 9C        		.byte	0x9c
 4024 1123 0000 1164 		.long	0x1164
 4025 1127 17        		.uleb128 0x17
 4026 1128 0000 0E57 		.long	0xe57
 4027 112c 02        		.uleb128 0x2
 4028 112d 91        		.byte	0x91
 4029 112e 00        		.sleb128 0
 4030 112f 03        		.uleb128 0x3
 4031 1130 0000 0E61 		.long	0xe61
 4032 1134 0000 0000 		.long	.LLST21
 4033 1138 0000 0000 		.long	.LVUS21
 4034 113c 03        		.uleb128 0x3
 4035 113d 0000 0E6C 		.long	0xe6c
 4036 1141 0000 0000 		.long	.LLST22
 4037 1145 0000 0000 		.long	.LVUS22
 4038 1149 03        		.uleb128 0x3
 4039 114a 0000 0E77 		.long	0xe77
 4040 114e 0000 0000 		.long	.LLST23
 4041 1152 0000 0000 		.long	.LVUS23
 4042 1156 03        		.uleb128 0x3
 4043 1157 0000 0E82 		.long	0xe82
 4044 115b 0000 0000 		.long	.LLST24
 4045 115f 0000 0000 		.long	.LVUS24


 4046 1163 00        		.byte	0
 4047 1164 16        		.uleb128 0x16
 4048 1165 0000 0E1C 		.long	0xe1c
 4049 1169 0000 0000 		.long	.LFB7
 4050 116d 0000 0052 		.long	.LFE7-.LFB7
 4051 1171 01        		.uleb128 0x1
 4052 1172 9C        		.byte	0x9c
 4053 1173 0000 1195 		.long	0x1195
 4054 1177 17        		.uleb128 0x17
 4055 1178 0000 0E26 		.long	0xe26
 4056 117c 02        		.uleb128 0x2
 4057 117d 91        		.byte	0x91
 4058 117e 00        		.sleb128 0
 4059 117f 17        		.uleb128 0x17
 4060 1180 0000 0E31 		.long	0xe31
 4061 1184 02        		.uleb128 0x2
 4062 1185 91        		.byte	0x91
 4063 1186 04        		.sleb128 4
 4064 1187 03        		.uleb128 0x3
 4065 1188 0000 0E3C 		.long	0xe3c
 4066 118c 0000 0000 		.long	.LLST25
 4067 1190 0000 0000 		.long	.LVUS25
 4068 1194 00        		.byte	0
 4069 1195 16        		.uleb128 0x16
 4070 1196 0000 0DE6 		.long	0xde6
 4071 119a 0000 0000 		.long	.LFB8
 4072 119e 0000 007A 		.long	.LFE8-.LFB8
 4073 11a2 01        		.uleb128 0x1
 4074 11a3 9C        		.byte	0x9c
 4075 11a4 0000 120A 		.long	0x120a
 4076 11a8 17        		.uleb128 0x17
 4077 11a9 0000 0DF5 		.long	0xdf5
 4078 11ad 02        		.uleb128 0x2
 4079 11ae 91        		.byte	0x91
 4080 11af 00        		.sleb128 0
 4081 11b0 03        		.uleb128 0x3
 4082 11b1 0000 0E00 		.long	0xe00
 4083 11b5 0000 0000 		.long	.LLST26
 4084 11b9 0000 0000 		.long	.LVUS26
 4085 11bd 14        		.uleb128 0x14
 4086 11be 0000 0E0B 		.long	0xe0b
 4087 11c2 0000 0000 		.long	.LLRL27
 4088 11c6 0000 11D8 		.long	0x11d8
 4089 11ca 03        		.uleb128 0x3
 4090 11cb 0000 0E0C 		.long	0xe0c
 4091 11cf 0000 0000 		.long	.LLST28
 4092 11d3 0000 0000 		.long	.LVUS28
 4093 11d7 00        		.byte	0
 4094 11d8 15        		.uleb128 0x15
 4095 11d9 0000 0DE6 		.long	0xde6
 4096 11dd 0000 0000 		.long	.LBI46
 4097 11e1 01        		.byte	.LVU217
 4098 11e2 0000 0000 		.long	.LLRL29
 4099 11e6 60        		.byte	0x60
 4100 11e7 0E        		.byte	0xe
 4101 11e8 05        		.uleb128 0x5
 4102 11e9 0000 0DF5 		.long	0xdf5


 4103 11ed 0000 0000 		.long	.LLST30
 4104 11f1 0000 0000 		.long	.LVUS30
 4105 11f5 0F        		.uleb128 0xf
 4106 11f6 0000 0000 		.long	.LLRL29
 4107 11fa 03        		.uleb128 0x3
 4108 11fb 0000 0E00 		.long	0xe00
 4109 11ff 0000 0000 		.long	.LLST31
 4110 1203 0000 0000 		.long	.LVUS31
 4111 1207 00        		.byte	0
 4112 1208 00        		.byte	0
 4113 1209 00        		.byte	0
 4114 120a 16        		.uleb128 0x16
 4115 120b 0000 0DDD 		.long	0xddd
 4116 120f 0000 0000 		.long	.LFB9
 4117 1213 0000 0094 		.long	.LFE9-.LFB9
 4118 1217 01        		.uleb128 0x1
 4119 1218 9C        		.byte	0x9c
 4120 1219 0000 1298 		.long	0x1298
 4121 121d 15        		.uleb128 0x15
 4122 121e 0000 0DE6 		.long	0xde6
 4123 1222 0000 0000 		.long	.LBI57
 4124 1226 00        		.byte	.LVU243
 4125 1227 0000 0000 		.long	.LLRL32
 4126 122b 7A        		.byte	0x7a
 4127 122c 11        		.byte	0x11
 4128 122d 05        		.uleb128 0x5
 4129 122e 0000 0DF5 		.long	0xdf5
 4130 1232 0000 0000 		.long	.LLST33
 4131 1236 0000 0000 		.long	.LVUS33
 4132 123a 0F        		.uleb128 0xf
 4133 123b 0000 0000 		.long	.LLRL32
 4134 123f 03        		.uleb128 0x3
 4135 1240 0000 0E00 		.long	0xe00
 4136 1244 0000 0000 		.long	.LLST34
 4137 1248 0000 0000 		.long	.LVUS34
 4138 124c 14        		.uleb128 0x14
 4139 124d 0000 0E0B 		.long	0xe0b
 4140 1251 0000 0000 		.long	.LLRL35
 4141 1255 0000 1267 		.long	0x1267
 4142 1259 03        		.uleb128 0x3
 4143 125a 0000 0E0C 		.long	0xe0c
 4144 125e 0000 0000 		.long	.LLST36
 4145 1262 0000 0000 		.long	.LVUS36
 4146 1266 00        		.byte	0
 4147 1267 19        		.uleb128 0x19
 4148 1268 0000 0DE6 		.long	0xde6
 4149 126c 0000 0000 		.long	.LBI60
 4150 1270 01        		.byte	.LVU252
 4151 1271 0000 0000 		.long	.LBB60
 4152 1275 0000 0016 		.long	.LBE60-.LBB60
 4153 1279 60        		.byte	0x60
 4154 127a 05        		.uleb128 0x5
 4155 127b 0000 0DF5 		.long	0xdf5
 4156 127f 0000 0000 		.long	.LLST37
 4157 1283 0000 0000 		.long	.LVUS37
 4158 1287 03        		.uleb128 0x3
 4159 1288 0000 0E00 		.long	0xe00


 4160 128c 0000 0000 		.long	.LLST38
 4161 1290 0000 0000 		.long	.LVUS38
 4162 1294 00        		.byte	0
 4163 1295 00        		.byte	0
 4164 1296 00        		.byte	0
 4165 1297 00        		.byte	0
 4166 1298 16        		.uleb128 0x16
 4167 1299 0000 0DBD 		.long	0xdbd
 4168 129d 0000 0000 		.long	.LFB10
 4169 12a1 0000 002A 		.long	.LFE10-.LFB10
 4170 12a5 01        		.uleb128 0x1
 4171 12a6 9C        		.byte	0x9c
 4172 12a7 0000 12CA 		.long	0x12ca
 4173 12ab 17        		.uleb128 0x17
 4174 12ac 0000 0DC7 		.long	0xdc7
 4175 12b0 02        		.uleb128 0x2
 4176 12b1 91        		.byte	0x91
 4177 12b2 00        		.sleb128 0
 4178 12b3 03        		.uleb128 0x3
 4179 12b4 0000 0DD1 		.long	0xdd1
 4180 12b8 0000 0000 		.long	.LLST50
 4181 12bc 0000 0000 		.long	.LVUS50
 4182 12c0 10        		.uleb128 0x10
 4183 12c1 0000 0000 		.long	.LVL91
 4184 12c5 0000 0AF6 		.long	0xaf6
 4185 12c9 00        		.byte	0
 4186 12ca 16        		.uleb128 0x16
 4187 12cb 0000 0BFB 		.long	0xbfb
 4188 12cf 0000 0000 		.long	.LFB12
 4189 12d3 0000 002A 		.long	.LFE12-.LFB12
 4190 12d7 01        		.uleb128 0x1
 4191 12d8 9C        		.byte	0x9c
 4192 12d9 0000 12FC 		.long	0x12fc
 4193 12dd 17        		.uleb128 0x17
 4194 12de 0000 0C05 		.long	0xc05
 4195 12e2 02        		.uleb128 0x2
 4196 12e3 91        		.byte	0x91
 4197 12e4 00        		.sleb128 0
 4198 12e5 03        		.uleb128 0x3
 4199 12e6 0000 0C0F 		.long	0xc0f
 4200 12ea 0000 0000 		.long	.LLST64
 4201 12ee 0000 0000 		.long	.LVUS64
 4202 12f2 10        		.uleb128 0x10
 4203 12f3 0000 0000 		.long	.LVL113
 4204 12f7 0000 09ED 		.long	0x9ed
 4205 12fb 00        		.byte	0
 4206 12fc 45        		.uleb128 0x45
 4207 12fd 0000 0000 		.long	.LASF156
 4208 1301 0000 0000 		.long	.LASF157
 4209 1305 0A        		.byte	0xa
 4210 1306 00        		.byte	0
 4211 1307 00        		.byte	0
 4212               		.section	.debug_abbrev,"",@progbits
 4213               	.Ldebug_abbrev0:
 4214 0000 01        		.uleb128 0x1
 4215 0001 0D        		.uleb128 0xd
 4216 0002 00        		.byte	0


 4217 0003 03        		.uleb128 0x3
 4218 0004 0E        		.uleb128 0xe
 4219 0005 3A        		.uleb128 0x3a
 4220 0006 0B        		.uleb128 0xb
 4221 0007 3B        		.uleb128 0x3b
 4222 0008 0B        		.uleb128 0xb
 4223 0009 39        		.uleb128 0x39
 4224 000a 0B        		.uleb128 0xb
 4225 000b 49        		.uleb128 0x49
 4226 000c 13        		.uleb128 0x13
 4227 000d 38        		.uleb128 0x38
 4228 000e 0B        		.uleb128 0xb
 4229 000f 00        		.byte	0
 4230 0010 00        		.byte	0
 4231 0011 02        		.uleb128 0x2
 4232 0012 0D        		.uleb128 0xd
 4233 0013 00        		.byte	0
 4234 0014 03        		.uleb128 0x3
 4235 0015 0E        		.uleb128 0xe
 4236 0016 3A        		.uleb128 0x3a
 4237 0017 21        		.uleb128 0x21
 4238 0018 05        		.sleb128 5
 4239 0019 3B        		.uleb128 0x3b
 4240 001a 05        		.uleb128 0x5
 4241 001b 39        		.uleb128 0x39
 4242 001c 0B        		.uleb128 0xb
 4243 001d 49        		.uleb128 0x49
 4244 001e 13        		.uleb128 0x13
 4245 001f 38        		.uleb128 0x38
 4246 0020 0B        		.uleb128 0xb
 4247 0021 00        		.byte	0
 4248 0022 00        		.byte	0
 4249 0023 03        		.uleb128 0x3
 4250 0024 34        		.uleb128 0x34
 4251 0025 00        		.byte	0
 4252 0026 31        		.uleb128 0x31
 4253 0027 13        		.uleb128 0x13
 4254 0028 02        		.uleb128 0x2
 4255 0029 17        		.uleb128 0x17
 4256 002a B742      		.uleb128 0x2137
 4257 002c 17        		.uleb128 0x17
 4258 002d 00        		.byte	0
 4259 002e 00        		.byte	0
 4260 002f 04        		.uleb128 0x4
 4261 0030 0F        		.uleb128 0xf
 4262 0031 00        		.byte	0
 4263 0032 0B        		.uleb128 0xb
 4264 0033 21        		.uleb128 0x21
 4265 0034 04        		.sleb128 4
 4266 0035 49        		.uleb128 0x49
 4267 0036 13        		.uleb128 0x13
 4268 0037 00        		.byte	0
 4269 0038 00        		.byte	0
 4270 0039 05        		.uleb128 0x5
 4271 003a 05        		.uleb128 0x5
 4272 003b 00        		.byte	0
 4273 003c 31        		.uleb128 0x31


 4274 003d 13        		.uleb128 0x13
 4275 003e 02        		.uleb128 0x2
 4276 003f 17        		.uleb128 0x17
 4277 0040 B742      		.uleb128 0x2137
 4278 0042 17        		.uleb128 0x17
 4279 0043 00        		.byte	0
 4280 0044 00        		.byte	0
 4281 0045 06        		.uleb128 0x6
 4282 0046 05        		.uleb128 0x5
 4283 0047 00        		.byte	0
 4284 0048 49        		.uleb128 0x49
 4285 0049 13        		.uleb128 0x13
 4286 004a 00        		.byte	0
 4287 004b 00        		.byte	0
 4288 004c 07        		.uleb128 0x7
 4289 004d 16        		.uleb128 0x16
 4290 004e 00        		.byte	0
 4291 004f 03        		.uleb128 0x3
 4292 0050 0E        		.uleb128 0xe
 4293 0051 3A        		.uleb128 0x3a
 4294 0052 0B        		.uleb128 0xb
 4295 0053 3B        		.uleb128 0x3b
 4296 0054 0B        		.uleb128 0xb
 4297 0055 39        		.uleb128 0x39
 4298 0056 0B        		.uleb128 0xb
 4299 0057 49        		.uleb128 0x49
 4300 0058 13        		.uleb128 0x13
 4301 0059 00        		.byte	0
 4302 005a 00        		.byte	0
 4303 005b 08        		.uleb128 0x8
 4304 005c 01        		.uleb128 0x1
 4305 005d 01        		.byte	0x1
 4306 005e 49        		.uleb128 0x49
 4307 005f 13        		.uleb128 0x13
 4308 0060 01        		.uleb128 0x1
 4309 0061 13        		.uleb128 0x13
 4310 0062 00        		.byte	0
 4311 0063 00        		.byte	0
 4312 0064 09        		.uleb128 0x9
 4313 0065 21        		.uleb128 0x21
 4314 0066 00        		.byte	0
 4315 0067 49        		.uleb128 0x49
 4316 0068 13        		.uleb128 0x13
 4317 0069 2F        		.uleb128 0x2f
 4318 006a 0B        		.uleb128 0xb
 4319 006b 00        		.byte	0
 4320 006c 00        		.byte	0
 4321 006d 0A        		.uleb128 0xa
 4322 006e 24        		.uleb128 0x24
 4323 006f 00        		.byte	0
 4324 0070 0B        		.uleb128 0xb
 4325 0071 0B        		.uleb128 0xb
 4326 0072 3E        		.uleb128 0x3e
 4327 0073 0B        		.uleb128 0xb
 4328 0074 03        		.uleb128 0x3
 4329 0075 0E        		.uleb128 0xe
 4330 0076 00        		.byte	0


 4331 0077 00        		.byte	0
 4332 0078 0B        		.uleb128 0xb
 4333 0079 0D        		.uleb128 0xd
 4334 007a 00        		.byte	0
 4335 007b 03        		.uleb128 0x3
 4336 007c 08        		.uleb128 0x8
 4337 007d 3A        		.uleb128 0x3a
 4338 007e 0B        		.uleb128 0xb
 4339 007f 3B        		.uleb128 0x3b
 4340 0080 0B        		.uleb128 0xb
 4341 0081 39        		.uleb128 0x39
 4342 0082 0B        		.uleb128 0xb
 4343 0083 49        		.uleb128 0x49
 4344 0084 13        		.uleb128 0x13
 4345 0085 38        		.uleb128 0x38
 4346 0086 0B        		.uleb128 0xb
 4347 0087 00        		.byte	0
 4348 0088 00        		.byte	0
 4349 0089 0C        		.uleb128 0xc
 4350 008a 34        		.uleb128 0x34
 4351 008b 00        		.byte	0
 4352 008c 03        		.uleb128 0x3
 4353 008d 0E        		.uleb128 0xe
 4354 008e 3A        		.uleb128 0x3a
 4355 008f 21        		.uleb128 0x21
 4356 0090 09        		.sleb128 9
 4357 0091 3B        		.uleb128 0x3b
 4358 0092 0B        		.uleb128 0xb
 4359 0093 39        		.uleb128 0x39
 4360 0094 0B        		.uleb128 0xb
 4361 0095 49        		.uleb128 0x49
 4362 0096 13        		.uleb128 0x13
 4363 0097 3F        		.uleb128 0x3f
 4364 0098 19        		.uleb128 0x19
 4365 0099 3C        		.uleb128 0x3c
 4366 009a 19        		.uleb128 0x19
 4367 009b 00        		.byte	0
 4368 009c 00        		.byte	0
 4369 009d 0D        		.uleb128 0xd
 4370 009e 34        		.uleb128 0x34
 4371 009f 00        		.byte	0
 4372 00a0 47        		.uleb128 0x47
 4373 00a1 13        		.uleb128 0x13
 4374 00a2 3A        		.uleb128 0x3a
 4375 00a3 21        		.uleb128 0x21
 4376 00a4 01        		.sleb128 1
 4377 00a5 3B        		.uleb128 0x3b
 4378 00a6 0B        		.uleb128 0xb
 4379 00a7 39        		.uleb128 0x39
 4380 00a8 0B        		.uleb128 0xb
 4381 00a9 02        		.uleb128 0x2
 4382 00aa 18        		.uleb128 0x18
 4383 00ab 00        		.byte	0
 4384 00ac 00        		.byte	0
 4385 00ad 0E        		.uleb128 0xe
 4386 00ae 48        		.uleb128 0x48
 4387 00af 00        		.byte	0


 4388 00b0 7D        		.uleb128 0x7d
 4389 00b1 01        		.uleb128 0x1
 4390 00b2 7F        		.uleb128 0x7f
 4391 00b3 13        		.uleb128 0x13
 4392 00b4 00        		.byte	0
 4393 00b5 00        		.byte	0
 4394 00b6 0F        		.uleb128 0xf
 4395 00b7 0B        		.uleb128 0xb
 4396 00b8 01        		.byte	0x1
 4397 00b9 55        		.uleb128 0x55
 4398 00ba 17        		.uleb128 0x17
 4399 00bb 00        		.byte	0
 4400 00bc 00        		.byte	0
 4401 00bd 10        		.uleb128 0x10
 4402 00be 48        		.uleb128 0x48
 4403 00bf 00        		.byte	0
 4404 00c0 7D        		.uleb128 0x7d
 4405 00c1 01        		.uleb128 0x1
 4406 00c2 8201      		.uleb128 0x82
 4407 00c4 19        		.uleb128 0x19
 4408 00c5 7F        		.uleb128 0x7f
 4409 00c6 13        		.uleb128 0x13
 4410 00c7 00        		.byte	0
 4411 00c8 00        		.byte	0
 4412 00c9 11        		.uleb128 0x11
 4413 00ca 34        		.uleb128 0x34
 4414 00cb 00        		.byte	0
 4415 00cc 03        		.uleb128 0x3
 4416 00cd 0E        		.uleb128 0xe
 4417 00ce 3A        		.uleb128 0x3a
 4418 00cf 21        		.uleb128 0x21
 4419 00d0 01        		.sleb128 1
 4420 00d1 3B        		.uleb128 0x3b
 4421 00d2 0B        		.uleb128 0xb
 4422 00d3 39        		.uleb128 0x39
 4423 00d4 0B        		.uleb128 0xb
 4424 00d5 49        		.uleb128 0x49
 4425 00d6 13        		.uleb128 0x13
 4426 00d7 00        		.byte	0
 4427 00d8 00        		.byte	0
 4428 00d9 12        		.uleb128 0x12
 4429 00da 34        		.uleb128 0x34
 4430 00db 00        		.byte	0
 4431 00dc 03        		.uleb128 0x3
 4432 00dd 08        		.uleb128 0x8
 4433 00de 3A        		.uleb128 0x3a
 4434 00df 21        		.uleb128 0x21
 4435 00e0 01        		.sleb128 1
 4436 00e1 3B        		.uleb128 0x3b
 4437 00e2 0B        		.uleb128 0xb
 4438 00e3 39        		.uleb128 0x39
 4439 00e4 0B        		.uleb128 0xb
 4440 00e5 49        		.uleb128 0x49
 4441 00e6 13        		.uleb128 0x13
 4442 00e7 02        		.uleb128 0x2
 4443 00e8 17        		.uleb128 0x17
 4444 00e9 B742      		.uleb128 0x2137


 4445 00eb 17        		.uleb128 0x17
 4446 00ec 00        		.byte	0
 4447 00ed 00        		.byte	0
 4448 00ee 13        		.uleb128 0x13
 4449 00ef 1D        		.uleb128 0x1d
 4450 00f0 01        		.byte	0x1
 4451 00f1 31        		.uleb128 0x31
 4452 00f2 13        		.uleb128 0x13
 4453 00f3 52        		.uleb128 0x52
 4454 00f4 01        		.uleb128 0x1
 4455 00f5 B842      		.uleb128 0x2138
 4456 00f7 0B        		.uleb128 0xb
 4457 00f8 55        		.uleb128 0x55
 4458 00f9 17        		.uleb128 0x17
 4459 00fa 58        		.uleb128 0x58
 4460 00fb 21        		.uleb128 0x21
 4461 00fc 01        		.sleb128 1
 4462 00fd 59        		.uleb128 0x59
 4463 00fe 0B        		.uleb128 0xb
 4464 00ff 57        		.uleb128 0x57
 4465 0100 0B        		.uleb128 0xb
 4466 0101 01        		.uleb128 0x1
 4467 0102 13        		.uleb128 0x13
 4468 0103 00        		.byte	0
 4469 0104 00        		.byte	0
 4470 0105 14        		.uleb128 0x14
 4471 0106 0B        		.uleb128 0xb
 4472 0107 01        		.byte	0x1
 4473 0108 31        		.uleb128 0x31
 4474 0109 13        		.uleb128 0x13
 4475 010a 55        		.uleb128 0x55
 4476 010b 17        		.uleb128 0x17
 4477 010c 01        		.uleb128 0x1
 4478 010d 13        		.uleb128 0x13
 4479 010e 00        		.byte	0
 4480 010f 00        		.byte	0
 4481 0110 15        		.uleb128 0x15
 4482 0111 1D        		.uleb128 0x1d
 4483 0112 01        		.byte	0x1
 4484 0113 31        		.uleb128 0x31
 4485 0114 13        		.uleb128 0x13
 4486 0115 52        		.uleb128 0x52
 4487 0116 01        		.uleb128 0x1
 4488 0117 B842      		.uleb128 0x2138
 4489 0119 0B        		.uleb128 0xb
 4490 011a 55        		.uleb128 0x55
 4491 011b 17        		.uleb128 0x17
 4492 011c 58        		.uleb128 0x58
 4493 011d 21        		.uleb128 0x21
 4494 011e 01        		.sleb128 1
 4495 011f 59        		.uleb128 0x59
 4496 0120 0B        		.uleb128 0xb
 4497 0121 57        		.uleb128 0x57
 4498 0122 0B        		.uleb128 0xb
 4499 0123 00        		.byte	0
 4500 0124 00        		.byte	0
 4501 0125 16        		.uleb128 0x16


 4502 0126 2E        		.uleb128 0x2e
 4503 0127 01        		.byte	0x1
 4504 0128 31        		.uleb128 0x31
 4505 0129 13        		.uleb128 0x13
 4506 012a 11        		.uleb128 0x11
 4507 012b 01        		.uleb128 0x1
 4508 012c 12        		.uleb128 0x12
 4509 012d 06        		.uleb128 0x6
 4510 012e 40        		.uleb128 0x40
 4511 012f 18        		.uleb128 0x18
 4512 0130 7A        		.uleb128 0x7a
 4513 0131 19        		.uleb128 0x19
 4514 0132 01        		.uleb128 0x1
 4515 0133 13        		.uleb128 0x13
 4516 0134 00        		.byte	0
 4517 0135 00        		.byte	0
 4518 0136 17        		.uleb128 0x17
 4519 0137 05        		.uleb128 0x5
 4520 0138 00        		.byte	0
 4521 0139 31        		.uleb128 0x31
 4522 013a 13        		.uleb128 0x13
 4523 013b 02        		.uleb128 0x2
 4524 013c 18        		.uleb128 0x18
 4525 013d 00        		.byte	0
 4526 013e 00        		.byte	0
 4527 013f 18        		.uleb128 0x18
 4528 0140 18        		.uleb128 0x18
 4529 0141 00        		.byte	0
 4530 0142 00        		.byte	0
 4531 0143 00        		.byte	0
 4532 0144 19        		.uleb128 0x19
 4533 0145 1D        		.uleb128 0x1d
 4534 0146 01        		.byte	0x1
 4535 0147 31        		.uleb128 0x31
 4536 0148 13        		.uleb128 0x13
 4537 0149 52        		.uleb128 0x52
 4538 014a 01        		.uleb128 0x1
 4539 014b B842      		.uleb128 0x2138
 4540 014d 0B        		.uleb128 0xb
 4541 014e 11        		.uleb128 0x11
 4542 014f 01        		.uleb128 0x1
 4543 0150 12        		.uleb128 0x12
 4544 0151 06        		.uleb128 0x6
 4545 0152 58        		.uleb128 0x58
 4546 0153 21        		.uleb128 0x21
 4547 0154 01        		.sleb128 1
 4548 0155 59        		.uleb128 0x59
 4549 0156 0B        		.uleb128 0xb
 4550 0157 57        		.uleb128 0x57
 4551 0158 21        		.uleb128 0x21
 4552 0159 0E        		.sleb128 14
 4553 015a 00        		.byte	0
 4554 015b 00        		.byte	0
 4555 015c 1A        		.uleb128 0x1a
 4556 015d 13        		.uleb128 0x13
 4557 015e 01        		.byte	0x1
 4558 015f 03        		.uleb128 0x3


 4559 0160 0E        		.uleb128 0xe
 4560 0161 0B        		.uleb128 0xb
 4561 0162 0B        		.uleb128 0xb
 4562 0163 3A        		.uleb128 0x3a
 4563 0164 21        		.uleb128 0x21
 4564 0165 05        		.sleb128 5
 4565 0166 3B        		.uleb128 0x3b
 4566 0167 0B        		.uleb128 0xb
 4567 0168 39        		.uleb128 0x39
 4568 0169 21        		.uleb128 0x21
 4569 016a 08        		.sleb128 8
 4570 016b 01        		.uleb128 0x1
 4571 016c 13        		.uleb128 0x13
 4572 016d 00        		.byte	0
 4573 016e 00        		.byte	0
 4574 016f 1B        		.uleb128 0x1b
 4575 0170 15        		.uleb128 0x15
 4576 0171 01        		.byte	0x1
 4577 0172 27        		.uleb128 0x27
 4578 0173 19        		.uleb128 0x19
 4579 0174 49        		.uleb128 0x49
 4580 0175 13        		.uleb128 0x13
 4581 0176 01        		.uleb128 0x1
 4582 0177 13        		.uleb128 0x13
 4583 0178 00        		.byte	0
 4584 0179 00        		.byte	0
 4585 017a 1C        		.uleb128 0x1c
 4586 017b 2E        		.uleb128 0x2e
 4587 017c 01        		.byte	0x1
 4588 017d 3F        		.uleb128 0x3f
 4589 017e 19        		.uleb128 0x19
 4590 017f 03        		.uleb128 0x3
 4591 0180 0E        		.uleb128 0xe
 4592 0181 3A        		.uleb128 0x3a
 4593 0182 21        		.uleb128 0x21
 4594 0183 01        		.sleb128 1
 4595 0184 3B        		.uleb128 0x3b
 4596 0185 0B        		.uleb128 0xb
 4597 0186 39        		.uleb128 0x39
 4598 0187 21        		.uleb128 0x21
 4599 0188 06        		.sleb128 6
 4600 0189 27        		.uleb128 0x27
 4601 018a 19        		.uleb128 0x19
 4602 018b 11        		.uleb128 0x11
 4603 018c 01        		.uleb128 0x1
 4604 018d 12        		.uleb128 0x12
 4605 018e 06        		.uleb128 0x6
 4606 018f 40        		.uleb128 0x40
 4607 0190 18        		.uleb128 0x18
 4608 0191 7A        		.uleb128 0x7a
 4609 0192 19        		.uleb128 0x19
 4610 0193 01        		.uleb128 0x1
 4611 0194 13        		.uleb128 0x13
 4612 0195 00        		.byte	0
 4613 0196 00        		.byte	0
 4614 0197 1D        		.uleb128 0x1d
 4615 0198 34        		.uleb128 0x34


 4616 0199 00        		.byte	0
 4617 019a 03        		.uleb128 0x3
 4618 019b 0E        		.uleb128 0xe
 4619 019c 3A        		.uleb128 0x3a
 4620 019d 21        		.uleb128 0x21
 4621 019e 01        		.sleb128 1
 4622 019f 3B        		.uleb128 0x3b
 4623 01a0 0B        		.uleb128 0xb
 4624 01a1 39        		.uleb128 0x39
 4625 01a2 0B        		.uleb128 0xb
 4626 01a3 49        		.uleb128 0x49
 4627 01a4 13        		.uleb128 0x13
 4628 01a5 02        		.uleb128 0x2
 4629 01a6 17        		.uleb128 0x17
 4630 01a7 B742      		.uleb128 0x2137
 4631 01a9 17        		.uleb128 0x17
 4632 01aa 00        		.byte	0
 4633 01ab 00        		.byte	0
 4634 01ac 1E        		.uleb128 0x1e
 4635 01ad 34        		.uleb128 0x34
 4636 01ae 00        		.byte	0
 4637 01af 03        		.uleb128 0x3
 4638 01b0 08        		.uleb128 0x8
 4639 01b1 3A        		.uleb128 0x3a
 4640 01b2 21        		.uleb128 0x21
 4641 01b3 01        		.sleb128 1
 4642 01b4 3B        		.uleb128 0x3b
 4643 01b5 0B        		.uleb128 0xb
 4644 01b6 39        		.uleb128 0x39
 4645 01b7 0B        		.uleb128 0xb
 4646 01b8 49        		.uleb128 0x49
 4647 01b9 13        		.uleb128 0x13
 4648 01ba 00        		.byte	0
 4649 01bb 00        		.byte	0
 4650 01bc 1F        		.uleb128 0x1f
 4651 01bd 0B        		.uleb128 0xb
 4652 01be 01        		.byte	0x1
 4653 01bf 11        		.uleb128 0x11
 4654 01c0 01        		.uleb128 0x1
 4655 01c1 12        		.uleb128 0x12
 4656 01c2 06        		.uleb128 0x6
 4657 01c3 00        		.byte	0
 4658 01c4 00        		.byte	0
 4659 01c5 20        		.uleb128 0x20
 4660 01c6 13        		.uleb128 0x13
 4661 01c7 01        		.byte	0x1
 4662 01c8 0B        		.uleb128 0xb
 4663 01c9 0B        		.uleb128 0xb
 4664 01ca 3A        		.uleb128 0x3a
 4665 01cb 0B        		.uleb128 0xb
 4666 01cc 3B        		.uleb128 0x3b
 4667 01cd 0B        		.uleb128 0xb
 4668 01ce 39        		.uleb128 0x39
 4669 01cf 21        		.uleb128 0x21
 4670 01d0 09        		.sleb128 9
 4671 01d1 01        		.uleb128 0x1
 4672 01d2 13        		.uleb128 0x13


 4673 01d3 00        		.byte	0
 4674 01d4 00        		.byte	0
 4675 01d5 21        		.uleb128 0x21
 4676 01d6 2E        		.uleb128 0x2e
 4677 01d7 01        		.byte	0x1
 4678 01d8 3F        		.uleb128 0x3f
 4679 01d9 19        		.uleb128 0x19
 4680 01da 03        		.uleb128 0x3
 4681 01db 0E        		.uleb128 0xe
 4682 01dc 3A        		.uleb128 0x3a
 4683 01dd 21        		.uleb128 0x21
 4684 01de 09        		.sleb128 9
 4685 01df 3B        		.uleb128 0x3b
 4686 01e0 0B        		.uleb128 0xb
 4687 01e1 39        		.uleb128 0x39
 4688 01e2 21        		.uleb128 0x21
 4689 01e3 0D        		.sleb128 13
 4690 01e4 3C        		.uleb128 0x3c
 4691 01e5 19        		.uleb128 0x19
 4692 01e6 01        		.uleb128 0x1
 4693 01e7 13        		.uleb128 0x13
 4694 01e8 00        		.byte	0
 4695 01e9 00        		.byte	0
 4696 01ea 22        		.uleb128 0x22
 4697 01eb 2E        		.uleb128 0x2e
 4698 01ec 01        		.byte	0x1
 4699 01ed 3F        		.uleb128 0x3f
 4700 01ee 19        		.uleb128 0x19
 4701 01ef 03        		.uleb128 0x3
 4702 01f0 0E        		.uleb128 0xe
 4703 01f1 3A        		.uleb128 0x3a
 4704 01f2 21        		.uleb128 0x21
 4705 01f3 01        		.sleb128 1
 4706 01f4 3B        		.uleb128 0x3b
 4707 01f5 0B        		.uleb128 0xb
 4708 01f6 39        		.uleb128 0x39
 4709 01f7 21        		.uleb128 0x21
 4710 01f8 06        		.sleb128 6
 4711 01f9 11        		.uleb128 0x11
 4712 01fa 01        		.uleb128 0x1
 4713 01fb 12        		.uleb128 0x12
 4714 01fc 06        		.uleb128 0x6
 4715 01fd 40        		.uleb128 0x40
 4716 01fe 18        		.uleb128 0x18
 4717 01ff 7A        		.uleb128 0x7a
 4718 0200 19        		.uleb128 0x19
 4719 0201 01        		.uleb128 0x1
 4720 0202 13        		.uleb128 0x13
 4721 0203 00        		.byte	0
 4722 0204 00        		.byte	0
 4723 0205 23        		.uleb128 0x23
 4724 0206 1D        		.uleb128 0x1d
 4725 0207 01        		.byte	0x1
 4726 0208 31        		.uleb128 0x31
 4727 0209 13        		.uleb128 0x13
 4728 020a 52        		.uleb128 0x52
 4729 020b 01        		.uleb128 0x1


 4730 020c B842      		.uleb128 0x2138
 4731 020e 0B        		.uleb128 0xb
 4732 020f 11        		.uleb128 0x11
 4733 0210 01        		.uleb128 0x1
 4734 0211 12        		.uleb128 0x12
 4735 0212 06        		.uleb128 0x6
 4736 0213 58        		.uleb128 0x58
 4737 0214 21        		.uleb128 0x21
 4738 0215 01        		.sleb128 1
 4739 0216 59        		.uleb128 0x59
 4740 0217 0B        		.uleb128 0xb
 4741 0218 57        		.uleb128 0x57
 4742 0219 0B        		.uleb128 0xb
 4743 021a 01        		.uleb128 0x1
 4744 021b 13        		.uleb128 0x13
 4745 021c 00        		.byte	0
 4746 021d 00        		.byte	0
 4747 021e 24        		.uleb128 0x24
 4748 021f 2E        		.uleb128 0x2e
 4749 0220 01        		.byte	0x1
 4750 0221 3F        		.uleb128 0x3f
 4751 0222 19        		.uleb128 0x19
 4752 0223 03        		.uleb128 0x3
 4753 0224 0E        		.uleb128 0xe
 4754 0225 3A        		.uleb128 0x3a
 4755 0226 21        		.uleb128 0x21
 4756 0227 01        		.sleb128 1
 4757 0228 3B        		.uleb128 0x3b
 4758 0229 0B        		.uleb128 0xb
 4759 022a 39        		.uleb128 0x39
 4760 022b 21        		.uleb128 0x21
 4761 022c 06        		.sleb128 6
 4762 022d 27        		.uleb128 0x27
 4763 022e 19        		.uleb128 0x19
 4764 022f 20        		.uleb128 0x20
 4765 0230 21        		.uleb128 0x21
 4766 0231 01        		.sleb128 1
 4767 0232 01        		.uleb128 0x1
 4768 0233 13        		.uleb128 0x13
 4769 0234 00        		.byte	0
 4770 0235 00        		.byte	0
 4771 0236 25        		.uleb128 0x25
 4772 0237 05        		.uleb128 0x5
 4773 0238 00        		.byte	0
 4774 0239 03        		.uleb128 0x3
 4775 023a 08        		.uleb128 0x8
 4776 023b 3A        		.uleb128 0x3a
 4777 023c 21        		.uleb128 0x21
 4778 023d 01        		.sleb128 1
 4779 023e 3B        		.uleb128 0x3b
 4780 023f 0B        		.uleb128 0xb
 4781 0240 39        		.uleb128 0x39
 4782 0241 0B        		.uleb128 0xb
 4783 0242 49        		.uleb128 0x49
 4784 0243 13        		.uleb128 0x13
 4785 0244 00        		.byte	0
 4786 0245 00        		.byte	0


 4787 0246 26        		.uleb128 0x26
 4788 0247 05        		.uleb128 0x5
 4789 0248 00        		.byte	0
 4790 0249 03        		.uleb128 0x3
 4791 024a 0E        		.uleb128 0xe
 4792 024b 3A        		.uleb128 0x3a
 4793 024c 21        		.uleb128 0x21
 4794 024d 01        		.sleb128 1
 4795 024e 3B        		.uleb128 0x3b
 4796 024f 0B        		.uleb128 0xb
 4797 0250 39        		.uleb128 0x39
 4798 0251 0B        		.uleb128 0xb
 4799 0252 49        		.uleb128 0x49
 4800 0253 13        		.uleb128 0x13
 4801 0254 00        		.byte	0
 4802 0255 00        		.byte	0
 4803 0256 27        		.uleb128 0x27
 4804 0257 16        		.uleb128 0x16
 4805 0258 00        		.byte	0
 4806 0259 03        		.uleb128 0x3
 4807 025a 0E        		.uleb128 0xe
 4808 025b 3A        		.uleb128 0x3a
 4809 025c 0B        		.uleb128 0xb
 4810 025d 3B        		.uleb128 0x3b
 4811 025e 05        		.uleb128 0x5
 4812 025f 39        		.uleb128 0x39
 4813 0260 0B        		.uleb128 0xb
 4814 0261 49        		.uleb128 0x49
 4815 0262 13        		.uleb128 0x13
 4816 0263 00        		.byte	0
 4817 0264 00        		.byte	0
 4818 0265 28        		.uleb128 0x28
 4819 0266 0D        		.uleb128 0xd
 4820 0267 00        		.byte	0
 4821 0268 03        		.uleb128 0x3
 4822 0269 0E        		.uleb128 0xe
 4823 026a 3A        		.uleb128 0x3a
 4824 026b 21        		.uleb128 0x21
 4825 026c 04        		.sleb128 4
 4826 026d 3B        		.uleb128 0x3b
 4827 026e 0B        		.uleb128 0xb
 4828 026f 39        		.uleb128 0x39
 4829 0270 0B        		.uleb128 0xb
 4830 0271 49        		.uleb128 0x49
 4831 0272 13        		.uleb128 0x13
 4832 0273 00        		.byte	0
 4833 0274 00        		.byte	0
 4834 0275 29        		.uleb128 0x29
 4835 0276 15        		.uleb128 0x15
 4836 0277 01        		.byte	0x1
 4837 0278 27        		.uleb128 0x27
 4838 0279 19        		.uleb128 0x19
 4839 027a 01        		.uleb128 0x1
 4840 027b 13        		.uleb128 0x13
 4841 027c 00        		.byte	0
 4842 027d 00        		.byte	0
 4843 027e 2A        		.uleb128 0x2a


 4844 027f 05        		.uleb128 0x5
 4845 0280 00        		.byte	0
 4846 0281 03        		.uleb128 0x3
 4847 0282 08        		.uleb128 0x8
 4848 0283 3A        		.uleb128 0x3a
 4849 0284 21        		.uleb128 0x21
 4850 0285 01        		.sleb128 1
 4851 0286 3B        		.uleb128 0x3b
 4852 0287 0B        		.uleb128 0xb
 4853 0288 39        		.uleb128 0x39
 4854 0289 0B        		.uleb128 0xb
 4855 028a 49        		.uleb128 0x49
 4856 028b 13        		.uleb128 0x13
 4857 028c 02        		.uleb128 0x2
 4858 028d 18        		.uleb128 0x18
 4859 028e 00        		.byte	0
 4860 028f 00        		.byte	0
 4861 0290 2B        		.uleb128 0x2b
 4862 0291 05        		.uleb128 0x5
 4863 0292 00        		.byte	0
 4864 0293 03        		.uleb128 0x3
 4865 0294 0E        		.uleb128 0xe
 4866 0295 3A        		.uleb128 0x3a
 4867 0296 21        		.uleb128 0x21
 4868 0297 01        		.sleb128 1
 4869 0298 3B        		.uleb128 0x3b
 4870 0299 0B        		.uleb128 0xb
 4871 029a 39        		.uleb128 0x39
 4872 029b 0B        		.uleb128 0xb
 4873 029c 49        		.uleb128 0x49
 4874 029d 13        		.uleb128 0x13
 4875 029e 02        		.uleb128 0x2
 4876 029f 18        		.uleb128 0x18
 4877 02a0 00        		.byte	0
 4878 02a1 00        		.byte	0
 4879 02a2 2C        		.uleb128 0x2c
 4880 02a3 2E        		.uleb128 0x2e
 4881 02a4 01        		.byte	0x1
 4882 02a5 3F        		.uleb128 0x3f
 4883 02a6 19        		.uleb128 0x19
 4884 02a7 03        		.uleb128 0x3
 4885 02a8 0E        		.uleb128 0xe
 4886 02a9 3A        		.uleb128 0x3a
 4887 02aa 21        		.uleb128 0x21
 4888 02ab 01        		.sleb128 1
 4889 02ac 3B        		.uleb128 0x3b
 4890 02ad 0B        		.uleb128 0xb
 4891 02ae 39        		.uleb128 0x39
 4892 02af 0B        		.uleb128 0xb
 4893 02b0 27        		.uleb128 0x27
 4894 02b1 19        		.uleb128 0x19
 4895 02b2 49        		.uleb128 0x49
 4896 02b3 13        		.uleb128 0x13
 4897 02b4 20        		.uleb128 0x20
 4898 02b5 21        		.uleb128 0x21
 4899 02b6 01        		.sleb128 1
 4900 02b7 01        		.uleb128 0x1


 4901 02b8 13        		.uleb128 0x13
 4902 02b9 00        		.byte	0
 4903 02ba 00        		.byte	0
 4904 02bb 2D        		.uleb128 0x2d
 4905 02bc 0B        		.uleb128 0xb
 4906 02bd 01        		.byte	0x1
 4907 02be 11        		.uleb128 0x11
 4908 02bf 01        		.uleb128 0x1
 4909 02c0 12        		.uleb128 0x12
 4910 02c1 06        		.uleb128 0x6
 4911 02c2 01        		.uleb128 0x1
 4912 02c3 13        		.uleb128 0x13
 4913 02c4 00        		.byte	0
 4914 02c5 00        		.byte	0
 4915 02c6 2E        		.uleb128 0x2e
 4916 02c7 11        		.uleb128 0x11
 4917 02c8 01        		.byte	0x1
 4918 02c9 25        		.uleb128 0x25
 4919 02ca 0E        		.uleb128 0xe
 4920 02cb 13        		.uleb128 0x13
 4921 02cc 0B        		.uleb128 0xb
 4922 02cd 03        		.uleb128 0x3
 4923 02ce 0E        		.uleb128 0xe
 4924 02cf 1B        		.uleb128 0x1b
 4925 02d0 0E        		.uleb128 0xe
 4926 02d1 11        		.uleb128 0x11
 4927 02d2 01        		.uleb128 0x1
 4928 02d3 12        		.uleb128 0x12
 4929 02d4 06        		.uleb128 0x6
 4930 02d5 10        		.uleb128 0x10
 4931 02d6 17        		.uleb128 0x17
 4932 02d7 00        		.byte	0
 4933 02d8 00        		.byte	0
 4934 02d9 2F        		.uleb128 0x2f
 4935 02da 24        		.uleb128 0x24
 4936 02db 00        		.byte	0
 4937 02dc 0B        		.uleb128 0xb
 4938 02dd 0B        		.uleb128 0xb
 4939 02de 3E        		.uleb128 0x3e
 4940 02df 0B        		.uleb128 0xb
 4941 02e0 03        		.uleb128 0x3
 4942 02e1 08        		.uleb128 0x8
 4943 02e2 00        		.byte	0
 4944 02e3 00        		.byte	0
 4945 02e4 30        		.uleb128 0x30
 4946 02e5 17        		.uleb128 0x17
 4947 02e6 01        		.byte	0x1
 4948 02e7 0B        		.uleb128 0xb
 4949 02e8 0B        		.uleb128 0xb
 4950 02e9 3A        		.uleb128 0x3a
 4951 02ea 0B        		.uleb128 0xb
 4952 02eb 3B        		.uleb128 0x3b
 4953 02ec 0B        		.uleb128 0xb
 4954 02ed 39        		.uleb128 0x39
 4955 02ee 0B        		.uleb128 0xb
 4956 02ef 01        		.uleb128 0x1
 4957 02f0 13        		.uleb128 0x13


 4958 02f1 00        		.byte	0
 4959 02f2 00        		.byte	0
 4960 02f3 31        		.uleb128 0x31
 4961 02f4 0F        		.uleb128 0xf
 4962 02f5 00        		.byte	0
 4963 02f6 0B        		.uleb128 0xb
 4964 02f7 0B        		.uleb128 0xb
 4965 02f8 00        		.byte	0
 4966 02f9 00        		.byte	0
 4967 02fa 32        		.uleb128 0x32
 4968 02fb 13        		.uleb128 0x13
 4969 02fc 01        		.byte	0x1
 4970 02fd 03        		.uleb128 0x3
 4971 02fe 0E        		.uleb128 0xe
 4972 02ff 0B        		.uleb128 0xb
 4973 0300 05        		.uleb128 0x5
 4974 0301 3A        		.uleb128 0x3a
 4975 0302 0B        		.uleb128 0xb
 4976 0303 3B        		.uleb128 0x3b
 4977 0304 05        		.uleb128 0x5
 4978 0305 39        		.uleb128 0x39
 4979 0306 0B        		.uleb128 0xb
 4980 0307 01        		.uleb128 0x1
 4981 0308 13        		.uleb128 0x13
 4982 0309 00        		.byte	0
 4983 030a 00        		.byte	0
 4984 030b 33        		.uleb128 0x33
 4985 030c 0D        		.uleb128 0xd
 4986 030d 00        		.byte	0
 4987 030e 03        		.uleb128 0x3
 4988 030f 0E        		.uleb128 0xe
 4989 0310 3A        		.uleb128 0x3a
 4990 0311 0B        		.uleb128 0xb
 4991 0312 3B        		.uleb128 0x3b
 4992 0313 05        		.uleb128 0x5
 4993 0314 39        		.uleb128 0x39
 4994 0315 0B        		.uleb128 0xb
 4995 0316 49        		.uleb128 0x49
 4996 0317 13        		.uleb128 0x13
 4997 0318 38        		.uleb128 0x38
 4998 0319 05        		.uleb128 0x5
 4999 031a 00        		.byte	0
 5000 031b 00        		.byte	0
 5001 031c 34        		.uleb128 0x34
 5002 031d 26        		.uleb128 0x26
 5003 031e 00        		.byte	0
 5004 031f 49        		.uleb128 0x49
 5005 0320 13        		.uleb128 0x13
 5006 0321 00        		.byte	0
 5007 0322 00        		.byte	0
 5008 0323 35        		.uleb128 0x35
 5009 0324 13        		.uleb128 0x13
 5010 0325 01        		.byte	0x1
 5011 0326 03        		.uleb128 0x3
 5012 0327 0E        		.uleb128 0xe
 5013 0328 0B        		.uleb128 0xb
 5014 0329 0B        		.uleb128 0xb


 5015 032a 3A        		.uleb128 0x3a
 5016 032b 0B        		.uleb128 0xb
 5017 032c 3B        		.uleb128 0x3b
 5018 032d 05        		.uleb128 0x5
 5019 032e 39        		.uleb128 0x39
 5020 032f 0B        		.uleb128 0xb
 5021 0330 01        		.uleb128 0x1
 5022 0331 13        		.uleb128 0x13
 5023 0332 00        		.byte	0
 5024 0333 00        		.byte	0
 5025 0334 36        		.uleb128 0x36
 5026 0335 13        		.uleb128 0x13
 5027 0336 01        		.byte	0x1
 5028 0337 0B        		.uleb128 0xb
 5029 0338 0B        		.uleb128 0xb
 5030 0339 3A        		.uleb128 0x3a
 5031 033a 0B        		.uleb128 0xb
 5032 033b 3B        		.uleb128 0x3b
 5033 033c 05        		.uleb128 0x5
 5034 033d 39        		.uleb128 0x39
 5035 033e 0B        		.uleb128 0xb
 5036 033f 01        		.uleb128 0x1
 5037 0340 13        		.uleb128 0x13
 5038 0341 00        		.byte	0
 5039 0342 00        		.byte	0
 5040 0343 37        		.uleb128 0x37
 5041 0344 17        		.uleb128 0x17
 5042 0345 01        		.byte	0x1
 5043 0346 0B        		.uleb128 0xb
 5044 0347 0B        		.uleb128 0xb
 5045 0348 3A        		.uleb128 0x3a
 5046 0349 0B        		.uleb128 0xb
 5047 034a 3B        		.uleb128 0x3b
 5048 034b 05        		.uleb128 0x5
 5049 034c 39        		.uleb128 0x39
 5050 034d 0B        		.uleb128 0xb
 5051 034e 01        		.uleb128 0x1
 5052 034f 13        		.uleb128 0x13
 5053 0350 00        		.byte	0
 5054 0351 00        		.byte	0
 5055 0352 38        		.uleb128 0x38
 5056 0353 0D        		.uleb128 0xd
 5057 0354 00        		.byte	0
 5058 0355 03        		.uleb128 0x3
 5059 0356 0E        		.uleb128 0xe
 5060 0357 3A        		.uleb128 0x3a
 5061 0358 0B        		.uleb128 0xb
 5062 0359 3B        		.uleb128 0x3b
 5063 035a 05        		.uleb128 0x5
 5064 035b 39        		.uleb128 0x39
 5065 035c 0B        		.uleb128 0xb
 5066 035d 49        		.uleb128 0x49
 5067 035e 13        		.uleb128 0x13
 5068 035f 00        		.byte	0
 5069 0360 00        		.byte	0
 5070 0361 39        		.uleb128 0x39
 5071 0362 13        		.uleb128 0x13


 5072 0363 00        		.byte	0
 5073 0364 03        		.uleb128 0x3
 5074 0365 0E        		.uleb128 0xe
 5075 0366 3C        		.uleb128 0x3c
 5076 0367 19        		.uleb128 0x19
 5077 0368 00        		.byte	0
 5078 0369 00        		.byte	0
 5079 036a 3A        		.uleb128 0x3a
 5080 036b 15        		.uleb128 0x15
 5081 036c 01        		.byte	0x1
 5082 036d 01        		.uleb128 0x1
 5083 036e 13        		.uleb128 0x13
 5084 036f 00        		.byte	0
 5085 0370 00        		.byte	0
 5086 0371 3B        		.uleb128 0x3b
 5087 0372 13        		.uleb128 0x13
 5088 0373 01        		.byte	0x1
 5089 0374 0B        		.uleb128 0xb
 5090 0375 05        		.uleb128 0x5
 5091 0376 3A        		.uleb128 0x3a
 5092 0377 0B        		.uleb128 0xb
 5093 0378 3B        		.uleb128 0x3b
 5094 0379 0B        		.uleb128 0xb
 5095 037a 39        		.uleb128 0x39
 5096 037b 0B        		.uleb128 0xb
 5097 037c 01        		.uleb128 0x1
 5098 037d 13        		.uleb128 0x13
 5099 037e 00        		.byte	0
 5100 037f 00        		.byte	0
 5101 0380 3C        		.uleb128 0x3c
 5102 0381 0D        		.uleb128 0xd
 5103 0382 00        		.byte	0
 5104 0383 03        		.uleb128 0x3
 5105 0384 0E        		.uleb128 0xe
 5106 0385 3A        		.uleb128 0x3a
 5107 0386 0B        		.uleb128 0xb
 5108 0387 3B        		.uleb128 0x3b
 5109 0388 0B        		.uleb128 0xb
 5110 0389 39        		.uleb128 0x39
 5111 038a 0B        		.uleb128 0xb
 5112 038b 49        		.uleb128 0x49
 5113 038c 13        		.uleb128 0x13
 5114 038d 38        		.uleb128 0x38
 5115 038e 05        		.uleb128 0x5
 5116 038f 00        		.byte	0
 5117 0390 00        		.byte	0
 5118 0391 3D        		.uleb128 0x3d
 5119 0392 21        		.uleb128 0x21
 5120 0393 00        		.byte	0
 5121 0394 49        		.uleb128 0x49
 5122 0395 13        		.uleb128 0x13
 5123 0396 2F        		.uleb128 0x2f
 5124 0397 05        		.uleb128 0x5
 5125 0398 00        		.byte	0
 5126 0399 00        		.byte	0
 5127 039a 3E        		.uleb128 0x3e
 5128 039b 2E        		.uleb128 0x2e


 5129 039c 01        		.byte	0x1
 5130 039d 3F        		.uleb128 0x3f
 5131 039e 19        		.uleb128 0x19
 5132 039f 03        		.uleb128 0x3
 5133 03a0 0E        		.uleb128 0xe
 5134 03a1 3A        		.uleb128 0x3a
 5135 03a2 0B        		.uleb128 0xb
 5136 03a3 3B        		.uleb128 0x3b
 5137 03a4 05        		.uleb128 0x5
 5138 03a5 39        		.uleb128 0x39
 5139 03a6 0B        		.uleb128 0xb
 5140 03a7 27        		.uleb128 0x27
 5141 03a8 19        		.uleb128 0x19
 5142 03a9 49        		.uleb128 0x49
 5143 03aa 13        		.uleb128 0x13
 5144 03ab 3C        		.uleb128 0x3c
 5145 03ac 19        		.uleb128 0x19
 5146 03ad 01        		.uleb128 0x1
 5147 03ae 13        		.uleb128 0x13
 5148 03af 00        		.byte	0
 5149 03b0 00        		.byte	0
 5150 03b1 3F        		.uleb128 0x3f
 5151 03b2 2E        		.uleb128 0x2e
 5152 03b3 01        		.byte	0x1
 5153 03b4 3F        		.uleb128 0x3f
 5154 03b5 19        		.uleb128 0x19
 5155 03b6 03        		.uleb128 0x3
 5156 03b7 0E        		.uleb128 0xe
 5157 03b8 3A        		.uleb128 0x3a
 5158 03b9 0B        		.uleb128 0xb
 5159 03ba 3B        		.uleb128 0x3b
 5160 03bb 0B        		.uleb128 0xb
 5161 03bc 39        		.uleb128 0x39
 5162 03bd 0B        		.uleb128 0xb
 5163 03be 27        		.uleb128 0x27
 5164 03bf 19        		.uleb128 0x19
 5165 03c0 49        		.uleb128 0x49
 5166 03c1 13        		.uleb128 0x13
 5167 03c2 3C        		.uleb128 0x3c
 5168 03c3 19        		.uleb128 0x19
 5169 03c4 01        		.uleb128 0x1
 5170 03c5 13        		.uleb128 0x13
 5171 03c6 00        		.byte	0
 5172 03c7 00        		.byte	0
 5173 03c8 40        		.uleb128 0x40
 5174 03c9 2E        		.uleb128 0x2e
 5175 03ca 00        		.byte	0
 5176 03cb 3F        		.uleb128 0x3f
 5177 03cc 19        		.uleb128 0x19
 5178 03cd 03        		.uleb128 0x3
 5179 03ce 0E        		.uleb128 0xe
 5180 03cf 3A        		.uleb128 0x3a
 5181 03d0 0B        		.uleb128 0xb
 5182 03d1 3B        		.uleb128 0x3b
 5183 03d2 0B        		.uleb128 0xb
 5184 03d3 39        		.uleb128 0x39
 5185 03d4 0B        		.uleb128 0xb


 5186 03d5 27        		.uleb128 0x27
 5187 03d6 19        		.uleb128 0x19
 5188 03d7 3C        		.uleb128 0x3c
 5189 03d8 19        		.uleb128 0x19
 5190 03d9 00        		.byte	0
 5191 03da 00        		.byte	0
 5192 03db 41        		.uleb128 0x41
 5193 03dc 05        		.uleb128 0x5
 5194 03dd 00        		.byte	0
 5195 03de 31        		.uleb128 0x31
 5196 03df 13        		.uleb128 0x13
 5197 03e0 00        		.byte	0
 5198 03e1 00        		.byte	0
 5199 03e2 42        		.uleb128 0x42
 5200 03e3 0B        		.uleb128 0xb
 5201 03e4 01        		.byte	0x1
 5202 03e5 55        		.uleb128 0x55
 5203 03e6 17        		.uleb128 0x17
 5204 03e7 01        		.uleb128 0x1
 5205 03e8 13        		.uleb128 0x13
 5206 03e9 00        		.byte	0
 5207 03ea 00        		.byte	0
 5208 03eb 43        		.uleb128 0x43
 5209 03ec 2E        		.uleb128 0x2e
 5210 03ed 00        		.byte	0
 5211 03ee 3F        		.uleb128 0x3f
 5212 03ef 19        		.uleb128 0x19
 5213 03f0 03        		.uleb128 0x3
 5214 03f1 0E        		.uleb128 0xe
 5215 03f2 3A        		.uleb128 0x3a
 5216 03f3 0B        		.uleb128 0xb
 5217 03f4 3B        		.uleb128 0x3b
 5218 03f5 0B        		.uleb128 0xb
 5219 03f6 39        		.uleb128 0x39
 5220 03f7 0B        		.uleb128 0xb
 5221 03f8 20        		.uleb128 0x20
 5222 03f9 0B        		.uleb128 0xb
 5223 03fa 00        		.byte	0
 5224 03fb 00        		.byte	0
 5225 03fc 44        		.uleb128 0x44
 5226 03fd 0B        		.uleb128 0xb
 5227 03fe 01        		.byte	0x1
 5228 03ff 00        		.byte	0
 5229 0400 00        		.byte	0
 5230 0401 45        		.uleb128 0x45
 5231 0402 2E        		.uleb128 0x2e
 5232 0403 00        		.byte	0
 5233 0404 3F        		.uleb128 0x3f
 5234 0405 19        		.uleb128 0x19
 5235 0406 3C        		.uleb128 0x3c
 5236 0407 19        		.uleb128 0x19
 5237 0408 6E        		.uleb128 0x6e
 5238 0409 0E        		.uleb128 0xe
 5239 040a 03        		.uleb128 0x3
 5240 040b 0E        		.uleb128 0xe
 5241 040c 3A        		.uleb128 0x3a
 5242 040d 0B        		.uleb128 0xb


 5243 040e 3B        		.uleb128 0x3b
 5244 040f 0B        		.uleb128 0xb
 5245 0410 00        		.byte	0
 5246 0411 00        		.byte	0
 5247 0412 00        		.byte	0
 5248               		.section	.debug_loclists,"",@progbits
 5249 0000 0000 0851 		.long	.Ldebug_loc3-.Ldebug_loc2
 5250               	.Ldebug_loc2:
 5251 0004 0005      		.word	0x5
 5252 0006 04        		.byte	0x4
 5253 0007 00        		.byte	0
 5254 0008 0000 0000 		.long	0
 5255               	.Ldebug_loc0:
 5256               	.LVUS51:
 5257 000c 02        		.uleb128 .LVU381
 5258 000d 00        		.uleb128 .LVU387
 5259 000e 00        		.uleb128 .LVU387
 5260 000f 00        		.uleb128 0
 5261               	.LLST51:
 5262 0010 04        		.byte	0x4
 5263 0011 C60A      		.uleb128 .LVL93-.Ltext0
 5264 0013 F60A      		.uleb128 .LVL95-.Ltext0
 5265 0015 0B        		.uleb128 0xb
 5266 0016 71        		.byte	0x71
 5267 0017 00        		.sleb128 0
 5268 0018 3C        		.byte	0x3c
 5269 0019 1E        		.byte	0x1e
 5270 001a 03        		.byte	0x3
 5271 001b 0000 0000 		.long	semaphore
 5272 001f 22        		.byte	0x22
 5273 0020 9F        		.byte	0x9f
 5274 0021 04        		.byte	0x4
 5275 0022 F60A      		.uleb128 .LVL95-.Ltext0
 5276 0024 FC0C      		.uleb128 .LFE14-.Ltext0
 5277 0026 0C        		.uleb128 0xc
 5278 0027 91        		.byte	0x91
 5279 0028 70        		.sleb128 -16
 5280 0029 06        		.byte	0x6
 5281 002a 3C        		.byte	0x3c
 5282 002b 1E        		.byte	0x1e
 5283 002c 03        		.byte	0x3
 5284 002d 0000 0000 		.long	semaphore
 5285 0031 22        		.byte	0x22
 5286 0032 9F        		.byte	0x9f
 5287 0033 00        		.byte	0
 5288               	.LVUS52:
 5289 0034 02        		.uleb128 .LVU409
 5290 0035 00        		.uleb128 .LVU421
 5291 0036 00        		.uleb128 .LVU422
 5292 0037 00        		.uleb128 .LVU442
 5293               	.LLST52:
 5294 0038 04        		.byte	0x4
 5295 0039 E00B      		.uleb128 .LVL101-.Ltext0
 5296 003b 860C      		.uleb128 .LVL102-.Ltext0
 5297 003d 01        		.uleb128 0x1
 5298 003e 51        		.byte	0x51
 5299 003f 04        		.byte	0x4


 5300 0040 8C0C      		.uleb128 .LVL103-.Ltext0
 5301 0042 E00C      		.uleb128 .LVL108-.Ltext0
 5302 0044 01        		.uleb128 0x1
 5303 0045 51        		.byte	0x51
 5304 0046 00        		.byte	0
 5305               	.LVUS54:
 5306 0047 00        		.uleb128 .LVU384
 5307 0048 00        		.uleb128 .LVU399
 5308 0049 00        		.uleb128 .LVU401
 5309 004a 02        		.uleb128 .LVU409
 5310 004b 00        		.uleb128 .LVU443
 5311 004c 00        		.uleb128 0
 5312               	.LLST54:
 5313 004d 04        		.byte	0x4
 5314 004e EE0A      		.uleb128 .LVL94-.Ltext0
 5315 0050 BC0B      		.uleb128 .LVL98-.Ltext0
 5316 0052 01        		.uleb128 0x1
 5317 0053 52        		.byte	0x52
 5318 0054 04        		.byte	0x4
 5319 0055 C20B      		.uleb128 .LVL99-.Ltext0
 5320 0057 E00B      		.uleb128 .LVL101-.Ltext0
 5321 0059 01        		.uleb128 0x1
 5322 005a 52        		.byte	0x52
 5323 005b 04        		.byte	0x4
 5324 005c E20C      		.uleb128 .LVL109-.Ltext0
 5325 005e FC0C      		.uleb128 .LFE14-.Ltext0
 5326 0060 01        		.uleb128 0x1
 5327 0061 52        		.byte	0x52
 5328 0062 00        		.byte	0
 5329               	.LVUS55:
 5330 0063 01        		.uleb128 .LVU402
 5331 0064 02        		.uleb128 .LVU409
 5332               	.LLST55:
 5333 0065 04        		.byte	0x4
 5334 0066 C20B      		.uleb128 .LVL99-.Ltext0
 5335 0068 E00B      		.uleb128 .LVL101-.Ltext0
 5336 006a 01        		.uleb128 0x1
 5337 006b 51        		.byte	0x51
 5338 006c 00        		.byte	0
 5339               	.LVUS57:
 5340 006d 01        		.uleb128 .LVU385
 5341 006e 00        		.uleb128 .LVU387
 5342 006f 00        		.uleb128 .LVU387
 5343 0070 00        		.uleb128 .LVU399
 5344 0071 00        		.uleb128 .LVU401
 5345 0072 00        		.uleb128 .LVU405
 5346 0073 00        		.uleb128 .LVU443
 5347 0074 00        		.uleb128 .LVU446
 5348               	.LLST57:
 5349 0075 04        		.byte	0x4
 5350 0076 EE0A      		.uleb128 .LVL94-.Ltext0
 5351 0078 F60A      		.uleb128 .LVL95-.Ltext0
 5352 007a 02        		.uleb128 0x2
 5353 007b 30        		.byte	0x30
 5354 007c 9F        		.byte	0x9f
 5355 007d 04        		.byte	0x4
 5356 007e F60A      		.uleb128 .LVL95-.Ltext0


 5357 0080 BC0B      		.uleb128 .LVL98-.Ltext0
 5358 0082 01        		.uleb128 0x1
 5359 0083 59        		.byte	0x59
 5360 0084 04        		.byte	0x4
 5361 0085 C20B      		.uleb128 .LVL99-.Ltext0
 5362 0087 D20B      		.uleb128 .LVL100-.Ltext0
 5363 0089 01        		.uleb128 0x1
 5364 008a 59        		.byte	0x59
 5365 008b 04        		.byte	0x4
 5366 008c E20C      		.uleb128 .LVL109-.Ltext0
 5367 008e E80C      		.uleb128 .LVL110-.Ltext0
 5368 0090 01        		.uleb128 0x1
 5369 0091 59        		.byte	0x59
 5370 0092 00        		.byte	0
 5371               	.LVUS59:
 5372 0093 00        		.uleb128 .LVU393
 5373 0094 00        		.uleb128 .LVU399
 5374 0095 00        		.uleb128 .LVU443
 5375 0096 00        		.uleb128 0
 5376               	.LLST59:
 5377 0097 04        		.byte	0x4
 5378 0098 9C0B      		.uleb128 .LVL97-.Ltext0
 5379 009a BC0B      		.uleb128 .LVL98-.Ltext0
 5380 009c 01        		.uleb128 0x1
 5381 009d 52        		.byte	0x52
 5382 009e 04        		.byte	0x4
 5383 009f E20C      		.uleb128 .LVL109-.Ltext0
 5384 00a1 FC0C      		.uleb128 .LFE14-.Ltext0
 5385 00a3 01        		.uleb128 0x1
 5386 00a4 52        		.byte	0x52
 5387 00a5 00        		.byte	0
 5388               	.LVUS60:
 5389 00a6 01        		.uleb128 .LVU444
 5390 00a7 00        		.uleb128 0
 5391               	.LLST60:
 5392 00a8 04        		.byte	0x4
 5393 00a9 E20C      		.uleb128 .LVL109-.Ltext0
 5394 00ab FC0C      		.uleb128 .LFE14-.Ltext0
 5395 00ad 01        		.uleb128 0x1
 5396 00ae 51        		.byte	0x51
 5397 00af 00        		.byte	0
 5398               	.LVUS61:
 5399 00b0 01        		.uleb128 .LVU423
 5400 00b1 00        		.uleb128 .LVU440
 5401               	.LLST61:
 5402 00b2 04        		.byte	0x4
 5403 00b3 8C0C      		.uleb128 .LVL103-.Ltext0
 5404 00b5 DA0C      		.uleb128 .LVL107-.Ltext0
 5405 00b7 01        		.uleb128 0x1
 5406 00b8 51        		.byte	0x51
 5407 00b9 00        		.byte	0
 5408               	.LVUS62:
 5409 00ba 01        		.uleb128 .LVU423
 5410 00bb 00        		.uleb128 .LVU430
 5411 00bc 00        		.uleb128 .LVU430
 5412 00bd 00        		.uleb128 .LVU440
 5413               	.LLST62:


 5414 00be 04        		.byte	0x4
 5415 00bf 8C0C      		.uleb128 .LVL103-.Ltext0
 5416 00c1 A20C      		.uleb128 .LVL104-.Ltext0
 5417 00c3 0B        		.uleb128 0xb
 5418 00c4 72        		.byte	0x72
 5419 00c5 00        		.sleb128 0
 5420 00c6 44        		.byte	0x44
 5421 00c7 1E        		.byte	0x1e
 5422 00c8 03        		.byte	0x3
 5423 00c9 0000 0000 		.long	task_tab
 5424 00cd 22        		.byte	0x22
 5425 00ce 9F        		.byte	0x9f
 5426 00cf 04        		.byte	0x4
 5427 00d0 A20C      		.uleb128 .LVL104-.Ltext0
 5428 00d2 DA0C      		.uleb128 .LVL107-.Ltext0
 5429 00d4 0F        		.uleb128 0xf
 5430 00d5 03        		.byte	0x3
 5431 00d6 0000 0000 		.long	ready
 5432 00da 06        		.byte	0x6
 5433 00db 44        		.byte	0x44
 5434 00dc 1E        		.byte	0x1e
 5435 00dd 03        		.byte	0x3
 5436 00de 0000 0000 		.long	task_tab
 5437 00e2 22        		.byte	0x22
 5438 00e3 9F        		.byte	0x9f
 5439 00e4 00        		.byte	0
 5440               	.LVUS63:
 5441 00e5 04        		.uleb128 .LVU426
 5442 00e6 00        		.uleb128 .LVU430
 5443 00e7 00        		.uleb128 .LVU430
 5444 00e8 01        		.uleb128 .LVU431
 5445 00e9 01        		.uleb128 .LVU431
 5446 00ea 00        		.uleb128 .LVU433
 5447 00eb 00        		.uleb128 .LVU433
 5448 00ec 00        		.uleb128 .LVU436
 5449               	.LLST63:
 5450 00ed 04        		.byte	0x4
 5451 00ee 8C0C      		.uleb128 .LVL103-.Ltext0
 5452 00f0 A20C      		.uleb128 .LVL104-.Ltext0
 5453 00f2 0B        		.uleb128 0xb
 5454 00f3 72        		.byte	0x72
 5455 00f4 00        		.sleb128 0
 5456 00f5 44        		.byte	0x44
 5457 00f6 1E        		.byte	0x1e
 5458 00f7 03        		.byte	0x3
 5459 00f8 0000 0000 		.long	task_tab
 5460 00fc 22        		.byte	0x22
 5461 00fd 9F        		.byte	0x9f
 5462 00fe 04        		.byte	0x4
 5463 00ff A20C      		.uleb128 .LVL104-.Ltext0
 5464 0101 A20C      		.uleb128 .LVL104-.Ltext0
 5465 0103 0F        		.uleb128 0xf
 5466 0104 03        		.byte	0x3
 5467 0105 0000 0000 		.long	ready
 5468 0109 06        		.byte	0x6
 5469 010a 44        		.byte	0x44
 5470 010b 1E        		.byte	0x1e


 5471 010c 03        		.byte	0x3
 5472 010d 0000 0000 		.long	task_tab
 5473 0111 22        		.byte	0x22
 5474 0112 9F        		.byte	0x9f
 5475 0113 04        		.byte	0x4
 5476 0114 A20C      		.uleb128 .LVL104-.Ltext0
 5477 0116 A60C      		.uleb128 .LVL105-.Ltext0
 5478 0118 0B        		.uleb128 0xb
 5479 0119 70        		.byte	0x70
 5480 011a 00        		.sleb128 0
 5481 011b 44        		.byte	0x44
 5482 011c 1E        		.byte	0x1e
 5483 011d 03        		.byte	0x3
 5484 011e 0000 0000 		.long	task_tab
 5485 0122 22        		.byte	0x22
 5486 0123 9F        		.byte	0x9f
 5487 0124 04        		.byte	0x4
 5488 0125 A60C      		.uleb128 .LVL105-.Ltext0
 5489 0127 C80C      		.uleb128 .LVL106-.Ltext0
 5490 0129 0B        		.uleb128 0xb
 5491 012a 72        		.byte	0x72
 5492 012b 00        		.sleb128 0
 5493 012c 44        		.byte	0x44
 5494 012d 1E        		.byte	0x1e
 5495 012e 03        		.byte	0x3
 5496 012f 0000 0000 		.long	task_tab
 5497 0133 22        		.byte	0x22
 5498 0134 9F        		.byte	0x9f
 5499 0135 00        		.byte	0
 5500               	.LVUS39:
 5501 0136 02        		.uleb128 .LVU284
 5502 0137 00        		.uleb128 .LVU286
 5503 0138 00        		.uleb128 .LVU286
 5504 0139 00        		.uleb128 0
 5505               	.LLST39:
 5506 013a 04        		.byte	0x4
 5507 013b C807      		.uleb128 .LVL74-.Ltext0
 5508 013d DE07      		.uleb128 .LVL75-.Ltext0
 5509 013f 0B        		.uleb128 0xb
 5510 0140 71        		.byte	0x71
 5511 0141 00        		.sleb128 0
 5512 0142 3C        		.byte	0x3c
 5513 0143 1E        		.byte	0x1e
 5514 0144 03        		.byte	0x3
 5515 0145 0000 0000 		.long	semaphore
 5516 0149 22        		.byte	0x22
 5517 014a 9F        		.byte	0x9f
 5518 014b 04        		.byte	0x4
 5519 014c DE07      		.uleb128 .LVL75-.Ltext0
 5520 014e 940A      		.uleb128 .LFE13-.Ltext0
 5521 0150 0C        		.uleb128 0xc
 5522 0151 91        		.byte	0x91
 5523 0152 70        		.sleb128 -16
 5524 0153 06        		.byte	0x6
 5525 0154 3C        		.byte	0x3c
 5526 0155 1E        		.byte	0x1e
 5527 0156 03        		.byte	0x3


 5528 0157 0000 0000 		.long	semaphore
 5529 015b 22        		.byte	0x22
 5530 015c 9F        		.byte	0x9f
 5531 015d 00        		.byte	0
 5532               	.LVUS42:
 5533 015e 00        		.uleb128 .LVU299
 5534 015f 00        		.uleb128 .LVU302
 5535 0160 00        		.uleb128 .LVU348
 5536 0161 00        		.uleb128 .LVU351
 5537               	.LLST42:
 5538 0162 04        		.byte	0x4
 5539 0163 A008      		.uleb128 .LVL76-.Ltext0
 5540 0165 A808      		.uleb128 .LVL77-.Ltext0
 5541 0167 09        		.uleb128 0x9
 5542 0168 73        		.byte	0x73
 5543 0169 00        		.sleb128 0
 5544 016a 03        		.byte	0x3
 5545 016b 0000 0000 		.long	task_tab
 5546 016f 22        		.byte	0x22
 5547 0170 9F        		.byte	0x9f
 5548 0171 04        		.byte	0x4
 5549 0172 E009      		.uleb128 .LVL86-.Ltext0
 5550 0174 EC09      		.uleb128 .LVL87-.Ltext0
 5551 0176 09        		.uleb128 0x9
 5552 0177 73        		.byte	0x73
 5553 0178 00        		.sleb128 0
 5554 0179 03        		.byte	0x3
 5555 017a 0000 0000 		.long	task_tab
 5556 017e 22        		.byte	0x22
 5557 017f 9F        		.byte	0x9f
 5558 0180 00        		.byte	0
 5559               	.LVUS43:
 5560 0181 01        		.uleb128 .LVU352
 5561 0182 00        		.uleb128 0
 5562               	.LLST43:
 5563 0183 04        		.byte	0x4
 5564 0184 EC09      		.uleb128 .LVL87-.Ltext0
 5565 0186 940A      		.uleb128 .LFE13-.Ltext0
 5566 0188 01        		.uleb128 0x1
 5567 0189 51        		.byte	0x51
 5568 018a 00        		.byte	0
 5569               	.LVUS45:
 5570 018b 01        		.uleb128 .LVU300
 5571 018c 00        		.uleb128 .LVU302
 5572 018d 00        		.uleb128 .LVU302
 5573 018e 02        		.uleb128 .LVU316
 5574 018f 01        		.uleb128 .LVU349
 5575 0190 00        		.uleb128 .LVU351
 5576 0191 00        		.uleb128 .LVU351
 5577 0192 00        		.uleb128 .LVU359
 5578               	.LLST45:
 5579 0193 04        		.byte	0x4
 5580 0194 A008      		.uleb128 .LVL76-.Ltext0
 5581 0196 A808      		.uleb128 .LVL77-.Ltext0
 5582 0198 02        		.uleb128 0x2
 5583 0199 30        		.byte	0x30
 5584 019a 9F        		.byte	0x9f


 5585 019b 04        		.byte	0x4
 5586 019c A808      		.uleb128 .LVL77-.Ltext0
 5587 019e D808      		.uleb128 .LVL80-.Ltext0
 5588 01a0 01        		.uleb128 0x1
 5589 01a1 58        		.byte	0x58
 5590 01a2 04        		.byte	0x4
 5591 01a3 E009      		.uleb128 .LVL86-.Ltext0
 5592 01a5 EC09      		.uleb128 .LVL87-.Ltext0
 5593 01a7 02        		.uleb128 0x2
 5594 01a8 30        		.byte	0x30
 5595 01a9 9F        		.byte	0x9f
 5596 01aa 04        		.byte	0x4
 5597 01ab EC09      		.uleb128 .LVL87-.Ltext0
 5598 01ad 860A      		.uleb128 .LVL88-.Ltext0
 5599 01af 01        		.uleb128 0x1
 5600 01b0 58        		.byte	0x58
 5601 01b1 00        		.byte	0
 5602               	.LVUS46:
 5603 01b2 04        		.uleb128 .LVU311
 5604 01b3 02        		.uleb128 .LVU316
 5605               	.LLST46:
 5606 01b4 04        		.byte	0x4
 5607 01b5 C808      		.uleb128 .LVL79-.Ltext0
 5608 01b7 D808      		.uleb128 .LVL80-.Ltext0
 5609 01b9 01        		.uleb128 0x1
 5610 01ba 54        		.byte	0x54
 5611 01bb 00        		.byte	0
 5612               	.LVUS47:
 5613 01bc 01        		.uleb128 .LVU324
 5614 01bd 00        		.uleb128 .LVU341
 5615               	.LLST47:
 5616 01be 04        		.byte	0x4
 5617 01bf EC08      		.uleb128 .LVL81-.Ltext0
 5618 01c1 C609      		.uleb128 .LVL85-.Ltext0
 5619 01c3 05        		.uleb128 0x5
 5620 01c4 03        		.byte	0x3
 5621 01c5 0000 0000 		.long	curr_task
 5622 01c9 00        		.byte	0
 5623               	.LVUS48:
 5624 01ca 01        		.uleb128 .LVU324
 5625 01cb 00        		.uleb128 .LVU331
 5626 01cc 00        		.uleb128 .LVU331
 5627 01cd 00        		.uleb128 .LVU341
 5628               	.LLST48:
 5629 01ce 04        		.byte	0x4
 5630 01cf EC08      		.uleb128 .LVL81-.Ltext0
 5631 01d1 8809      		.uleb128 .LVL82-.Ltext0
 5632 01d3 0B        		.uleb128 0xb
 5633 01d4 71        		.byte	0x71
 5634 01d5 00        		.sleb128 0
 5635 01d6 44        		.byte	0x44
 5636 01d7 1E        		.byte	0x1e
 5637 01d8 03        		.byte	0x3
 5638 01d9 0000 0000 		.long	task_tab
 5639 01dd 22        		.byte	0x22
 5640 01de 9F        		.byte	0x9f
 5641 01df 04        		.byte	0x4


 5642 01e0 8809      		.uleb128 .LVL82-.Ltext0
 5643 01e2 C609      		.uleb128 .LVL85-.Ltext0
 5644 01e4 1A        		.uleb128 0x1a
 5645 01e5 91        		.byte	0x91
 5646 01e6 70        		.sleb128 -16
 5647 01e7 06        		.byte	0x6
 5648 01e8 31        		.byte	0x31
 5649 01e9 24        		.byte	0x24
 5650 01ea 91        		.byte	0x91
 5651 01eb 70        		.sleb128 -16
 5652 01ec 06        		.byte	0x6
 5653 01ed 22        		.byte	0x22
 5654 01ee 32        		.byte	0x32
 5655 01ef 24        		.byte	0x24
 5656 01f0 7A        		.byte	0x7a
 5657 01f1 00        		.sleb128 0
 5658 01f2 22        		.byte	0x22
 5659 01f3 23        		.byte	0x23
 5660 01f4 08        		.uleb128 0x8
 5661 01f5 06        		.byte	0x6
 5662 01f6 44        		.byte	0x44
 5663 01f7 1E        		.byte	0x1e
 5664 01f8 03        		.byte	0x3
 5665 01f9 0000 0000 		.long	task_tab
 5666 01fd 22        		.byte	0x22
 5667 01fe 9F        		.byte	0x9f
 5668 01ff 00        		.byte	0
 5669               	.LVUS49:
 5670 0200 04        		.uleb128 .LVU327
 5671 0201 00        		.uleb128 .LVU331
 5672 0202 00        		.uleb128 .LVU331
 5673 0203 01        		.uleb128 .LVU332
 5674 0204 01        		.uleb128 .LVU332
 5675 0205 00        		.uleb128 .LVU334
 5676 0206 00        		.uleb128 .LVU334
 5677 0207 00        		.uleb128 .LVU337
 5678               	.LLST49:
 5679 0208 04        		.byte	0x4
 5680 0209 EC08      		.uleb128 .LVL81-.Ltext0
 5681 020b 8809      		.uleb128 .LVL82-.Ltext0
 5682 020d 0B        		.uleb128 0xb
 5683 020e 71        		.byte	0x71
 5684 020f 00        		.sleb128 0
 5685 0210 44        		.byte	0x44
 5686 0211 1E        		.byte	0x1e
 5687 0212 03        		.byte	0x3
 5688 0213 0000 0000 		.long	task_tab
 5689 0217 22        		.byte	0x22
 5690 0218 9F        		.byte	0x9f
 5691 0219 04        		.byte	0x4
 5692 021a 8809      		.uleb128 .LVL82-.Ltext0
 5693 021c 8809      		.uleb128 .LVL82-.Ltext0
 5694 021e 1A        		.uleb128 0x1a
 5695 021f 91        		.byte	0x91
 5696 0220 70        		.sleb128 -16
 5697 0221 06        		.byte	0x6
 5698 0222 31        		.byte	0x31


 5699 0223 24        		.byte	0x24
 5700 0224 91        		.byte	0x91
 5701 0225 70        		.sleb128 -16
 5702 0226 06        		.byte	0x6
 5703 0227 22        		.byte	0x22
 5704 0228 32        		.byte	0x32
 5705 0229 24        		.byte	0x24
 5706 022a 7A        		.byte	0x7a
 5707 022b 00        		.sleb128 0
 5708 022c 22        		.byte	0x22
 5709 022d 23        		.byte	0x23
 5710 022e 08        		.uleb128 0x8
 5711 022f 06        		.byte	0x6
 5712 0230 44        		.byte	0x44
 5713 0231 1E        		.byte	0x1e
 5714 0232 03        		.byte	0x3
 5715 0233 0000 0000 		.long	task_tab
 5716 0237 22        		.byte	0x22
 5717 0238 9F        		.byte	0x9f
 5718 0239 04        		.byte	0x4
 5719 023a 8809      		.uleb128 .LVL82-.Ltext0
 5720 023c 8C09      		.uleb128 .LVL83-.Ltext0
 5721 023e 0B        		.uleb128 0xb
 5722 023f 70        		.byte	0x70
 5723 0240 00        		.sleb128 0
 5724 0241 44        		.byte	0x44
 5725 0242 1E        		.byte	0x1e
 5726 0243 03        		.byte	0x3
 5727 0244 0000 0000 		.long	task_tab
 5728 0248 22        		.byte	0x22
 5729 0249 9F        		.byte	0x9f
 5730 024a 04        		.byte	0x4
 5731 024b 8C09      		.uleb128 .LVL83-.Ltext0
 5732 024d AE09      		.uleb128 .LVL84-.Ltext0
 5733 024f 0B        		.uleb128 0xb
 5734 0250 71        		.byte	0x71
 5735 0251 00        		.sleb128 0
 5736 0252 44        		.byte	0x44
 5737 0253 1E        		.byte	0x1e
 5738 0254 03        		.byte	0x3
 5739 0255 0000 0000 		.long	task_tab
 5740 0259 22        		.byte	0x22
 5741 025a 9F        		.byte	0x9f
 5742 025b 00        		.byte	0
 5743               	.LVUS65:
 5744 025c 02        		.uleb128 .LVU468
 5745 025d 00        		.uleb128 .LVU544
 5746 025e 00        		.uleb128 .LVU544
 5747 025f 00        		.uleb128 .LVU545
 5748 0260 00        		.uleb128 .LVU545
 5749 0261 00        		.uleb128 .LVU603
 5750 0262 00        		.uleb128 .LVU603
 5751 0263 00        		.uleb128 .LVU605
 5752               	.LLST65:
 5753 0264 04        		.byte	0x4
 5754 0265 AE0D      		.uleb128 .LVL115-.Ltext0
 5755 0267 B20F      		.uleb128 .LVL129-.Ltext0


 5756 0269 0B        		.uleb128 0xb
 5757 026a 73        		.byte	0x73
 5758 026b 00        		.sleb128 0
 5759 026c 3C        		.byte	0x3c
 5760 026d 1E        		.byte	0x1e
 5761 026e 03        		.byte	0x3
 5762 026f 0000 0000 		.long	semaphore
 5763 0273 22        		.byte	0x22
 5764 0274 9F        		.byte	0x9f
 5765 0275 04        		.byte	0x4
 5766 0276 B20F      		.uleb128 .LVL129-.Ltext0
 5767 0278 B40F      		.uleb128 .LVL130-.Ltext0
 5768 027a 0C        		.uleb128 0xc
 5769 027b 91        		.byte	0x91
 5770 027c 70        		.sleb128 -16
 5771 027d 06        		.byte	0x6
 5772 027e 3C        		.byte	0x3c
 5773 027f 1E        		.byte	0x1e
 5774 0280 03        		.byte	0x3
 5775 0281 0000 0000 		.long	semaphore
 5776 0285 22        		.byte	0x22
 5777 0286 9F        		.byte	0x9f
 5778 0287 04        		.byte	0x4
 5779 0288 B40F      		.uleb128 .LVL130-.Ltext0
 5780 028a D210      		.uleb128 .LVL143-.Ltext0
 5781 028c 0B        		.uleb128 0xb
 5782 028d 73        		.byte	0x73
 5783 028e 00        		.sleb128 0
 5784 028f 3C        		.byte	0x3c
 5785 0290 1E        		.byte	0x1e
 5786 0291 03        		.byte	0x3
 5787 0292 0000 0000 		.long	semaphore
 5788 0296 22        		.byte	0x22
 5789 0297 9F        		.byte	0x9f
 5790 0298 04        		.byte	0x4
 5791 0299 D210      		.uleb128 .LVL143-.Ltext0
 5792 029b D510      		.uleb128 .LVL144-1-.Ltext0
 5793 029d 0C        		.uleb128 0xc
 5794 029e 91        		.byte	0x91
 5795 029f 70        		.sleb128 -16
 5796 02a0 06        		.byte	0x6
 5797 02a1 3C        		.byte	0x3c
 5798 02a2 1E        		.byte	0x1e
 5799 02a3 03        		.byte	0x3
 5800 02a4 0000 0000 		.long	semaphore
 5801 02a8 22        		.byte	0x22
 5802 02a9 9F        		.byte	0x9f
 5803 02aa 00        		.byte	0
 5804               	.LVUS67:
 5805 02ab 00        		.uleb128 .LVU473
 5806 02ac 00        		.uleb128 .LVU476
 5807 02ad 00        		.uleb128 .LVU476
 5808 02ae 00        		.uleb128 .LVU533
 5809 02af 00        		.uleb128 .LVU545
 5810 02b0 00        		.uleb128 .LVU600
 5811               	.LLST67:
 5812 02b1 04        		.byte	0x4


 5813 02b2 D40D      		.uleb128 .LVL116-.Ltext0
 5814 02b4 F00D      		.uleb128 .LVL117-.Ltext0
 5815 02b6 02        		.uleb128 0x2
 5816 02b7 30        		.byte	0x30
 5817 02b8 9F        		.byte	0x9f
 5818 02b9 04        		.byte	0x4
 5819 02ba F00D      		.uleb128 .LVL117-.Ltext0
 5820 02bc A40F      		.uleb128 .LVL127-.Ltext0
 5821 02be 01        		.uleb128 0x1
 5822 02bf 52        		.byte	0x52
 5823 02c0 04        		.byte	0x4
 5824 02c1 B40F      		.uleb128 .LVL130-.Ltext0
 5825 02c3 CA10      		.uleb128 .LVL142-.Ltext0
 5826 02c5 01        		.uleb128 0x1
 5827 02c6 52        		.byte	0x52
 5828 02c7 00        		.byte	0
 5829               	.LVUS69:
 5830 02c8 02        		.uleb128 .LVU478
 5831 02c9 00        		.uleb128 .LVU485
 5832 02ca 00        		.uleb128 .LVU545
 5833 02cb 00        		.uleb128 .LVU546
 5834 02cc 02        		.uleb128 .LVU566
 5835 02cd 00        		.uleb128 .LVU573
 5836               	.LLST69:
 5837 02ce 04        		.byte	0x4
 5838 02cf F00D      		.uleb128 .LVL117-.Ltext0
 5839 02d1 FA0D      		.uleb128 .LVL118-.Ltext0
 5840 02d3 01        		.uleb128 0x1
 5841 02d4 53        		.byte	0x53
 5842 02d5 04        		.byte	0x4
 5843 02d6 B40F      		.uleb128 .LVL130-.Ltext0
 5844 02d8 BC0F      		.uleb128 .LVL132-.Ltext0
 5845 02da 01        		.uleb128 0x1
 5846 02db 53        		.byte	0x53
 5847 02dc 04        		.byte	0x4
 5848 02dd F60F      		.uleb128 .LVL137-.Ltext0
 5849 02df 8210      		.uleb128 .LVL138-.Ltext0
 5850 02e1 01        		.uleb128 0x1
 5851 02e2 53        		.byte	0x53
 5852 02e3 00        		.byte	0
 5853               	.LVUS70:
 5854 02e4 05        		.uleb128 .LVU481
 5855 02e5 00        		.uleb128 .LVU485
 5856 02e6 05        		.uleb128 .LVU569
 5857 02e7 00        		.uleb128 .LVU573
 5858               	.LLST70:
 5859 02e8 04        		.byte	0x4
 5860 02e9 F00D      		.uleb128 .LVL117-.Ltext0
 5861 02eb FA0D      		.uleb128 .LVL118-.Ltext0
 5862 02ed 0B        		.uleb128 0xb
 5863 02ee 73        		.byte	0x73
 5864 02ef 00        		.sleb128 0
 5865 02f0 3C        		.byte	0x3c
 5866 02f1 1E        		.byte	0x1e
 5867 02f2 03        		.byte	0x3
 5868 02f3 0000 0000 		.long	semaphore
 5869 02f7 22        		.byte	0x22


 5870 02f8 9F        		.byte	0x9f
 5871 02f9 04        		.byte	0x4
 5872 02fa F60F      		.uleb128 .LVL137-.Ltext0
 5873 02fc 8210      		.uleb128 .LVL138-.Ltext0
 5874 02fe 0B        		.uleb128 0xb
 5875 02ff 73        		.byte	0x73
 5876 0300 00        		.sleb128 0
 5877 0301 3C        		.byte	0x3c
 5878 0302 1E        		.byte	0x1e
 5879 0303 03        		.byte	0x3
 5880 0304 0000 0000 		.long	semaphore
 5881 0308 22        		.byte	0x22
 5882 0309 9F        		.byte	0x9f
 5883 030a 00        		.byte	0
 5884               	.LVUS72:
 5885 030b 00        		.uleb128 .LVU489
 5886 030c 00        		.uleb128 .LVU506
 5887 030d 00        		.uleb128 .LVU550
 5888 030e 00        		.uleb128 .LVU557
 5889 030f 00        		.uleb128 .LVU573
 5890 0310 00        		.uleb128 .LVU579
 5891               	.LLST72:
 5892 0311 04        		.byte	0x4
 5893 0312 9A0E      		.uleb128 .LVL119-.Ltext0
 5894 0314 DC0E      		.uleb128 .LVL122-.Ltext0
 5895 0316 01        		.uleb128 0x1
 5896 0317 55        		.byte	0x55
 5897 0318 04        		.byte	0x4
 5898 0319 DC0F      		.uleb128 .LVL133-.Ltext0
 5899 031b E60F      		.uleb128 .LVL134-.Ltext0
 5900 031d 01        		.uleb128 0x1
 5901 031e 55        		.byte	0x55
 5902 031f 04        		.byte	0x4
 5903 0320 8210      		.uleb128 .LVL138-.Ltext0
 5904 0322 9810      		.uleb128 .LVL139-.Ltext0
 5905 0324 01        		.uleb128 0x1
 5906 0325 55        		.byte	0x55
 5907 0326 00        		.byte	0
 5908               	.LVUS73:
 5909 0327 00        		.uleb128 .LVU489
 5910 0328 00        		.uleb128 .LVU506
 5911 0329 00        		.uleb128 .LVU550
 5912 032a 00        		.uleb128 .LVU557
 5913 032b 00        		.uleb128 .LVU573
 5914 032c 00        		.uleb128 .LVU579
 5915               	.LLST73:
 5916 032d 04        		.byte	0x4
 5917 032e 9A0E      		.uleb128 .LVL119-.Ltext0
 5918 0330 DC0E      		.uleb128 .LVL122-.Ltext0
 5919 0332 01        		.uleb128 0x1
 5920 0333 58        		.byte	0x58
 5921 0334 04        		.byte	0x4
 5922 0335 DC0F      		.uleb128 .LVL133-.Ltext0
 5923 0337 E60F      		.uleb128 .LVL134-.Ltext0
 5924 0339 01        		.uleb128 0x1
 5925 033a 58        		.byte	0x58
 5926 033b 04        		.byte	0x4


 5927 033c 8210      		.uleb128 .LVL138-.Ltext0
 5928 033e 9810      		.uleb128 .LVL139-.Ltext0
 5929 0340 01        		.uleb128 0x1
 5930 0341 58        		.byte	0x58
 5931 0342 00        		.byte	0
 5932               	.LVUS74:
 5933 0343 03        		.uleb128 .LVU492
 5934 0344 01        		.uleb128 .LVU497
 5935 0345 01        		.uleb128 .LVU497
 5936 0346 00        		.uleb128 .LVU499
 5937 0347 00        		.uleb128 .LVU499
 5938 0348 00        		.uleb128 .LVU506
 5939 0349 03        		.uleb128 .LVU553
 5940 034a 00        		.uleb128 .LVU557
 5941 034b 00        		.uleb128 .LVU573
 5942 034c 00        		.uleb128 .LVU579
 5943               	.LLST74:
 5944 034d 04        		.byte	0x4
 5945 034e 9A0E      		.uleb128 .LVL119-.Ltext0
 5946 0350 A20E      		.uleb128 .LVL120-.Ltext0
 5947 0352 01        		.uleb128 0x1
 5948 0353 58        		.byte	0x58
 5949 0354 04        		.byte	0x4
 5950 0355 A20E      		.uleb128 .LVL120-.Ltext0
 5951 0357 A60E      		.uleb128 .LVL121-.Ltext0
 5952 0359 0B        		.uleb128 0xb
 5953 035a 70        		.byte	0x70
 5954 035b 00        		.sleb128 0
 5955 035c 44        		.byte	0x44
 5956 035d 1E        		.byte	0x1e
 5957 035e 03        		.byte	0x3
 5958 035f 0000 0000 		.long	task_tab
 5959 0363 22        		.byte	0x22
 5960 0364 9F        		.byte	0x9f
 5961 0365 04        		.byte	0x4
 5962 0366 A60E      		.uleb128 .LVL121-.Ltext0
 5963 0368 DC0E      		.uleb128 .LVL122-.Ltext0
 5964 036a 0B        		.uleb128 0xb
 5965 036b 71        		.byte	0x71
 5966 036c 00        		.sleb128 0
 5967 036d 44        		.byte	0x44
 5968 036e 1E        		.byte	0x1e
 5969 036f 03        		.byte	0x3
 5970 0370 0000 0000 		.long	task_tab
 5971 0374 22        		.byte	0x22
 5972 0375 9F        		.byte	0x9f
 5973 0376 04        		.byte	0x4
 5974 0377 DC0F      		.uleb128 .LVL133-.Ltext0
 5975 0379 E60F      		.uleb128 .LVL134-.Ltext0
 5976 037b 01        		.uleb128 0x1
 5977 037c 58        		.byte	0x58
 5978 037d 04        		.byte	0x4
 5979 037e 8210      		.uleb128 .LVL138-.Ltext0
 5980 0380 9810      		.uleb128 .LVL139-.Ltext0
 5981 0382 01        		.uleb128 0x1
 5982 0383 58        		.byte	0x58
 5983 0384 00        		.byte	0


 5984               	.LVUS77:
 5985 0385 05        		.uleb128 .LVU511
 5986 0386 02        		.uleb128 .LVU529
 5987 0387 05        		.uleb128 .LVU584
 5988 0388 00        		.uleb128 .LVU595
 5989               	.LLST77:
 5990 0389 04        		.byte	0x4
 5991 038a DC0E      		.uleb128 .LVL122-.Ltext0
 5992 038c 9A0F      		.uleb128 .LVL126-.Ltext0
 5993 038e 01        		.uleb128 0x1
 5994 038f 58        		.byte	0x58
 5995 0390 04        		.byte	0x4
 5996 0391 9810      		.uleb128 .LVL139-.Ltext0
 5997 0393 BE10      		.uleb128 .LVL141-.Ltext0
 5998 0395 01        		.uleb128 0x1
 5999 0396 58        		.byte	0x58
 6000 0397 00        		.byte	0
 6001               	.LVUS78:
 6002 0398 01        		.uleb128 .LVU588
 6003 0399 00        		.uleb128 .LVU600
 6004               	.LLST78:
 6005 039a 04        		.byte	0x4
 6006 039b A410      		.uleb128 .LVL140-.Ltext0
 6007 039d CA10      		.uleb128 .LVL142-.Ltext0
 6008 039f 01        		.uleb128 0x1
 6009 03a0 51        		.byte	0x51
 6010 03a1 00        		.byte	0
 6011               	.LVUS80:
 6012 03a2 06        		.uleb128 .LVU512
 6013 03a3 00        		.uleb128 .LVU514
 6014 03a4 00        		.uleb128 .LVU514
 6015 03a5 02        		.uleb128 .LVU529
 6016 03a6 06        		.uleb128 .LVU585
 6017 03a7 00        		.uleb128 .LVU587
 6018 03a8 00        		.uleb128 .LVU587
 6019 03a9 00        		.uleb128 .LVU595
 6020               	.LLST80:
 6021 03aa 04        		.byte	0x4
 6022 03ab DC0E      		.uleb128 .LVL122-.Ltext0
 6023 03ad E40E      		.uleb128 .LVL123-.Ltext0
 6024 03af 02        		.uleb128 0x2
 6025 03b0 30        		.byte	0x30
 6026 03b1 9F        		.byte	0x9f
 6027 03b2 04        		.byte	0x4
 6028 03b3 E40E      		.uleb128 .LVL123-.Ltext0
 6029 03b5 9A0F      		.uleb128 .LVL126-.Ltext0
 6030 03b7 01        		.uleb128 0x1
 6031 03b8 55        		.byte	0x55
 6032 03b9 04        		.byte	0x4
 6033 03ba 9810      		.uleb128 .LVL139-.Ltext0
 6034 03bc A410      		.uleb128 .LVL140-.Ltext0
 6035 03be 02        		.uleb128 0x2
 6036 03bf 30        		.byte	0x30
 6037 03c0 9F        		.byte	0x9f
 6038 03c1 04        		.byte	0x4
 6039 03c2 A410      		.uleb128 .LVL140-.Ltext0
 6040 03c4 BE10      		.uleb128 .LVL141-.Ltext0


 6041 03c6 01        		.uleb128 0x1
 6042 03c7 55        		.byte	0x55
 6043 03c8 00        		.byte	0
 6044               	.LVUS81:
 6045 03c9 00        		.uleb128 .LVU520
 6046 03ca 02        		.uleb128 .LVU529
 6047               	.LLST81:
 6048 03cb 04        		.byte	0x4
 6049 03cc 8A0F      		.uleb128 .LVL125-.Ltext0
 6050 03ce 9A0F      		.uleb128 .LVL126-.Ltext0
 6051 03d0 01        		.uleb128 0x1
 6052 03d1 58        		.byte	0x58
 6053 03d2 00        		.byte	0
 6054               	.LVUS82:
 6055 03d3 04        		.uleb128 .LVU524
 6056 03d4 02        		.uleb128 .LVU529
 6057               	.LLST82:
 6058 03d5 04        		.byte	0x4
 6059 03d6 8A0F      		.uleb128 .LVL125-.Ltext0
 6060 03d8 9A0F      		.uleb128 .LVL126-.Ltext0
 6061 03da 01        		.uleb128 0x1
 6062 03db 54        		.byte	0x54
 6063 03dc 00        		.byte	0
 6064               	.LVUS84:
 6065 03dd 02        		.uleb128 .LVU535
 6066 03de 00        		.uleb128 .LVU542
 6067 03df 00        		.uleb128 .LVU600
 6068 03e0 00        		.uleb128 .LVU603
 6069 03e1 00        		.uleb128 .LVU603
 6070 03e2 00        		.uleb128 .LVU605
 6071               	.LLST84:
 6072 03e3 04        		.byte	0x4
 6073 03e4 A40F      		.uleb128 .LVL127-.Ltext0
 6074 03e6 AE0F      		.uleb128 .LVL128-.Ltext0
 6075 03e8 01        		.uleb128 0x1
 6076 03e9 53        		.byte	0x53
 6077 03ea 04        		.byte	0x4
 6078 03eb CA10      		.uleb128 .LVL142-.Ltext0
 6079 03ed D210      		.uleb128 .LVL143-.Ltext0
 6080 03ef 01        		.uleb128 0x1
 6081 03f0 53        		.byte	0x53
 6082 03f1 04        		.byte	0x4
 6083 03f2 D210      		.uleb128 .LVL143-.Ltext0
 6084 03f4 D510      		.uleb128 .LVL144-1-.Ltext0
 6085 03f6 02        		.uleb128 0x2
 6086 03f7 91        		.byte	0x91
 6087 03f8 70        		.sleb128 -16
 6088 03f9 00        		.byte	0
 6089               	.LVUS85:
 6090 03fa 05        		.uleb128 .LVU538
 6091 03fb 00        		.uleb128 .LVU542
 6092 03fc 00        		.uleb128 .LVU600
 6093 03fd 00        		.uleb128 .LVU603
 6094 03fe 00        		.uleb128 .LVU603
 6095 03ff 00        		.uleb128 .LVU605
 6096               	.LLST85:
 6097 0400 04        		.byte	0x4


 6098 0401 A40F      		.uleb128 .LVL127-.Ltext0
 6099 0403 AE0F      		.uleb128 .LVL128-.Ltext0
 6100 0405 0B        		.uleb128 0xb
 6101 0406 73        		.byte	0x73
 6102 0407 00        		.sleb128 0
 6103 0408 3C        		.byte	0x3c
 6104 0409 1E        		.byte	0x1e
 6105 040a 03        		.byte	0x3
 6106 040b 0000 0000 		.long	semaphore
 6107 040f 22        		.byte	0x22
 6108 0410 9F        		.byte	0x9f
 6109 0411 04        		.byte	0x4
 6110 0412 CA10      		.uleb128 .LVL142-.Ltext0
 6111 0414 D210      		.uleb128 .LVL143-.Ltext0
 6112 0416 0B        		.uleb128 0xb
 6113 0417 73        		.byte	0x73
 6114 0418 00        		.sleb128 0
 6115 0419 3C        		.byte	0x3c
 6116 041a 1E        		.byte	0x1e
 6117 041b 03        		.byte	0x3
 6118 041c 0000 0000 		.long	semaphore
 6119 0420 22        		.byte	0x22
 6120 0421 9F        		.byte	0x9f
 6121 0422 04        		.byte	0x4
 6122 0423 D210      		.uleb128 .LVL143-.Ltext0
 6123 0425 D510      		.uleb128 .LVL144-1-.Ltext0
 6124 0427 0C        		.uleb128 0xc
 6125 0428 91        		.byte	0x91
 6126 0429 70        		.sleb128 -16
 6127 042a 06        		.byte	0x6
 6128 042b 3C        		.byte	0x3c
 6129 042c 1E        		.byte	0x1e
 6130 042d 03        		.byte	0x3
 6131 042e 0000 0000 		.long	semaphore
 6132 0432 22        		.byte	0x22
 6133 0433 9F        		.byte	0x9f
 6134 0434 00        		.byte	0
 6135               	.LVUS15:
 6136 0435 00        		.uleb128 .LVU118
 6137 0436 02        		.uleb128 .LVU139
 6138 0437 00        		.uleb128 .LVU147
 6139 0438 00        		.uleb128 .LVU156
 6140               	.LLST15:
 6141 0439 04        		.byte	0x4
 6142 043a F602      		.uleb128 .LVL29-.Ltext0
 6143 043c B203      		.uleb128 .LVL34-.Ltext0
 6144 043e 09        		.uleb128 0x9
 6145 043f 73        		.byte	0x73
 6146 0440 00        		.sleb128 0
 6147 0441 03        		.byte	0x3
 6148 0442 0000 0000 		.long	task_tab
 6149 0446 22        		.byte	0x22
 6150 0447 9F        		.byte	0x9f
 6151 0448 04        		.byte	0x4
 6152 0449 D603      		.uleb128 .LVL37-.Ltext0
 6153 044b FC03      		.uleb128 .LVL39-.Ltext0
 6154 044d 09        		.uleb128 0x9


 6155 044e 73        		.byte	0x73
 6156 044f 00        		.sleb128 0
 6157 0450 03        		.byte	0x3
 6158 0451 0000 0000 		.long	task_tab
 6159 0455 22        		.byte	0x22
 6160 0456 9F        		.byte	0x9f
 6161 0457 00        		.byte	0
 6162               	.LVUS16:
 6163 0458 01        		.uleb128 .LVU148
 6164 0459 00        		.uleb128 .LVU160
 6165 045a 00        		.uleb128 .LVU160
 6166 045b 00        		.uleb128 .LVU163
 6167               	.LLST16:
 6168 045c 04        		.byte	0x4
 6169 045d D603      		.uleb128 .LVL37-.Ltext0
 6170 045f 8704      		.uleb128 .LVL40-1-.Ltext0
 6171 0461 01        		.uleb128 0x1
 6172 0462 51        		.byte	0x51
 6173 0463 04        		.byte	0x4
 6174 0464 8704      		.uleb128 .LVL40-1-.Ltext0
 6175 0466 9A04      		.uleb128 .LVL42-.Ltext0
 6176 0468 01        		.uleb128 0x1
 6177 0469 54        		.byte	0x54
 6178 046a 00        		.byte	0
 6179               	.LVUS18:
 6180 046b 04        		.uleb128 .LVU122
 6181 046c 00        		.uleb128 .LVU124
 6182 046d 00        		.uleb128 .LVU124
 6183 046e 00        		.uleb128 .LVU135
 6184 046f 00        		.uleb128 .LVU147
 6185 0470 00        		.uleb128 .LVU150
 6186               	.LLST18:
 6187 0471 04        		.byte	0x4
 6188 0472 F602      		.uleb128 .LVL29-.Ltext0
 6189 0474 FE02      		.uleb128 .LVL30-.Ltext0
 6190 0476 02        		.uleb128 0x2
 6191 0477 30        		.byte	0x30
 6192 0478 9F        		.byte	0x9f
 6193 0479 04        		.byte	0x4
 6194 047a FE02      		.uleb128 .LVL30-.Ltext0
 6195 047c A603      		.uleb128 .LVL33-.Ltext0
 6196 047e 01        		.uleb128 0x1
 6197 047f 58        		.byte	0x58
 6198 0480 04        		.byte	0x4
 6199 0481 D603      		.uleb128 .LVL37-.Ltext0
 6200 0483 E203      		.uleb128 .LVL38-.Ltext0
 6201 0485 01        		.uleb128 0x1
 6202 0486 58        		.byte	0x58
 6203 0487 00        		.byte	0
 6204               	.LVUS19:
 6205 0488 00        		.uleb128 .LVU129
 6206 0489 02        		.uleb128 .LVU139
 6207               	.LLST19:
 6208 048a 04        		.byte	0x4
 6209 048b 9C03      		.uleb128 .LVL32-.Ltext0
 6210 048d B203      		.uleb128 .LVL34-.Ltext0
 6211 048f 09        		.uleb128 0x9


 6212 0490 73        		.byte	0x73
 6213 0491 00        		.sleb128 0
 6214 0492 03        		.byte	0x3
 6215 0493 0000 0000 		.long	task_tab
 6216 0497 22        		.byte	0x22
 6217 0498 9F        		.byte	0x9f
 6218 0499 00        		.byte	0
 6219               	.LVUS20:
 6220 049a 04        		.uleb128 .LVU133
 6221 049b 02        		.uleb128 .LVU139
 6222               	.LLST20:
 6223 049c 04        		.byte	0x4
 6224 049d 9C03      		.uleb128 .LVL32-.Ltext0
 6225 049f B203      		.uleb128 .LVL34-.Ltext0
 6226 04a1 01        		.uleb128 0x1
 6227 04a2 54        		.byte	0x54
 6228 04a3 00        		.byte	0
 6229               	.LVUS2:
 6230 04a4 01        		.uleb128 .LVU37
 6231 04a5 00        		.uleb128 .LVU52
 6232 04a6 00        		.uleb128 .LVU52
 6233 04a7 00        		.uleb128 .LVU90
 6234 04a8 00        		.uleb128 .LVU90
 6235 04a9 00        		.uleb128 .LVU114
 6236               	.LLST2:
 6237 04aa 04        		.byte	0x4
 6238 04ab 5A        		.uleb128 .LVL5-.Ltext0
 6239 04ac 8801      		.uleb128 .LVL9-.Ltext0
 6240 04ae 02        		.uleb128 0x2
 6241 04af 30        		.byte	0x30
 6242 04b0 9F        		.byte	0x9f
 6243 04b1 04        		.byte	0x4
 6244 04b2 8801      		.uleb128 .LVL9-.Ltext0
 6245 04b4 FF01      		.uleb128 .LVL20-1-.Ltext0
 6246 04b6 01        		.uleb128 0x1
 6247 04b7 51        		.byte	0x51
 6248 04b8 04        		.byte	0x4
 6249 04b9 8002      		.uleb128 .LVL20-.Ltext0
 6250 04bb DD02      		.uleb128 .LVL28-1-.Ltext0
 6251 04bd 01        		.uleb128 0x1
 6252 04be 51        		.byte	0x51
 6253 04bf 00        		.byte	0
 6254               	.LVUS3:
 6255 04c0 01        		.uleb128 .LVU56
 6256 04c1 00        		.uleb128 .LVU90
 6257 04c2 00        		.uleb128 .LVU90
 6258 04c3 00        		.uleb128 .LVU114
 6259               	.LLST3:
 6260 04c4 04        		.byte	0x4
 6261 04c5 8E01      		.uleb128 .LVL10-.Ltext0
 6262 04c7 FF01      		.uleb128 .LVL20-1-.Ltext0
 6263 04c9 0B        		.uleb128 0xb
 6264 04ca 71        		.byte	0x71
 6265 04cb 00        		.sleb128 0
 6266 04cc 44        		.byte	0x44
 6267 04cd 1E        		.byte	0x1e
 6268 04ce 03        		.byte	0x3


 6269 04cf 0000 0000 		.long	task_tab
 6270 04d3 22        		.byte	0x22
 6271 04d4 9F        		.byte	0x9f
 6272 04d5 04        		.byte	0x4
 6273 04d6 8002      		.uleb128 .LVL20-.Ltext0
 6274 04d8 DD02      		.uleb128 .LVL28-1-.Ltext0
 6275 04da 0B        		.uleb128 0xb
 6276 04db 71        		.byte	0x71
 6277 04dc 00        		.sleb128 0
 6278 04dd 44        		.byte	0x44
 6279 04de 1E        		.byte	0x1e
 6280 04df 03        		.byte	0x3
 6281 04e0 0000 0000 		.long	task_tab
 6282 04e4 22        		.byte	0x22
 6283 04e5 9F        		.byte	0x9f
 6284 04e6 00        		.byte	0
 6285               	.LVUS4:
 6286 04e7 03        		.uleb128 .LVU39
 6287 04e8 00        		.uleb128 .LVU41
 6288 04e9 00        		.uleb128 .LVU41
 6289 04ea 00        		.uleb128 .LVU43
 6290 04eb 00        		.uleb128 .LVU43
 6291 04ec 00        		.uleb128 .LVU45
 6292 04ed 00        		.uleb128 .LVU45
 6293 04ee 00        		.uleb128 .LVU52
 6294 04ef 00        		.uleb128 .LVU52
 6295 04f0 00        		.uleb128 .LVU64
 6296 04f1 00        		.uleb128 .LVU64
 6297 04f2 00        		.uleb128 .LVU90
 6298 04f3 00        		.uleb128 .LVU90
 6299 04f4 00        		.uleb128 .LVU114
 6300               	.LLST4:
 6301 04f5 04        		.byte	0x4
 6302 04f6 5A        		.uleb128 .LVL5-.Ltext0
 6303 04f7 62        		.uleb128 .LVL6-.Ltext0
 6304 04f8 02        		.uleb128 0x2
 6305 04f9 30        		.byte	0x30
 6306 04fa 9F        		.byte	0x9f
 6307 04fb 04        		.byte	0x4
 6308 04fc 62        		.uleb128 .LVL6-.Ltext0
 6309 04fd 66        		.uleb128 .LVL7-.Ltext0
 6310 04fe 01        		.uleb128 0x1
 6311 04ff 51        		.byte	0x51
 6312 0500 04        		.byte	0x4
 6313 0501 66        		.uleb128 .LVL7-.Ltext0
 6314 0502 6C        		.uleb128 .LVL8-.Ltext0
 6315 0503 01        		.uleb128 0x1
 6316 0504 50        		.byte	0x50
 6317 0505 04        		.byte	0x4
 6318 0506 6C        		.uleb128 .LVL8-.Ltext0
 6319 0507 8701      		.uleb128 .LVL9-1-.Ltext0
 6320 0509 01        		.uleb128 0x1
 6321 050a 51        		.byte	0x51
 6322 050b 04        		.byte	0x4
 6323 050c 8801      		.uleb128 .LVL9-.Ltext0
 6324 050e B401      		.uleb128 .LVL12-.Ltext0
 6325 0510 01        		.uleb128 0x1


 6326 0511 50        		.byte	0x50
 6327 0512 04        		.byte	0x4
 6328 0513 B401      		.uleb128 .LVL12-.Ltext0
 6329 0515 FF01      		.uleb128 .LVL20-1-.Ltext0
 6330 0517 03        		.uleb128 0x3
 6331 0518 71        		.byte	0x71
 6332 0519 7F        		.sleb128 -1
 6333 051a 9F        		.byte	0x9f
 6334 051b 04        		.byte	0x4
 6335 051c 8002      		.uleb128 .LVL20-.Ltext0
 6336 051e DD02      		.uleb128 .LVL28-1-.Ltext0
 6337 0520 03        		.uleb128 0x3
 6338 0521 71        		.byte	0x71
 6339 0522 7F        		.sleb128 -1
 6340 0523 9F        		.byte	0x9f
 6341 0524 00        		.byte	0
 6342               	.LVUS5:
 6343 0525 00        		.uleb128 .LVU43
 6344 0526 00        		.uleb128 .LVU52
 6345 0527 00        		.uleb128 .LVU52
 6346 0528 00        		.uleb128 .LVU90
 6347 0529 00        		.uleb128 .LVU90
 6348 052a 00        		.uleb128 .LVU114
 6349               	.LLST5:
 6350 052b 04        		.byte	0x4
 6351 052c 66        		.uleb128 .LVL7-.Ltext0
 6352 052d 8701      		.uleb128 .LVL9-1-.Ltext0
 6353 052f 0B        		.uleb128 0xb
 6354 0530 71        		.byte	0x71
 6355 0531 00        		.sleb128 0
 6356 0532 44        		.byte	0x44
 6357 0533 1E        		.byte	0x1e
 6358 0534 03        		.byte	0x3
 6359 0535 0000 0000 		.long	task_tab
 6360 0539 22        		.byte	0x22
 6361 053a 9F        		.byte	0x9f
 6362 053b 04        		.byte	0x4
 6363 053c 8801      		.uleb128 .LVL9-.Ltext0
 6364 053e FF01      		.uleb128 .LVL20-1-.Ltext0
 6365 0540 0B        		.uleb128 0xb
 6366 0541 71        		.byte	0x71
 6367 0542 00        		.sleb128 0
 6368 0543 44        		.byte	0x44
 6369 0544 1E        		.byte	0x1e
 6370 0545 03        		.byte	0x3
 6371 0546 0000 0000 		.long	task_tab
 6372 054a 22        		.byte	0x22
 6373 054b 9F        		.byte	0x9f
 6374 054c 04        		.byte	0x4
 6375 054d 8002      		.uleb128 .LVL20-.Ltext0
 6376 054f DD02      		.uleb128 .LVL28-1-.Ltext0
 6377 0551 0B        		.uleb128 0xb
 6378 0552 71        		.byte	0x71
 6379 0553 00        		.sleb128 0
 6380 0554 44        		.byte	0x44
 6381 0555 1E        		.byte	0x1e
 6382 0556 03        		.byte	0x3


 6383 0557 0000 0000 		.long	task_tab
 6384 055b 22        		.byte	0x22
 6385 055c 9F        		.byte	0x9f
 6386 055d 00        		.byte	0
 6387               	.LVUS6:
 6388 055e 01        		.uleb128 .LVU61
 6389 055f 01        		.uleb128 .LVU77
 6390               	.LLST6:
 6391 0560 04        		.byte	0x4
 6392 0561 B001      		.uleb128 .LVL11-.Ltext0
 6393 0563 C801      		.uleb128 .LVL16-.Ltext0
 6394 0565 01        		.uleb128 0x1
 6395 0566 51        		.byte	0x51
 6396 0567 00        		.byte	0
 6397               	.LVUS7:
 6398 0568 00        		.uleb128 .LVU65
 6399 0569 01        		.uleb128 .LVU77
 6400               	.LLST7:
 6401 056a 04        		.byte	0x4
 6402 056b BC01      		.uleb128 .LVL13-.Ltext0
 6403 056d C801      		.uleb128 .LVL16-.Ltext0
 6404 056f 01        		.uleb128 0x1
 6405 0570 58        		.byte	0x58
 6406 0571 00        		.byte	0
 6407               	.LVUS8:
 6408 0572 01        		.uleb128 .LVU66
 6409 0573 01        		.uleb128 .LVU77
 6410               	.LLST8:
 6411 0574 04        		.byte	0x4
 6412 0575 BC01      		.uleb128 .LVL13-.Ltext0
 6413 0577 C801      		.uleb128 .LVL16-.Ltext0
 6414 0579 01        		.uleb128 0x1
 6415 057a 58        		.byte	0x58
 6416 057b 00        		.byte	0
 6417               	.LVUS9:
 6418 057c 02        		.uleb128 .LVU67
 6419 057d 03        		.uleb128 .LVU68
 6420 057e 03        		.uleb128 .LVU68
 6421 057f 01        		.uleb128 .LVU73
 6422 0580 01        		.uleb128 .LVU73
 6423 0581 02        		.uleb128 .LVU74
 6424 0582 02        		.uleb128 .LVU74
 6425 0583 03        		.uleb128 .LVU75
 6426 0584 03        		.uleb128 .LVU75
 6427 0585 01        		.uleb128 .LVU77
 6428               	.LLST9:
 6429 0586 04        		.byte	0x4
 6430 0587 BC01      		.uleb128 .LVL13-.Ltext0
 6431 0589 BC01      		.uleb128 .LVL13-.Ltext0
 6432 058b 04        		.uleb128 0x4
 6433 058c 78        		.byte	0x78
 6434 058d 8008      		.sleb128 1024
 6435 058f 9F        		.byte	0x9f
 6436 0590 04        		.byte	0x4
 6437 0591 BC01      		.uleb128 .LVL13-.Ltext0
 6438 0593 C401      		.uleb128 .LVL15-.Ltext0
 6439 0595 04        		.uleb128 0x4


 6440 0596 78        		.byte	0x78
 6441 0597 FC07      		.sleb128 1020
 6442 0599 9F        		.byte	0x9f
 6443 059a 04        		.byte	0x4
 6444 059b C401      		.uleb128 .LVL15-.Ltext0
 6445 059d C401      		.uleb128 .LVL15-.Ltext0
 6446 059f 04        		.uleb128 0x4
 6447 05a0 78        		.byte	0x78
 6448 05a1 FA07      		.sleb128 1018
 6449 05a3 9F        		.byte	0x9f
 6450 05a4 04        		.byte	0x4
 6451 05a5 C401      		.uleb128 .LVL15-.Ltext0
 6452 05a7 C401      		.uleb128 .LVL15-.Ltext0
 6453 05a9 04        		.uleb128 0x4
 6454 05aa 78        		.byte	0x78
 6455 05ab BE07      		.sleb128 958
 6456 05ad 9F        		.byte	0x9f
 6457 05ae 04        		.byte	0x4
 6458 05af C401      		.uleb128 .LVL15-.Ltext0
 6459 05b1 C801      		.uleb128 .LVL16-.Ltext0
 6460 05b3 04        		.uleb128 0x4
 6461 05b4 78        		.byte	0x78
 6462 05b5 BA07      		.sleb128 954
 6463 05b7 9F        		.byte	0x9f
 6464 05b8 00        		.byte	0
 6465               	.LVUS10:
 6466 05b9 01        		.uleb128 .LVU70
 6467 05ba 02        		.uleb128 .LVU71
 6468 05bb 02        		.uleb128 .LVU71
 6469 05bc 00        		.uleb128 .LVU78
 6470 05bd 00        		.uleb128 .LVU78
 6471 05be 00        		.uleb128 .LVU81
 6472 05bf 00        		.uleb128 .LVU81
 6473 05c0 00        		.uleb128 .LVU88
 6474 05c1 00        		.uleb128 .LVU88
 6475 05c2 00        		.uleb128 .LVU90
 6476 05c3 00        		.uleb128 .LVU90
 6477 05c4 00        		.uleb128 .LVU108
 6478 05c5 00        		.uleb128 .LVU108
 6479 05c6 00        		.uleb128 .LVU112
 6480 05c7 00        		.uleb128 .LVU112
 6481 05c8 00        		.uleb128 .LVU114
 6482               	.LLST10:
 6483 05c9 04        		.byte	0x4
 6484 05ca C001      		.uleb128 .LVL14-.Ltext0
 6485 05cc C001      		.uleb128 .LVL14-.Ltext0
 6486 05ce 04        		.uleb128 0x4
 6487 05cf 78        		.byte	0x78
 6488 05d0 FC07      		.sleb128 1020
 6489 05d2 9F        		.byte	0x9f
 6490 05d3 04        		.byte	0x4
 6491 05d4 C001      		.uleb128 .LVL14-.Ltext0
 6492 05d6 CC01      		.uleb128 .LVL17-.Ltext0
 6493 05d8 04        		.uleb128 0x4
 6494 05d9 78        		.byte	0x78
 6495 05da FA07      		.sleb128 1018
 6496 05dc 9F        		.byte	0x9f


 6497 05dd 04        		.byte	0x4
 6498 05de CC01      		.uleb128 .LVL17-.Ltext0
 6499 05e0 D601      		.uleb128 .LVL18-.Ltext0
 6500 05e2 07        		.uleb128 0x7
 6501 05e3 78        		.byte	0x78
 6502 05e4 00        		.sleb128 0
 6503 05e5 06        		.byte	0x6
 6504 05e6 23        		.byte	0x23
 6505 05e7 FA07      		.uleb128 0x3fa
 6506 05e9 9F        		.byte	0x9f
 6507 05ea 04        		.byte	0x4
 6508 05eb D601      		.uleb128 .LVL18-.Ltext0
 6509 05ed FA01      		.uleb128 .LVL19-.Ltext0
 6510 05ef 08        		.uleb128 0x8
 6511 05f0 7B        		.byte	0x7b
 6512 05f1 04        		.sleb128 4
 6513 05f2 06        		.byte	0x6
 6514 05f3 06        		.byte	0x6
 6515 05f4 23        		.byte	0x23
 6516 05f5 FA07      		.uleb128 0x3fa
 6517 05f7 9F        		.byte	0x9f
 6518 05f8 04        		.byte	0x4
 6519 05f9 FA01      		.uleb128 .LVL19-.Ltext0
 6520 05fb FF01      		.uleb128 .LVL20-1-.Ltext0
 6521 05fd 0E        		.uleb128 0xe
 6522 05fe 79        		.byte	0x79
 6523 05ff 00        		.sleb128 0
 6524 0600 03        		.byte	0x3
 6525 0601 0000 0000 		.long	task_tab+4
 6526 0605 22        		.byte	0x22
 6527 0606 06        		.byte	0x6
 6528 0607 06        		.byte	0x6
 6529 0608 23        		.byte	0x23
 6530 0609 FA07      		.uleb128 0x3fa
 6531 060b 9F        		.byte	0x9f
 6532 060c 04        		.byte	0x4
 6533 060d 8002      		.uleb128 .LVL20-.Ltext0
 6534 060f C002      		.uleb128 .LVL25-.Ltext0
 6535 0611 08        		.uleb128 0x8
 6536 0612 7B        		.byte	0x7b
 6537 0613 04        		.sleb128 4
 6538 0614 06        		.byte	0x6
 6539 0615 06        		.byte	0x6
 6540 0616 23        		.byte	0x23
 6541 0617 FA07      		.uleb128 0x3fa
 6542 0619 9F        		.byte	0x9f
 6543 061a 04        		.byte	0x4
 6544 061b C002      		.uleb128 .LVL25-.Ltext0
 6545 061d D802      		.uleb128 .LVL27-.Ltext0
 6546 061f 0C        		.uleb128 0xc
 6547 0620 71        		.byte	0x71
 6548 0621 7F        		.sleb128 -1
 6549 0622 72        		.byte	0x72
 6550 0623 00        		.sleb128 0
 6551 0624 24        		.byte	0x24
 6552 0625 03        		.byte	0x3
 6553 0626 0000 0000 		.long	stacks+2042


 6554 062a 22        		.byte	0x22
 6555 062b 9F        		.byte	0x9f
 6556 062c 04        		.byte	0x4
 6557 062d D802      		.uleb128 .LVL27-.Ltext0
 6558 062f DD02      		.uleb128 .LVL28-1-.Ltext0
 6559 0631 0B        		.uleb128 0xb
 6560 0632 71        		.byte	0x71
 6561 0633 7F        		.sleb128 -1
 6562 0634 3B        		.byte	0x3b
 6563 0635 24        		.byte	0x24
 6564 0636 03        		.byte	0x3
 6565 0637 0000 0000 		.long	stacks+2042
 6566 063b 22        		.byte	0x22
 6567 063c 9F        		.byte	0x9f
 6568 063d 00        		.byte	0
 6569               	.LVUS11:
 6570 063e 01        		.uleb128 .LVU91
 6571 063f 00        		.uleb128 .LVU110
 6572               	.LLST11:
 6573 0640 04        		.byte	0x4
 6574 0641 8002      		.uleb128 .LVL20-.Ltext0
 6575 0643 CC02      		.uleb128 .LVL26-.Ltext0
 6576 0645 01        		.uleb128 0x1
 6577 0646 51        		.byte	0x51
 6578 0647 00        		.byte	0
 6579               	.LVUS12:
 6580 0648 01        		.uleb128 .LVU91
 6581 0649 00        		.uleb128 .LVU97
 6582 064a 00        		.uleb128 .LVU97
 6583 064b 00        		.uleb128 .LVU110
 6584               	.LLST12:
 6585 064c 04        		.byte	0x4
 6586 064d 8002      		.uleb128 .LVL20-.Ltext0
 6587 064f 9002      		.uleb128 .LVL21-.Ltext0
 6588 0651 0B        		.uleb128 0xb
 6589 0652 78        		.byte	0x78
 6590 0653 00        		.sleb128 0
 6591 0654 44        		.byte	0x44
 6592 0655 1E        		.byte	0x1e
 6593 0656 03        		.byte	0x3
 6594 0657 0000 0000 		.long	task_tab
 6595 065b 22        		.byte	0x22
 6596 065c 9F        		.byte	0x9f
 6597 065d 04        		.byte	0x4
 6598 065e 9002      		.uleb128 .LVL21-.Ltext0
 6599 0660 CC02      		.uleb128 .LVL26-.Ltext0
 6600 0662 0F        		.uleb128 0xf
 6601 0663 03        		.byte	0x3
 6602 0664 0000 0000 		.long	ready
 6603 0668 06        		.byte	0x6
 6604 0669 44        		.byte	0x44
 6605 066a 1E        		.byte	0x1e
 6606 066b 03        		.byte	0x3
 6607 066c 0000 0000 		.long	task_tab
 6608 0670 22        		.byte	0x22
 6609 0671 9F        		.byte	0x9f
 6610 0672 00        		.byte	0


 6611               	.LVUS13:
 6612 0673 04        		.uleb128 .LVU94
 6613 0674 00        		.uleb128 .LVU97
 6614 0675 00        		.uleb128 .LVU97
 6615 0676 01        		.uleb128 .LVU100
 6616 0677 01        		.uleb128 .LVU100
 6617 0678 00        		.uleb128 .LVU102
 6618 0679 00        		.uleb128 .LVU102
 6619 067a 00        		.uleb128 .LVU105
 6620               	.LLST13:
 6621 067b 04        		.byte	0x4
 6622 067c 8002      		.uleb128 .LVL20-.Ltext0
 6623 067e 9002      		.uleb128 .LVL21-.Ltext0
 6624 0680 0B        		.uleb128 0xb
 6625 0681 78        		.byte	0x78
 6626 0682 00        		.sleb128 0
 6627 0683 44        		.byte	0x44
 6628 0684 1E        		.byte	0x1e
 6629 0685 03        		.byte	0x3
 6630 0686 0000 0000 		.long	task_tab
 6631 068a 22        		.byte	0x22
 6632 068b 9F        		.byte	0x9f
 6633 068c 04        		.byte	0x4
 6634 068d 9002      		.uleb128 .LVL21-.Ltext0
 6635 068f 9602      		.uleb128 .LVL22-.Ltext0
 6636 0691 0F        		.uleb128 0xf
 6637 0692 03        		.byte	0x3
 6638 0693 0000 0000 		.long	ready
 6639 0697 06        		.byte	0x6
 6640 0698 44        		.byte	0x44
 6641 0699 1E        		.byte	0x1e
 6642 069a 03        		.byte	0x3
 6643 069b 0000 0000 		.long	task_tab
 6644 069f 22        		.byte	0x22
 6645 06a0 9F        		.byte	0x9f
 6646 06a1 04        		.byte	0x4
 6647 06a2 9602      		.uleb128 .LVL22-.Ltext0
 6648 06a4 9A02      		.uleb128 .LVL23-.Ltext0
 6649 06a6 0B        		.uleb128 0xb
 6650 06a7 70        		.byte	0x70
 6651 06a8 00        		.sleb128 0
 6652 06a9 44        		.byte	0x44
 6653 06aa 1E        		.byte	0x1e
 6654 06ab 03        		.byte	0x3
 6655 06ac 0000 0000 		.long	task_tab
 6656 06b0 22        		.byte	0x22
 6657 06b1 9F        		.byte	0x9f
 6658 06b2 04        		.byte	0x4
 6659 06b3 9A02      		.uleb128 .LVL23-.Ltext0
 6660 06b5 B602      		.uleb128 .LVL24-.Ltext0
 6661 06b7 0B        		.uleb128 0xb
 6662 06b8 78        		.byte	0x78
 6663 06b9 00        		.sleb128 0
 6664 06ba 44        		.byte	0x44
 6665 06bb 1E        		.byte	0x1e
 6666 06bc 03        		.byte	0x3
 6667 06bd 0000 0000 		.long	task_tab


 6668 06c1 22        		.byte	0x22
 6669 06c2 9F        		.byte	0x9f
 6670 06c3 00        		.byte	0
 6671               	.LVUS0:
 6672 06c4 03        		.uleb128 .LVU3
 6673 06c5 00        		.uleb128 .LVU4
 6674               	.LLST0:
 6675 06c6 04        		.byte	0x4
 6676 06c7 00        		.uleb128 .LVL0-.Ltext0
 6677 06c8 06        		.uleb128 .LVL1-.Ltext0
 6678 06c9 02        		.uleb128 0x2
 6679 06ca 30        		.byte	0x30
 6680 06cb 9F        		.byte	0x9f
 6681 06cc 00        		.byte	0
 6682               	.LVUS1:
 6683 06cd 02        		.uleb128 .LVU23
 6684 06ce 00        		.uleb128 .LVU24
 6685               	.LLST1:
 6686 06cf 04        		.byte	0x4
 6687 06d0 32        		.uleb128 .LVL2-.Ltext0
 6688 06d1 38        		.uleb128 .LVL3-.Ltext0
 6689 06d2 02        		.uleb128 0x2
 6690 06d3 30        		.byte	0x30
 6691 06d4 9F        		.byte	0x9f
 6692 06d5 00        		.byte	0
 6693               	.LVUS21:
 6694 06d6 00        		.uleb128 .LVU169
 6695 06d7 00        		.uleb128 0
 6696               	.LLST21:
 6697 06d8 04        		.byte	0x4
 6698 06d9 B404      		.uleb128 .LVL45-.Ltext0
 6699 06db E004      		.uleb128 .LFE6-.Ltext0
 6700 06dd 01        		.uleb128 0x1
 6701 06de 58        		.byte	0x58
 6702 06df 00        		.byte	0
 6703               	.LVUS22:
 6704 06e0 01        		.uleb128 .LVU170
 6705 06e1 00        		.uleb128 0
 6706               	.LLST22:
 6707 06e2 04        		.byte	0x4
 6708 06e3 B404      		.uleb128 .LVL45-.Ltext0
 6709 06e5 E004      		.uleb128 .LFE6-.Ltext0
 6710 06e7 01        		.uleb128 0x1
 6711 06e8 58        		.byte	0x58
 6712 06e9 00        		.byte	0
 6713               	.LVUS23:
 6714 06ea 02        		.uleb128 .LVU171
 6715 06eb 03        		.uleb128 .LVU172
 6716 06ec 03        		.uleb128 .LVU172
 6717 06ed 01        		.uleb128 .LVU178
 6718 06ee 01        		.uleb128 .LVU178
 6719 06ef 02        		.uleb128 .LVU179
 6720 06f0 02        		.uleb128 .LVU179
 6721 06f1 03        		.uleb128 .LVU180
 6722 06f2 03        		.uleb128 .LVU180
 6723 06f3 00        		.uleb128 .LVU183
 6724 06f4 00        		.uleb128 .LVU183


 6725 06f5 00        		.uleb128 0
 6726               	.LLST23:
 6727 06f6 04        		.byte	0x4
 6728 06f7 B404      		.uleb128 .LVL45-.Ltext0
 6729 06f9 B404      		.uleb128 .LVL45-.Ltext0
 6730 06fb 04        		.uleb128 0x4
 6731 06fc 78        		.byte	0x78
 6732 06fd 8008      		.sleb128 1024
 6733 06ff 9F        		.byte	0x9f
 6734 0700 04        		.byte	0x4
 6735 0701 B404      		.uleb128 .LVL45-.Ltext0
 6736 0703 D004      		.uleb128 .LVL47-.Ltext0
 6737 0705 04        		.uleb128 0x4
 6738 0706 78        		.byte	0x78
 6739 0707 FC07      		.sleb128 1020
 6740 0709 9F        		.byte	0x9f
 6741 070a 04        		.byte	0x4
 6742 070b D004      		.uleb128 .LVL47-.Ltext0
 6743 070d D004      		.uleb128 .LVL47-.Ltext0
 6744 070f 04        		.uleb128 0x4
 6745 0710 78        		.byte	0x78
 6746 0711 FA07      		.sleb128 1018
 6747 0713 9F        		.byte	0x9f
 6748 0714 04        		.byte	0x4
 6749 0715 D004      		.uleb128 .LVL47-.Ltext0
 6750 0717 D004      		.uleb128 .LVL47-.Ltext0
 6751 0719 04        		.uleb128 0x4
 6752 071a 78        		.byte	0x78
 6753 071b BE07      		.sleb128 958
 6754 071d 9F        		.byte	0x9f
 6755 071e 04        		.byte	0x4
 6756 071f D004      		.uleb128 .LVL47-.Ltext0
 6757 0721 DC04      		.uleb128 .LVL48-.Ltext0
 6758 0723 04        		.uleb128 0x4
 6759 0724 78        		.byte	0x78
 6760 0725 BA07      		.sleb128 954
 6761 0727 9F        		.byte	0x9f
 6762 0728 04        		.byte	0x4
 6763 0729 DC04      		.uleb128 .LVL48-.Ltext0
 6764 072b E004      		.uleb128 .LFE6-.Ltext0
 6765 072d 01        		.uleb128 0x1
 6766 072e 50        		.byte	0x50
 6767 072f 00        		.byte	0
 6768               	.LVUS24:
 6769 0730 01        		.uleb128 .LVU175
 6770 0731 02        		.uleb128 .LVU176
 6771 0732 02        		.uleb128 .LVU176
 6772 0733 00        		.uleb128 0
 6773               	.LLST24:
 6774 0734 04        		.byte	0x4
 6775 0735 CC04      		.uleb128 .LVL46-.Ltext0
 6776 0737 CC04      		.uleb128 .LVL46-.Ltext0
 6777 0739 04        		.uleb128 0x4
 6778 073a 78        		.byte	0x78
 6779 073b FC07      		.sleb128 1020
 6780 073d 9F        		.byte	0x9f
 6781 073e 04        		.byte	0x4


 6782 073f CC04      		.uleb128 .LVL46-.Ltext0
 6783 0741 E004      		.uleb128 .LFE6-.Ltext0
 6784 0743 04        		.uleb128 0x4
 6785 0744 78        		.byte	0x78
 6786 0745 FA07      		.sleb128 1018
 6787 0747 9F        		.byte	0x9f
 6788 0748 00        		.byte	0
 6789               	.LVUS25:
 6790 0749 02        		.uleb128 .LVU188
 6791 074a 01        		.uleb128 .LVU193
 6792 074b 01        		.uleb128 .LVU193
 6793 074c 00        		.uleb128 .LVU195
 6794 074d 00        		.uleb128 .LVU195
 6795 074e 00        		.uleb128 .LVU198
 6796               	.LLST25:
 6797 074f 04        		.byte	0x4
 6798 0750 EA04      		.uleb128 .LVL50-.Ltext0
 6799 0752 F604      		.uleb128 .LVL51-.Ltext0
 6800 0754 01        		.uleb128 0x1
 6801 0755 58        		.byte	0x58
 6802 0756 04        		.byte	0x4
 6803 0757 F604      		.uleb128 .LVL51-.Ltext0
 6804 0759 FA04      		.uleb128 .LVL52-.Ltext0
 6805 075b 0B        		.uleb128 0xb
 6806 075c 70        		.byte	0x70
 6807 075d 00        		.sleb128 0
 6808 075e 44        		.byte	0x44
 6809 075f 1E        		.byte	0x1e
 6810 0760 03        		.byte	0x3
 6811 0761 0000 0000 		.long	task_tab
 6812 0765 22        		.byte	0x22
 6813 0766 9F        		.byte	0x9f
 6814 0767 04        		.byte	0x4
 6815 0768 FA04      		.uleb128 .LVL52-.Ltext0
 6816 076a 9A05      		.uleb128 .LVL53-.Ltext0
 6817 076c 0B        		.uleb128 0xb
 6818 076d 71        		.byte	0x71
 6819 076e 00        		.sleb128 0
 6820 076f 44        		.byte	0x44
 6821 0770 1E        		.byte	0x1e
 6822 0771 03        		.byte	0x3
 6823 0772 0000 0000 		.long	task_tab
 6824 0776 22        		.byte	0x22
 6825 0777 9F        		.byte	0x9f
 6826 0778 00        		.byte	0
 6827               	.LVUS26:
 6828 0779 01        		.uleb128 .LVU226
 6829 077a 00        		.uleb128 .LVU232
 6830               	.LLST26:
 6831 077b 04        		.byte	0x4
 6832 077c 8606      		.uleb128 .LVL60-.Ltext0
 6833 077e A006      		.uleb128 .LVL62-.Ltext0
 6834 0780 01        		.uleb128 0x1
 6835 0781 50        		.byte	0x50
 6836 0782 00        		.byte	0
 6837               	.LVUS28:
 6838 0783 03        		.uleb128 .LVU208


 6839 0784 00        		.uleb128 .LVU210
 6840 0785 00        		.uleb128 .LVU210
 6841 0786 00        		.uleb128 .LVU228
 6842 0787 00        		.uleb128 .LVU232
 6843 0788 00        		.uleb128 0
 6844               	.LLST28:
 6845 0789 04        		.byte	0x4
 6846 078a B805      		.uleb128 .LVL55-.Ltext0
 6847 078c C005      		.uleb128 .LVL56-.Ltext0
 6848 078e 02        		.uleb128 0x2
 6849 078f 30        		.byte	0x30
 6850 0790 9F        		.byte	0x9f
 6851 0791 04        		.byte	0x4
 6852 0792 C005      		.uleb128 .LVL56-.Ltext0
 6853 0794 9206      		.uleb128 .LVL61-.Ltext0
 6854 0796 01        		.uleb128 0x1
 6855 0797 58        		.byte	0x58
 6856 0798 04        		.byte	0x4
 6857 0799 A006      		.uleb128 .LVL62-.Ltext0
 6858 079b AC06      		.uleb128 .LFE8-.Ltext0
 6859 079d 01        		.uleb128 0x1
 6860 079e 58        		.byte	0x58
 6861 079f 00        		.byte	0
 6862               	.LVUS30:
 6863 07a0 00        		.uleb128 .LVU216
 6864 07a1 00        		.uleb128 .LVU223
 6865 07a2 00        		.uleb128 .LVU232
 6866 07a3 00        		.uleb128 .LVU238
 6867 07a4 00        		.uleb128 .LVU238
 6868 07a5 00        		.uleb128 0
 6869               	.LLST30:
 6870 07a6 04        		.byte	0x4
 6871 07a7 E405      		.uleb128 .LVL58-.Ltext0
 6872 07a9 8206      		.uleb128 .LVL59-.Ltext0
 6873 07ab 01        		.uleb128 0x1
 6874 07ac 5A        		.byte	0x5a
 6875 07ad 04        		.byte	0x4
 6876 07ae A006      		.uleb128 .LVL62-.Ltext0
 6877 07b0 AA06      		.uleb128 .LVL63-.Ltext0
 6878 07b2 01        		.uleb128 0x1
 6879 07b3 5A        		.byte	0x5a
 6880 07b4 04        		.byte	0x4
 6881 07b5 AA06      		.uleb128 .LVL63-.Ltext0
 6882 07b7 AC06      		.uleb128 .LFE8-.Ltext0
 6883 07b9 02        		.uleb128 0x2
 6884 07ba 91        		.byte	0x91
 6885 07bb 70        		.sleb128 -16
 6886 07bc 00        		.byte	0
 6887               	.LVUS31:
 6888 07bd 01        		.uleb128 .LVU233
 6889 07be 00        		.uleb128 0
 6890               	.LLST31:
 6891 07bf 04        		.byte	0x4
 6892 07c0 A006      		.uleb128 .LVL62-.Ltext0
 6893 07c2 AC06      		.uleb128 .LFE8-.Ltext0
 6894 07c4 01        		.uleb128 0x1
 6895 07c5 50        		.byte	0x50


 6896 07c6 00        		.byte	0
 6897               	.LVUS33:
 6898 07c7 00        		.uleb128 .LVU243
 6899 07c8 02        		.uleb128 .LVU261
 6900 07c9 00        		.uleb128 .LVU266
 6901 07ca 00        		.uleb128 .LVU275
 6902               	.LLST33:
 6903 07cb 04        		.byte	0x4
 6904 07cc C406      		.uleb128 .LVL64-.Ltext0
 6905 07ce 8007      		.uleb128 .LVL69-.Ltext0
 6906 07d0 09        		.uleb128 0x9
 6907 07d1 73        		.byte	0x73
 6908 07d2 00        		.sleb128 0
 6909 07d3 03        		.byte	0x3
 6910 07d4 0000 0000 		.long	task_tab
 6911 07d8 22        		.byte	0x22
 6912 07d9 9F        		.byte	0x9f
 6913 07da 04        		.byte	0x4
 6914 07db 9007      		.uleb128 .LVL70-.Ltext0
 6915 07dd B607      		.uleb128 .LVL72-.Ltext0
 6916 07df 09        		.uleb128 0x9
 6917 07e0 73        		.byte	0x73
 6918 07e1 00        		.sleb128 0
 6919 07e2 03        		.byte	0x3
 6920 07e3 0000 0000 		.long	task_tab
 6921 07e7 22        		.byte	0x22
 6922 07e8 9F        		.byte	0x9f
 6923 07e9 00        		.byte	0
 6924               	.LVUS34:
 6925 07ea 01        		.uleb128 .LVU267
 6926 07eb 00        		.uleb128 0
 6927               	.LLST34:
 6928 07ec 04        		.byte	0x4
 6929 07ed 9007      		.uleb128 .LVL70-.Ltext0
 6930 07ef C007      		.uleb128 .LFE9-.Ltext0
 6931 07f1 01        		.uleb128 0x1
 6932 07f2 51        		.byte	0x51
 6933 07f3 00        		.byte	0
 6934               	.LVUS36:
 6935 07f4 01        		.uleb128 .LVU244
 6936 07f5 00        		.uleb128 .LVU246
 6937 07f6 00        		.uleb128 .LVU246
 6938 07f7 00        		.uleb128 .LVU257
 6939 07f8 00        		.uleb128 .LVU266
 6940 07f9 00        		.uleb128 .LVU269
 6941               	.LLST36:
 6942 07fa 04        		.byte	0x4
 6943 07fb C406      		.uleb128 .LVL64-.Ltext0
 6944 07fd CC06      		.uleb128 .LVL65-.Ltext0
 6945 07ff 02        		.uleb128 0x2
 6946 0800 30        		.byte	0x30
 6947 0801 9F        		.byte	0x9f
 6948 0802 04        		.byte	0x4
 6949 0803 CC06      		.uleb128 .LVL65-.Ltext0
 6950 0805 F406      		.uleb128 .LVL68-.Ltext0
 6951 0807 01        		.uleb128 0x1
 6952 0808 58        		.byte	0x58


 6953 0809 04        		.byte	0x4
 6954 080a 9007      		.uleb128 .LVL70-.Ltext0
 6955 080c 9C07      		.uleb128 .LVL71-.Ltext0
 6956 080e 01        		.uleb128 0x1
 6957 080f 58        		.byte	0x58
 6958 0810 00        		.byte	0
 6959               	.LVUS37:
 6960 0811 00        		.uleb128 .LVU251
 6961 0812 02        		.uleb128 .LVU261
 6962               	.LLST37:
 6963 0813 04        		.byte	0x4
 6964 0814 EA06      		.uleb128 .LVL67-.Ltext0
 6965 0816 8007      		.uleb128 .LVL69-.Ltext0
 6966 0818 09        		.uleb128 0x9
 6967 0819 73        		.byte	0x73
 6968 081a 00        		.sleb128 0
 6969 081b 03        		.byte	0x3
 6970 081c 0000 0000 		.long	task_tab
 6971 0820 22        		.byte	0x22
 6972 0821 9F        		.byte	0x9f
 6973 0822 00        		.byte	0
 6974               	.LVUS38:
 6975 0823 04        		.uleb128 .LVU255
 6976 0824 02        		.uleb128 .LVU261
 6977               	.LLST38:
 6978 0825 04        		.byte	0x4
 6979 0826 EA06      		.uleb128 .LVL67-.Ltext0
 6980 0828 8007      		.uleb128 .LVL69-.Ltext0
 6981 082a 01        		.uleb128 0x1
 6982 082b 54        		.byte	0x54
 6983 082c 00        		.byte	0
 6984               	.LVUS50:
 6985 082d 02        		.uleb128 .LVU368
 6986 082e 00        		.uleb128 .LVU376
 6987               	.LLST50:
 6988 082f 04        		.byte	0x4
 6989 0830 980A      		.uleb128 .LVL90-.Ltext0
 6990 0832 BD0A      		.uleb128 .LVL91-1-.Ltext0
 6991 0834 0B        		.uleb128 0xb
 6992 0835 71        		.byte	0x71
 6993 0836 00        		.sleb128 0
 6994 0837 3C        		.byte	0x3c
 6995 0838 1E        		.byte	0x1e
 6996 0839 03        		.byte	0x3
 6997 083a 0000 0000 		.long	semaphore
 6998 083e 22        		.byte	0x22
 6999 083f 9F        		.byte	0x9f
 7000 0840 00        		.byte	0
 7001               	.LVUS64:
 7002 0841 02        		.uleb128 .LVU455
 7003 0842 00        		.uleb128 .LVU463
 7004               	.LLST64:
 7005 0843 04        		.byte	0x4
 7006 0844 800D      		.uleb128 .LVL112-.Ltext0
 7007 0846 A50D      		.uleb128 .LVL113-1-.Ltext0
 7008 0848 0B        		.uleb128 0xb
 7009 0849 71        		.byte	0x71


 7010 084a 00        		.sleb128 0
 7011 084b 3C        		.byte	0x3c
 7012 084c 1E        		.byte	0x1e
 7013 084d 03        		.byte	0x3
 7014 084e 0000 0000 		.long	semaphore
 7015 0852 22        		.byte	0x22
 7016 0853 9F        		.byte	0x9f
 7017 0854 00        		.byte	0
 7018               	.Ldebug_loc3:
 7019               		.section	.debug_aranges,"",@progbits
 7020 0000 0000 001C 		.long	0x1c
 7021 0004 0002      		.word	0x2
 7022 0006 0000 0000 		.long	.Ldebug_info0
 7023 000a 04        		.byte	0x4
 7024 000b 00        		.byte	0
 7025 000c 0000      		.word	0
 7026 000e 0000      		.word	0
 7027 0010 0000 0000 		.long	.Ltext0
 7028 0014 0000 08AE 		.long	.Letext0-.Ltext0
 7029 0018 0000 0000 		.long	0
 7030 001c 0000 0000 		.long	0
 7031               		.section	.debug_rnglists,"",@progbits
 7032               	.Ldebug_ranges0:
 7033 0000 0000 00F7 		.long	.Ldebug_ranges3-.Ldebug_ranges2
 7034               	.Ldebug_ranges2:
 7035 0004 0005      		.word	0x5
 7036 0006 04        		.byte	0x4
 7037 0007 00        		.byte	0
 7038 0008 0000 0000 		.long	0
 7039               	.LLRL14:
 7040 000c 04        		.byte	0x4
 7041 000d F602      		.uleb128 .LBB32-.Ltext0
 7042 000f B203      		.uleb128 .LBE32-.Ltext0
 7043 0011 04        		.byte	0x4
 7044 0012 D603      		.uleb128 .LBB39-.Ltext0
 7045 0014 FC03      		.uleb128 .LBE39-.Ltext0
 7046 0016 00        		.byte	0
 7047               	.LLRL17:
 7048 0017 04        		.byte	0x4
 7049 0018 F602      		.uleb128 .LBB34-.Ltext0
 7050 001a 9C03      		.uleb128 .LBE34-.Ltext0
 7051 001c 04        		.byte	0x4
 7052 001d D603      		.uleb128 .LBB37-.Ltext0
 7053 001f FC03      		.uleb128 .LBE37-.Ltext0
 7054 0021 00        		.byte	0
 7055               	.LLRL27:
 7056 0022 04        		.byte	0x4
 7057 0023 B805      		.uleb128 .LBB45-.Ltext0
 7058 0025 E405      		.uleb128 .LBE45-.Ltext0
 7059 0027 04        		.byte	0x4
 7060 0028 8606      		.uleb128 .LBB49-.Ltext0
 7061 002a 9C06      		.uleb128 .LBE49-.Ltext0
 7062 002c 00        		.byte	0
 7063               	.LLRL29:
 7064 002d 04        		.byte	0x4
 7065 002e E405      		.uleb128 .LBB46-.Ltext0
 7066 0030 8206      		.uleb128 .LBE46-.Ltext0


 7067 0032 04        		.byte	0x4
 7068 0033 A006      		.uleb128 .LBB50-.Ltext0
 7069 0035 A806      		.uleb128 .LBE50-.Ltext0
 7070 0037 00        		.byte	0
 7071               	.LLRL32:
 7072 0038 04        		.byte	0x4
 7073 0039 C406      		.uleb128 .LBB57-.Ltext0
 7074 003b 8007      		.uleb128 .LBE57-.Ltext0
 7075 003d 04        		.byte	0x4
 7076 003e 9007      		.uleb128 .LBB64-.Ltext0
 7077 0040 B607      		.uleb128 .LBE64-.Ltext0
 7078 0042 00        		.byte	0
 7079               	.LLRL35:
 7080 0043 04        		.byte	0x4
 7081 0044 C406      		.uleb128 .LBB59-.Ltext0
 7082 0046 EA06      		.uleb128 .LBE59-.Ltext0
 7083 0048 04        		.byte	0x4
 7084 0049 9007      		.uleb128 .LBB62-.Ltext0
 7085 004b B607      		.uleb128 .LBE62-.Ltext0
 7086 004d 00        		.byte	0
 7087               	.LLRL40:
 7088 004e 04        		.byte	0x4
 7089 004f 8C08      		.uleb128 .LBB75-.Ltext0
 7090 0051 E208      		.uleb128 .LBE75-.Ltext0
 7091 0053 04        		.byte	0x4
 7092 0054 CC09      		.uleb128 .LBB88-.Ltext0
 7093 0056 940A      		.uleb128 .LBE88-.Ltext0
 7094 0058 00        		.byte	0
 7095               	.LLRL41:
 7096 0059 04        		.byte	0x4
 7097 005a A008      		.uleb128 .LBB77-.Ltext0
 7098 005c D808      		.uleb128 .LBE77-.Ltext0
 7099 005e 04        		.byte	0x4
 7100 005f E009      		.uleb128 .LBB84-.Ltext0
 7101 0061 860A      		.uleb128 .LBE84-.Ltext0
 7102 0063 00        		.byte	0
 7103               	.LLRL44:
 7104 0064 04        		.byte	0x4
 7105 0065 A008      		.uleb128 .LBB79-.Ltext0
 7106 0067 C808      		.uleb128 .LBE79-.Ltext0
 7107 0069 04        		.byte	0x4
 7108 006a E009      		.uleb128 .LBB82-.Ltext0
 7109 006c 860A      		.uleb128 .LBE82-.Ltext0
 7110 006e 00        		.byte	0
 7111               	.LLRL53:
 7112 006f 04        		.byte	0x4
 7113 0070 EE0A      		.uleb128 .LBB97-.Ltext0
 7114 0072 BC0B      		.uleb128 .LBE97-.Ltext0
 7115 0074 04        		.byte	0x4
 7116 0075 C20B      		.uleb128 .LBB107-.Ltext0
 7117 0077 E00B      		.uleb128 .LBE107-.Ltext0
 7118 0079 04        		.byte	0x4
 7119 007a E20C      		.uleb128 .LBB110-.Ltext0
 7120 007c FC0C      		.uleb128 .LBE110-.Ltext0
 7121 007e 00        		.byte	0
 7122               	.LLRL56:
 7123 007f 04        		.byte	0x4


 7124 0080 EE0A      		.uleb128 .LBB99-.Ltext0
 7125 0082 9C0B      		.uleb128 .LBE99-.Ltext0
 7126 0084 04        		.byte	0x4
 7127 0085 C20B      		.uleb128 .LBB103-.Ltext0
 7128 0087 E00B      		.uleb128 .LBE103-.Ltext0
 7129 0089 00        		.byte	0
 7130               	.LLRL58:
 7131 008a 04        		.byte	0x4
 7132 008b 9C0B      		.uleb128 .LBB100-.Ltext0
 7133 008d BC0B      		.uleb128 .LBE100-.Ltext0
 7134 008f 04        		.byte	0x4
 7135 0090 E20C      		.uleb128 .LBB104-.Ltext0
 7136 0092 FC0C      		.uleb128 .LBE104-.Ltext0
 7137 0094 00        		.byte	0
 7138               	.LLRL66:
 7139 0095 04        		.byte	0x4
 7140 0096 D40D      		.uleb128 .LBB126-.Ltext0
 7141 0098 A40F      		.uleb128 .LBE126-.Ltext0
 7142 009a 04        		.byte	0x4
 7143 009b B40F      		.uleb128 .LBB159-.Ltext0
 7144 009d CA10      		.uleb128 .LBE159-.Ltext0
 7145 009f 00        		.byte	0
 7146               	.LLRL68:
 7147 00a0 04        		.byte	0x4
 7148 00a1 EA0D      		.uleb128 .LBB127-.Ltext0
 7149 00a3 F00D      		.uleb128 .LBE127-.Ltext0
 7150 00a5 04        		.byte	0x4
 7151 00a6 F00D      		.uleb128 .LBB133-.Ltext0
 7152 00a8 FA0D      		.uleb128 .LBE133-.Ltext0
 7153 00aa 04        		.byte	0x4
 7154 00ab B40F      		.uleb128 .LBB149-.Ltext0
 7155 00ad BC0F      		.uleb128 .LBE149-.Ltext0
 7156 00af 04        		.byte	0x4
 7157 00b0 F20F      		.uleb128 .LBB151-.Ltext0
 7158 00b2 F60F      		.uleb128 .LBE151-.Ltext0
 7159 00b4 04        		.byte	0x4
 7160 00b5 F60F      		.uleb128 .LBB152-.Ltext0
 7161 00b7 8210      		.uleb128 .LBE152-.Ltext0
 7162 00b9 00        		.byte	0
 7163               	.LLRL71:
 7164 00ba 04        		.byte	0x4
 7165 00bb 9A0E      		.uleb128 .LBB134-.Ltext0
 7166 00bd DC0E      		.uleb128 .LBE134-.Ltext0
 7167 00bf 04        		.byte	0x4
 7168 00c0 DC0F      		.uleb128 .LBB150-.Ltext0
 7169 00c2 E60F      		.uleb128 .LBE150-.Ltext0
 7170 00c4 04        		.byte	0x4
 7171 00c5 8210      		.uleb128 .LBB153-.Ltext0
 7172 00c7 9810      		.uleb128 .LBE153-.Ltext0
 7173 00c9 00        		.byte	0
 7174               	.LLRL75:
 7175 00ca 04        		.byte	0x4
 7176 00cb DC0E      		.uleb128 .LBB138-.Ltext0
 7177 00cd A40F      		.uleb128 .LBE138-.Ltext0
 7178 00cf 04        		.byte	0x4
 7179 00d0 9810      		.uleb128 .LBB154-.Ltext0
 7180 00d2 CA10      		.uleb128 .LBE154-.Ltext0


 7181 00d4 00        		.byte	0
 7182               	.LLRL76:
 7183 00d5 04        		.byte	0x4
 7184 00d6 DC0E      		.uleb128 .LBB140-.Ltext0
 7185 00d8 9A0F      		.uleb128 .LBE140-.Ltext0
 7186 00da 04        		.byte	0x4
 7187 00db 9810      		.uleb128 .LBB147-.Ltext0
 7188 00dd BE10      		.uleb128 .LBE147-.Ltext0
 7189 00df 00        		.byte	0
 7190               	.LLRL79:
 7191 00e0 04        		.byte	0x4
 7192 00e1 DC0E      		.uleb128 .LBB142-.Ltext0
 7193 00e3 8A0F      		.uleb128 .LBE142-.Ltext0
 7194 00e5 04        		.byte	0x4
 7195 00e6 9810      		.uleb128 .LBB145-.Ltext0
 7196 00e8 BE10      		.uleb128 .LBE145-.Ltext0
 7197 00ea 00        		.byte	0
 7198               	.LLRL83:
 7199 00eb 04        		.byte	0x4
 7200 00ec A40F      		.uleb128 .LBB155-.Ltext0
 7201 00ee AE0F      		.uleb128 .LBE155-.Ltext0
 7202 00f0 04        		.byte	0x4
 7203 00f1 CA10      		.uleb128 .LBB160-.Ltext0
 7204 00f3 CE10      		.uleb128 .LBE160-.Ltext0
 7205 00f5 04        		.byte	0x4
 7206 00f6 D210      		.uleb128 .LBB161-.Ltext0
 7207 00f8 D610      		.uleb128 .LBE161-.Ltext0
 7208 00fa 00        		.byte	0
 7209               	.Ldebug_ranges3:
 7210               		.section	.debug_line,"",@progbits
 7211               	.Ldebug_line0:
 7212 0000 0000 0A06 		.section	.debug_str,"MS",@progbits,1
 7212      0003 0000 
 7212      011B 0201 
 7212      FB0E 0D00 
 7212      0101 0101 
 7213               	.LASF140:
 7214 0000 715F 7074 		.string	"q_ptr"
 7214      7200 
 7215               	.LASF101:
 7216 0006 5441 534B 		.string	"TASK_ID_TYPE"
 7216      5F49 445F 
 7216      5459 5045 
 7216      00
 7217               	.LASF135:
 7218 0013 7761 6974 		.string	"waitp_body"
 7218      705F 626F 
 7218      6479 00
 7219               	.LASF126:
 7220 001e 7377 7463 		.string	"swtch"
 7220      6800 
 7221               	.LASF113:
 7222 0024 7373 7461 		.string	"sstack"
 7222      636B 00
 7223               	.LASF144:
 7224 002b 7573 7461 		.string	"ustack_top"
 7224      636B 5F74 


 7224      6F70 00
 7225               	.LASF89:
 7226 0036 5F77 6374 		.string	"_wctomb_state"
 7226      6F6D 625F 
 7226      7374 6174 
 7226      6500 
 7227               	.LASF116:
 7228 0044 7374 6163 		.string	"stacks"
 7228      6B73 00
 7229               	.LASF86:
 7230 004b 5F72 3438 		.string	"_r48"
 7230      00
 7231               	.LASF150:
 7232 0050 474E 5520 		.string	"GNU C17 11.4.0 -mcpu=68000 -msoft-float -g -O2 -fomit-frame-pointer"
 7232      4331 3720 
 7232      3131 2E34 
 7232      2E30 202D 
 7232      6D63 7075 
 7233               	.LASF124:
 7234 0094 636F 6D31 		.string	"com1in"
 7234      696E 00
 7235               	.LASF137:
 7236 009b 765F 626F 		.string	"v_body"
 7236      6479 00
 7237               	.LASF91:
 7238 00a2 5F73 6967 		.string	"_signal_buf"
 7238      6E61 6C5F 
 7238      6275 6600 
 7239               	.LASF11:
 7240 00ae 756E 7369 		.string	"unsigned int"
 7240      676E 6564 
 7240      2069 6E74 
 7240      00
 7241               	.LASF110:
 7242 00bb 6E65 7874 		.string	"next"
 7242      00
 7243               	.LASF44:
 7244 00c0 5F6C 6266 		.string	"_lbfsize"
 7244      7369 7A65 
 7244      00
 7245               	.LASF42:
 7246 00c9 5F66 6C61 		.string	"_flags"
 7246      6773 00
 7247               	.LASF59:
 7248 00d0 5F65 7272 		.string	"_errno"
 7248      6E6F 00
 7249               	.LASF131:
 7250 00d7 7365 6D61 		.string	"sema"
 7250      00
 7251               	.LASF128:
 7252 00dc 696E 6974 		.string	"init_timer"
 7252      5F74 696D 
 7252      6572 00
 7253               	.LASF21:
 7254 00e7 5F4C 4F43 		.string	"_LOCK_RECURSIVE_T"
 7254      4B5F 5245 
 7254      4355 5253 


 7254      4956 455F 
 7254      5400 
 7255               	.LASF46:
 7256 00f9 5F72 6561 		.string	"_read"
 7256      6400 
 7257               	.LASF93:
 7258 00ff 5F6D 6272 		.string	"_mbrlen_state"
 7258      6C65 6E5F 
 7258      7374 6174 
 7258      6500 
 7259               	.LASF125:
 7260 010d 636F 6D31 		.string	"com1out"
 7260      6F75 7400 
 7261               	.LASF61:
 7262 0115 5F73 7464 		.string	"_stdout"
 7262      6F75 7400 
 7263               	.LASF13:
 7264 011d 5F66 706F 		.string	"_fpos_t"
 7264      735F 7400 
 7265               	.LASF45:
 7266 0125 5F63 6F6F 		.string	"_cookie"
 7266      6B69 6500 
 7267               	.LASF141:
 7268 012d 7461 736B 		.string	"task_id"
 7268      5F69 6400 
 7269               	.LASF27:
 7270 0135 5F42 6967 		.string	"_Bigint"
 7270      696E 7400 
 7271               	.LASF35:
 7272 013d 5F5F 746D 		.string	"__tm_wday"
 7272      5F77 6461 
 7272      7900 
 7273               	.LASF67:
 7274 0147 5F72 6573 		.string	"_result"
 7274      756C 7400 
 7275               	.LASF31:
 7276 014f 5F5F 746D 		.string	"__tm_hour"
 7276      5F68 6F75 
 7276      7200 
 7277               	.LASF112:
 7278 0159 7573 7461 		.string	"ustack"
 7278      636B 00
 7279               	.LASF17:
 7280 0160 5F5F 636F 		.string	"__count"
 7280      756E 7400 
 7281               	.LASF127:
 7282 0168 6669 7273 		.string	"first_task"
 7282      745F 7461 
 7282      736B 00
 7283               	.LASF30:
 7284 0173 5F5F 746D 		.string	"__tm_min"
 7284      5F6D 696E 
 7284      00
 7285               	.LASF103:
 7286 017c 636F 756E 		.string	"count"
 7286      7400 
 7287               	.LASF77:


 7288 0182 5F72 616E 		.string	"_rand48"
 7288      6434 3800 
 7289               	.LASF68:
 7290 018a 5F72 6573 		.string	"_result_k"
 7290      756C 745F 
 7290      6B00 
 7291               	.LASF7:
 7292 0194 6C6F 6E67 		.string	"long long unsigned int"
 7292      206C 6F6E 
 7292      6720 756E 
 7292      7369 676E 
 7292      6564 2069 
 7293               	.LASF82:
 7294 01ab 5F61 7363 		.string	"_asctime_buf"
 7294      7469 6D65 
 7294      5F62 7566 
 7294      00
 7295               	.LASF41:
 7296 01b8 5F5F 7346 		.string	"__sFILE"
 7296      494C 4500 
 7297               	.LASF26:
 7298 01c0 5F77 6473 		.string	"_wds"
 7298      00
 7299               	.LASF76:
 7300 01c5 5F5F 4649 		.string	"__FILE"
 7300      4C45 00
 7301               	.LASF53:
 7302 01cc 5F6F 6666 		.string	"_offset"
 7302      7365 7400 
 7303               	.LASF64:
 7304 01d4 5F65 6D65 		.string	"_emergency"
 7304      7267 656E 
 7304      6379 00
 7305               	.LASF132:
 7306 01df 776F 6B65 		.string	"woken_task_id"
 7306      6E5F 7461 
 7306      736B 5F69 
 7306      6400 
 7307               	.LASF111:
 7308 01ed 5443 425F 		.string	"TCB_TYPE"
 7308      5459 5045 
 7308      00
 7309               	.LASF156:
 7310 01f6 7075 7473 		.string	"puts"
 7310      00
 7311               	.LASF115:
 7312 01fb 7461 736B 		.string	"task_tab"
 7312      5F74 6162 
 7312      00
 7313               	.LASF29:
 7314 0204 5F5F 746D 		.string	"__tm_sec"
 7314      5F73 6563 
 7314      00
 7315               	.LASF36:
 7316 020d 5F5F 746D 		.string	"__tm_yday"
 7316      5F79 6461 
 7316      7900 


 7317               	.LASF63:
 7318 0217 5F69 6E63 		.string	"_inc"
 7318      00
 7319               	.LASF133:
 7320 021c 7761 6B65 		.string	"wakeup"
 7320      7570 00
 7321               	.LASF23:
 7322 0223 5F6E 6578 		.string	"_next"
 7322      7400 
 7323               	.LASF108:
 7324 0229 7072 696F 		.string	"priority"
 7324      7269 7479 
 7324      00
 7325               	.LASF95:
 7326 0232 5F6D 6273 		.string	"_mbsrtowcs_state"
 7326      7274 6F77 
 7326      6373 5F73 
 7326      7461 7465 
 7326      00
 7327               	.LASF18:
 7328 0243 5F5F 7661 		.string	"__value"
 7328      6C75 6500 
 7329               	.LASF69:
 7330 024b 5F70 3573 		.string	"_p5s"
 7330      00
 7331               	.LASF119:
 7332 0250 6E65 7874 		.string	"next_task"
 7332      5F74 6173 
 7332      6B00 
 7333               	.LASF97:
 7334 025a 5F77 6373 		.string	"_wcsrtombs_state"
 7334      7274 6F6D 
 7334      6273 5F73 
 7334      7461 7465 
 7334      00
 7335               	.LASF151:
 7336 026b 6D74 6B5F 		.string	"mtk_c.c"
 7336      632E 6300 
 7337               	.LASF123:
 7338 0273 636F 6D30 		.string	"com0out"
 7338      6F75 7400 
 7339               	.LASF75:
 7340 027b 6368 6172 		.string	"char"
 7340      00
 7341               	.LASF32:
 7342 0280 5F5F 746D 		.string	"__tm_mday"
 7342      5F6D 6461 
 7342      7900 
 7343               	.LASF74:
 7344 028a 5F73 6967 		.string	"_sig_func"
 7344      5F66 756E 
 7344      6300 
 7345               	.LASF94:
 7346 0294 5F6D 6272 		.string	"_mbrtowc_state"
 7346      746F 7763 
 7346      5F73 7461 
 7346      7465 00


 7347               	.LASF22:
 7348 02a3 5F66 6C6F 		.string	"_flock_t"
 7348      636B 5F74 
 7348      00
 7349               	.LASF15:
 7350 02ac 5F5F 7763 		.string	"__wch"
 7350      6800 
 7351               	.LASF138:
 7352 02b2 705F 626F 		.string	"p_body"
 7352      6479 00
 7353               	.LASF157:
 7354 02b9 5F5F 6275 		.string	"__builtin_puts"
 7354      696C 7469 
 7354      6E5F 7075 
 7354      7473 00
 7355               	.LASF109:
 7356 02c8 7374 6174 		.string	"status"
 7356      7573 00
 7357               	.LASF49:
 7358 02cf 5F63 6C6F 		.string	"_close"
 7358      7365 00
 7359               	.LASF114:
 7360 02d6 5354 4143 		.string	"STACK_TYPE"
 7360      4B5F 5459 
 7360      5045 00
 7361               	.LASF117:
 7362 02e1 6375 7272 		.string	"curr_task"
 7362      5F74 6173 
 7362      6B00 
 7363               	.LASF136:
 7364 02eb 7365 6D5F 		.string	"sem_id"
 7364      6964 00
 7365               	.LASF60:
 7366 02f2 5F73 7464 		.string	"_stdin"
 7366      696E 00
 7367               	.LASF84:
 7368 02f9 5F67 616D 		.string	"_gamma_signgam"
 7368      6D61 5F73 
 7368      6967 6E67 
 7368      616D 00
 7369               	.LASF6:
 7370 0308 6C6F 6E67 		.string	"long long int"
 7370      206C 6F6E 
 7370      6720 696E 
 7370      7400 
 7371               	.LASF130:
 7372 0316 7072 696E 		.string	"printf"
 7372      7466 00
 7373               	.LASF147:
 7374 031d 6265 6769 		.string	"begin_sch"
 7374      6E5F 7363 
 7374      6800 
 7375               	.LASF39:
 7376 0327 5F62 6173 		.string	"_base"
 7376      6500 
 7377               	.LASF70:
 7378 032d 5F66 7265 		.string	"_freelist"


 7378      656C 6973 
 7378      7400 
 7379               	.LASF79:
 7380 0337 5F6D 756C 		.string	"_mult"
 7380      7400 
 7381               	.LASF20:
 7382 033d 5F5F 554C 		.string	"__ULong"
 7382      6F6E 6700 
 7383               	.LASF96:
 7384 0345 5F77 6372 		.string	"_wcrtomb_state"
 7384      746F 6D62 
 7384      5F73 7461 
 7384      7465 00
 7385               	.LASF43:
 7386 0354 5F66 696C 		.string	"_file"
 7386      6500 
 7387               	.LASF120:
 7388 035a 7265 6164 		.string	"ready"
 7388      7900 
 7389               	.LASF66:
 7390 0360 5F5F 636C 		.string	"__cleanup"
 7390      6561 6E75 
 7390      7000 
 7391               	.LASF87:
 7392 036a 5F6D 626C 		.string	"_mblen_state"
 7392      656E 5F73 
 7392      7461 7465 
 7392      00
 7393               	.LASF19:
 7394 0377 5F6D 6273 		.string	"_mbstate_t"
 7394      7461 7465 
 7394      5F74 00
 7395               	.LASF37:
 7396 0382 5F5F 746D 		.string	"__tm_isdst"
 7396      5F69 7364 
 7396      7374 00
 7397               	.LASF98:
 7398 038d 5F68 5F65 		.string	"_h_errno"
 7398      7272 6E6F 
 7398      00
 7399               	.LASF129:
 7400 0396 6664 6F70 		.string	"fdopen"
 7400      656E 00
 7401               	.LASF152:
 7402 039d 2F68 6F6D 		.string	"/home/students/23nen/1TE23942W/os_group2/sw2"
 7402      652F 7374 
 7402      7564 656E 
 7402      7473 2F32 
 7402      336E 656E 
 7403               	.LASF149:
 7404 03ca 696E 6974 		.string	"init_kernel"
 7404      5F6B 6572 
 7404      6E65 6C00 
 7405               	.LASF33:
 7406 03d6 5F5F 746D 		.string	"__tm_mon"
 7406      5F6D 6F6E 
 7406      00


 7407               	.LASF8:
 7408 03df 6C6F 6E67 		.string	"long double"
 7408      2064 6F75 
 7408      626C 6500 
 7409               	.LASF47:
 7410 03eb 5F77 7269 		.string	"_write"
 7410      7465 00
 7411               	.LASF105:
 7412 03f2 5345 4D41 		.string	"SEMAPHORE_TYPE"
 7412      5048 4F52 
 7412      455F 5459 
 7412      5045 00
 7413               	.LASF9:
 7414 0401 5F5F 7569 		.string	"__uintptr_t"
 7414      6E74 7074 
 7414      725F 7400 
 7415               	.LASF56:
 7416 040d 5F6D 6273 		.string	"_mbstate"
 7416      7461 7465 
 7416      00
 7417               	.LASF122:
 7418 0416 636F 6D30 		.string	"com0in"
 7418      696E 00
 7419               	.LASF2:
 7420 041d 7368 6F72 		.string	"short int"
 7420      7420 696E 
 7420      7400 
 7421               	.LASF146:
 7422 0427 6664 5F6D 		.string	"fd_mapping"
 7422      6170 7069 
 7422      6E67 00
 7423               	.LASF148:
 7424 0432 7365 745F 		.string	"set_task"
 7424      7461 736B 
 7424      00
 7425               	.LASF4:
 7426 043b 6C6F 6E67 		.string	"long int"
 7426      2069 6E74 
 7426      00
 7427               	.LASF102:
 7428 0444 5345 4D41 		.string	"SEMAPHORE_ID_TYPE"
 7428      5048 4F52 
 7428      455F 4944 
 7428      5F54 5950 
 7428      4500 
 7429               	.LASF25:
 7430 0456 5F73 6967 		.string	"_sign"
 7430      6E00 
 7431               	.LASF54:
 7432 045c 5F64 6174 		.string	"_data"
 7432      6100 
 7433               	.LASF106:
 7434 0462 7461 736B 		.string	"task_addr"
 7434      5F61 6464 
 7434      7200 
 7435               	.LASF16:
 7436 046c 5F5F 7763 		.string	"__wchb"


 7436      6862 00
 7437               	.LASF118:
 7438 0473 6E65 775F 		.string	"new_task"
 7438      7461 736B 
 7438      00
 7439               	.LASF34:
 7440 047c 5F5F 746D 		.string	"__tm_year"
 7440      5F79 6561 
 7440      7200 
 7441               	.LASF83:
 7442 0486 5F6C 6F63 		.string	"_localtime_buf"
 7442      616C 7469 
 7442      6D65 5F62 
 7442      7566 00
 7443               	.LASF73:
 7444 0495 5F6E 6577 		.string	"_new"
 7444      00
 7445               	.LASF104:
 7446 049a 7461 736B 		.string	"task_list"
 7446      5F6C 6973 
 7446      7400 
 7447               	.LASF71:
 7448 04a4 5F63 7674 		.string	"_cvtlen"
 7448      6C65 6E00 
 7449               	.LASF24:
 7450 04ac 5F6D 6178 		.string	"_maxwds"
 7450      7764 7300 
 7451               	.LASF90:
 7452 04b4 5F6C 3634 		.string	"_l64a_buf"
 7452      615F 6275 
 7452      6600 
 7453               	.LASF121:
 7454 04be 7365 6D61 		.string	"semaphore"
 7454      7068 6F72 
 7454      6500 
 7455               	.LASF139:
 7456 04c8 7265 6D6F 		.string	"removeq"
 7456      7665 7100 
 7457               	.LASF52:
 7458 04d0 5F62 6C6B 		.string	"_blksize"
 7458      7369 7A65 
 7458      00
 7459               	.LASF100:
 7460 04d9 7569 6E74 		.string	"uintptr_t"
 7460      7074 725F 
 7460      7400 
 7461               	.LASF28:
 7462 04e3 5F5F 746D 		.string	"__tm"
 7462      00
 7463               	.LASF55:
 7464 04e8 5F6C 6F63 		.string	"_lock"
 7464      6B00 
 7465               	.LASF154:
 7466 04ee 7076 5F68 		.string	"pv_handler"
 7466      616E 646C 
 7466      6572 00
 7467               	.LASF5:


 7468 04f9 6C6F 6E67 		.string	"long unsigned int"
 7468      2075 6E73 
 7468      6967 6E65 
 7468      6420 696E 
 7468      7400 
 7469               	.LASF10:
 7470 050b 7769 6E74 		.string	"wint_t"
 7470      5F74 00
 7471               	.LASF72:
 7472 0512 5F63 7674 		.string	"_cvtbuf"
 7472      6275 6600 
 7473               	.LASF1:
 7474 051a 756E 7369 		.string	"unsigned char"
 7474      676E 6564 
 7474      2063 6861 
 7474      7200 
 7475               	.LASF92:
 7476 0528 5F67 6574 		.string	"_getdate_err"
 7476      6461 7465 
 7476      5F65 7272 
 7476      00
 7477               	.LASF155:
 7478 0535 7363 6865 		.string	"sched"
 7478      6400 
 7479               	.LASF80:
 7480 053b 5F61 6464 		.string	"_add"
 7480      00
 7481               	.LASF142:
 7482 0540 6164 6471 		.string	"addq"
 7482      00
 7483               	.LASF134:
 7484 0545 736C 6565 		.string	"sleep"
 7484      7000 
 7485               	.LASF38:
 7486 054b 5F5F 7362 		.string	"__sbuf"
 7486      7566 00
 7487               	.LASF107:
 7488 0552 7374 6163 		.string	"stack_ptr"
 7488      6B5F 7074 
 7488      7200 
 7489               	.LASF145:
 7490 055c 7373 705F 		.string	"ssp_s"
 7490      7300 
 7491               	.LASF143:
 7492 0562 696E 6974 		.string	"init_stack"
 7492      5F73 7461 
 7492      636B 00
 7493               	.LASF81:
 7494 056d 5F73 7472 		.string	"_strtok_last"
 7494      746F 6B5F 
 7494      6C61 7374 
 7494      00
 7495               	.LASF88:
 7496 057a 5F6D 6274 		.string	"_mbtowc_state"
 7496      6F77 635F 
 7496      7374 6174 
 7496      6500 


 7497               	.LASF65:
 7498 0588 5F6C 6F63 		.string	"_locale"
 7498      616C 6500 
 7499               	.LASF14:
 7500 0590 5F73 7369 		.string	"_ssize_t"
 7500      7A65 5F74 
 7500      00
 7501               	.LASF0:
 7502 0599 7369 676E 		.string	"signed char"
 7502      6564 2063 
 7502      6861 7200 
 7503               	.LASF58:
 7504 05a5 5F72 6565 		.string	"_reent"
 7504      6E74 00
 7505               	.LASF3:
 7506 05ac 7368 6F72 		.string	"short unsigned int"
 7506      7420 756E 
 7506      7369 676E 
 7506      6564 2069 
 7506      6E74 00
 7507               	.LASF40:
 7508 05bf 5F73 697A 		.string	"_size"
 7508      6500 
 7509               	.LASF12:
 7510 05c5 5F6F 6666 		.string	"_off_t"
 7510      5F74 00
 7511               	.LASF51:
 7512 05cc 5F6E 6275 		.string	"_nbuf"
 7512      6600 
 7513               	.LASF99:
 7514 05d2 4649 4C45 		.string	"FILE"
 7514      00
 7515               	.LASF57:
 7516 05d7 5F66 6C61 		.string	"_flags2"
 7516      6773 3200 
 7517               	.LASF78:
 7518 05df 5F73 6565 		.string	"_seed"
 7518      6400 
 7519               	.LASF85:
 7520 05e5 5F72 616E 		.string	"_rand_next"
 7520      645F 6E65 
 7520      7874 00
 7521               	.LASF153:
 7522 05f0 5F5F 6C6F 		.string	"__locale_t"
 7522      6361 6C65 
 7522      5F74 00
 7523               	.LASF48:
 7524 05fb 5F73 6565 		.string	"_seek"
 7524      6B00 
 7525               	.LASF62:
 7526 0601 5F73 7464 		.string	"_stderr"
 7526      6572 7200 
 7527               	.LASF50:
 7528 0609 5F75 6275 		.string	"_ubuf"
 7528      6600 
 7529               		.ident	"GCC: (GNU) 11.4.0"




   1               	.include "defs.s"
   1               	/* レジスタ定義 */
   2               	.equ REGBASE, 0xfff000 | DMAP を使用．
   3               	.equ IOBASE, 0x00d00000
   4               	
   5               	/* 割り込み関係のレジスタ*/
   6               	.equ IVR, REGBASE+0x300 | 割り込みベクタレジスタ
   7               	.equ IMR, REGBASE+0x304 | 割り込みマスクレジスタ
   8               	.equ ISR, REGBASE+0x30c | 割り込みステータスレジスタ
   9               	.equ IPR, REGBASE+0x310 | 割り込みペンディングレジスタ
  10               	
  11               	/* タイマ関係のレジスタ */
  12               	.equ TCTL1, REGBASE+0x600  | タイマ１コントロールレジスタ
  13               	.equ TPRER1, REGBASE+0x602 | タイマ１プリスケーラレジスタ
  14               	.equ TCMP1, REGBASE+0x604  | タイマ１コンペアレジスタ
  15               	.equ TCN1, REGBASE+0x608   | タイマ１カウンタレジスタ
  16               	.equ TSTAT1, REGBASE+0x60a | タイマ１ステータスレジスタ
  17               	
  18               	/* UART1（送受信）関係のレジスタ */
  19               	.equ USTCNT1, REGBASE+0x900 | UART1 ステータス/コントロールレジスタ
  20               	.equ UBAUD1, REGBASE+0x902  | UART1 ボーコントロールレジスタ
  21               	.equ URX1, REGBASE+0x904    | UART1 受信レジスタ
  22               	.equ UTX1, REGBASE+0x906    | UART1 送信レジスタ
  23               	
  24               	/* UART2（送受信）関係のレジスタ */
  25               	.equ USTCNT2, REGBASE+0x910 | UART2 ステータス/コントロールレジスタ
  26               	.equ UBAUD2, REGBASE+0x912  | UART2 ボーコントロールレジスタ
  27               	.equ URX2, REGBASE+0x914    | UART2 受信レジスタ
  28               	.equ UTX2, REGBASE+0x916    | UART2 送信レジスタ
  29               	
  30               	/* LED */
  31               	/*ここで指定されたアドレスに表示させたい文字コードを入れることでLED
  32               	.equ LED7, IOBASE+0x000002f | ボード搭載の LED 用レジスタ
  33               	.equ LED6, IOBASE+0x000002d 
  34               	.equ LED5, IOBASE+0x000002b
  35               	.equ LED4, IOBASE+0x0000029
  36               	.equ LED3, IOBASE+0x000003f
  37               	.equ LED2, IOBASE+0x000003d
  38               	.equ LED1, IOBASE+0x000003b
  39               	.equ LED0, IOBASE+0x0000039
  40               	
  41               	/*D0の値で呼び出すサブルーチンを決めている。ここでは何を呼び出して
  42               	.equ SYSCALL_NUM_GETSTRING,   1 |文字列入力（GETSTRING）（ここからコメント鴻上）
  43               	.equ SYSCALL_NUM_PUTSTRING,   2 |文字列出力(PUTSTRING)|
  44               	.equ SYSCALL_NUM_RESET_TIMER, 3 |タイマリセット|
  45               	.equ SYSCALL_NUM_SET_TIMER,   4 |タイマセット|
  46               	.equ SYSCALL_NUM_SKIPMT, 5
   2               	.global outbyte
   3               	
   4               	.text
   5               	.even
   6               	outbyte:
   7 0000 48E7 7080 	    movem.l %D1-%D3/%A0, -(%SP)
   8               	outbyte_retry:
   9 0004 7002      	    move.l #SYSCALL_NUM_PUTSTRING, %D0
  10 0006 204F      	    movea.l %sp, %A0
  11 0008 D1FC 0000 	    adda.l #20, %A0


  11      0014 
  12 000e 2210      	    move.l (%A0), %D1
  13 0010 D1FC 0000 	    adda.l #7, %A0
  13      0007 
  14 0016 2408      	    move.l %A0, %D2
  15 0018 7601      	    move.l #1, %D3
  16 001a 4E40      	    trap #0
  17 001c 0C80 0000 	    cmpi.l #0, %D0
  17      0000 
  18 0022 6700 FFE0 	    beq outbyte_retry
  19 0026 4CDF 010E 	    movem.l (%SP)+, %D1-%D3/%A0
  20 002a 4E75      	    rts




   1               	#NO_APP
   2               		.file	"test3.c"
   3               		.text
   4               	.Ltext0:
   5               		.cfi_sections	.debug_frame
   6               		.align	2
   7               		.globl	seed_task
   8               		.type	seed_task, @function
   9               	seed_task:
  10               	.LFB10:
  11               		.file 1 "test3.c"
   1:test3.c       **** #include <stdio.h>
   2:test3.c       **** #include <stdlib.h>
   3:test3.c       **** #include "mtk_c.h"
   4:test3.c       **** extern char inbyte(int ch);
   5:test3.c       **** extern char outbyte(int ch);
   6:test3.c       **** // 盤面の行列数
   7:test3.c       **** int row = 3;
   8:test3.c       **** int col = 3;
   9:test3.c       **** 
  10:test3.c       **** // 乱数シード
  11:test3.c       **** unsigned int seed;
  12:test3.c       **** 
  13:test3.c       **** typedef struct {
  14:test3.c       ****     int x;
  15:test3.c       ****     int y;
  16:test3.c       **** } indicator;
  17:test3.c       **** 
  18:test3.c       **** // 共有資源 0 (変更基準の座標)
  19:test3.c       **** indicator ch_p;
  20:test3.c       **** 
  21:test3.c       **** // 共有資源 1 (盤面)
  22:test3.c       **** int matrix[3][3] = {
  23:test3.c       ****     {1, 0, 1},
  24:test3.c       ****     {0, 1, 0},
  25:test3.c       ****     {1, 0, 1}
  26:test3.c       **** };
  27:test3.c       **** 
  28:test3.c       **** // 共有資源 2 (ゲーム終了フラグ)
  29:test3.c       **** int win_flag = 0;
  30:test3.c       **** 
  31:test3.c       **** // プレイヤーごとの入力保持用
  32:test3.c       **** char input_buf[2];
  33:test3.c       **** 
  34:test3.c       **** // カーソルの位置をリセット
  35:test3.c       **** void reset_cur(int move) {
  36:test3.c       ****     // 枠線の左端にカーソルを戻すエスケープシーケンス
  37:test3.c       ****     fprintf(com0out, "\033[%dA", move);
  38:test3.c       ****     fprintf(com1out, "\033[%dA", move);
  39:test3.c       **** }
  40:test3.c       **** 
  41:test3.c       **** // 盤面のリセット
  42:test3.c       **** void reset_matrix() {
  43:test3.c       ****     // 乱数シードの設定
  44:test3.c       ****     srand(seed);
  45:test3.c       ****     for (int i = 0; i < row; i++) {
  46:test3.c       ****         for (int j = 0; j < col; j++) {


  47:test3.c       ****             matrix[i][j] = rand() % 2;
  48:test3.c       ****         }
  49:test3.c       ****     }
  50:test3.c       **** }
  51:test3.c       **** 
  52:test3.c       **** // 盤面の描画
  53:test3.c       **** void draw_board() {
  54:test3.c       ****     // 上枠
  55:test3.c       ****     for (int i = 0; i < row + 2; i++) {
  56:test3.c       ****         fprintf(com0out, "-");
  57:test3.c       ****         fprintf(com1out, "-");
  58:test3.c       ****     }
  59:test3.c       ****     fprintf(com0out, "\n");
  60:test3.c       ****     fprintf(com1out, "\n");
  61:test3.c       **** 
  62:test3.c       ****     // 中身
  63:test3.c       ****     for (int i = 0; i < row; i++) {
  64:test3.c       ****         fprintf(com0out, "|");
  65:test3.c       ****         fprintf(com1out, "|");
  66:test3.c       ****         for (int j = 0; j < col; j++) {
  67:test3.c       ****             fprintf(com0out, "%d", matrix[i][j]);
  68:test3.c       ****             fprintf(com1out, "%d", matrix[i][j]);
  69:test3.c       ****         }
  70:test3.c       ****         fprintf(com0out, "|\n");
  71:test3.c       ****         fprintf(com1out, "|\n");
  72:test3.c       ****     }
  73:test3.c       **** 
  74:test3.c       ****     // 下枠
  75:test3.c       ****     for (int i = 0; i < col + 2; i++) {
  76:test3.c       ****         fprintf(com0out, "-");
  77:test3.c       ****         fprintf(com1out, "-");
  78:test3.c       ****     }
  79:test3.c       ****     fprintf(com0out, "\n");
  80:test3.c       ****     fprintf(com1out, "\n");
  81:test3.c       **** 
  82:test3.c       ****     // 描画後、カーソルを盤面の高さ分(5行)戻す
  83:test3.c       ****     reset_cur(5);
  84:test3.c       **** }
  85:test3.c       **** 
  86:test3.c       **** // 指定キーが押されたか判定
  87:test3.c       **** int inkey(int ch) {
  88:test3.c       ****     char c;
  89:test3.c       ****     c = inbyte(ch);
  90:test3.c       **** 
  91:test3.c       ****     // 同一キーの連続入力を無視（チャタリング・押しっぱなし防止）
  92:test3.c       ****     if (c == input_buf[ch]) {
  93:test3.c       ****         return 0;
  94:test3.c       ****     }
  95:test3.c       **** 
  96:test3.c       ****     // 対応キーの判定
  97:test3.c       ****     if (c == '1' || c == '2' || c == '3' ||
  98:test3.c       ****         c == 'q' || c == 'w' || c == 'e' ||
  99:test3.c       ****         c == 'a' || c == 's' || c == 'd') {
 100:test3.c       ****         input_buf[ch] = c;
 101:test3.c       ****         return 1; // true
 102:test3.c       ****     } else {
 103:test3.c       ****         return 0; // false


 104:test3.c       ****     }
 105:test3.c       **** }
 106:test3.c       **** 
 107:test3.c       **** // ゲーム終了条件を判定（全て0、または全て1でクリア）
 108:test3.c       **** int check_board() {
 109:test3.c       ****     int cnt = 0;
 110:test3.c       ****     for (int i = 0; i < row; i++) {
 111:test3.c       ****         for (int j = 0; j < col; j++) {
 112:test3.c       ****             if (matrix[i][j] == 0) {
 113:test3.c       ****                 cnt++;
 114:test3.c       ****             }
 115:test3.c       ****         }
 116:test3.c       ****     }
 117:test3.c       ****     // 盤面が全て 0 か 1 かを判定
 118:test3.c       ****     if (cnt == 0 || cnt == row * col) {
 119:test3.c       ****         return 1; // true
 120:test3.c       ****     } else {
 121:test3.c       ****         return 0; // false
 122:test3.c       ****     }
 123:test3.c       **** }
 124:test3.c       **** 
 125:test3.c       **** // 指定座標の値を反転 (0->1, 1->0)
 126:test3.c       **** void rev_matrix(int x, int y) {
 127:test3.c       ****     if (matrix[x][y] == 0) {
 128:test3.c       ****         matrix[x][y] = 1;
 129:test3.c       ****     } else if (matrix[x][y] == 1) {
 130:test3.c       ****         matrix[x][y] = 0;
 131:test3.c       ****     }
 132:test3.c       **** }
 133:test3.c       **** 
 134:test3.c       **** // 入力値に従った盤面の変更
 135:test3.c       **** void change_board(int ch) {
 136:test3.c       ****     char c = input_buf[ch];
 137:test3.c       **** 
 138:test3.c       ****     // 入力キーによる座標変換
 139:test3.c       ****     switch (c) {
 140:test3.c       ****         case '1': ch_p.x = 0; ch_p.y = 0; break;
 141:test3.c       ****         case '2': ch_p.x = 0; ch_p.y = 1; break;
 142:test3.c       ****         case '3': ch_p.x = 0; ch_p.y = 2; break;
 143:test3.c       ****         case 'q': ch_p.x = 1; ch_p.y = 0; break;
 144:test3.c       ****         case 'w': ch_p.x = 1; ch_p.y = 1; break;
 145:test3.c       ****         case 'e': ch_p.x = 1; ch_p.y = 2; break;
 146:test3.c       ****         case 'a': ch_p.x = 2; ch_p.y = 0; break;
 147:test3.c       ****         case 's': ch_p.x = 2; ch_p.y = 1; break;
 148:test3.c       ****         case 'd': ch_p.x = 2; ch_p.y = 2; break;
 149:test3.c       ****         default: return;
 150:test3.c       ****     }
 151:test3.c       **** 
 152:test3.c       ****     int x = ch_p.x;
 153:test3.c       ****     int y = ch_p.y;
 154:test3.c       **** 
 155:test3.c       ****     // 中心と上下左右を反転
 156:test3.c       ****     rev_matrix(x, y);
 157:test3.c       ****     if (x - 1 >= 0) rev_matrix(x - 1, y);
 158:test3.c       ****     if (y - 1 >= 0) rev_matrix(x, y - 1);
 159:test3.c       ****     if (x + 1 < 3)  rev_matrix(x + 1, y);
 160:test3.c       ****     if (y + 1 < 3)  rev_matrix(x, y + 1);


 161:test3.c       **** 
 162:test3.c       ****     // 盤面の再描画
 163:test3.c       ****     draw_board();
 164:test3.c       **** 
 165:test3.c       ****     // 終了判定
 166:test3.c       ****     if (check_board()) {
 167:test3.c       ****         win_flag = 1;
 168:test3.c       ****     }
 169:test3.c       **** }
 170:test3.c       **** 
 171:test3.c       **** // 乱数シード更新用タスク
 172:test3.c       **** void seed_task() {
  12               		.loc 1 172 18 view -0
  13               		.cfi_startproc
  14 0000 2F0A      		move.l %a2,-(%sp)
  15               		.cfi_def_cfa_offset 8
  16               		.cfi_offset 10, -8
  17 0002 45F9 0000 		lea rand,%a2
  17      0000 
  18               	.L2:
 173:test3.c       ****     while (1) {
  19               		.loc 1 173 5 discriminator 1 view .LVU1
 174:test3.c       ****         seed = rand();
  20               		.loc 1 174 9 discriminator 1 view .LVU2
  21               		.loc 1 174 16 is_stmt 0 discriminator 1 view .LVU3
  22 0008 4E92      		jsr (%a2)
  23               	.LVL0:
  24               		.loc 1 174 14 discriminator 1 view .LVU4
  25 000a 23C0 0000 		move.l %d0,seed
  25      0000 
 173:test3.c       ****     while (1) {
  26               		.loc 1 173 11 is_stmt 1 discriminator 1 view .LVU5
 173:test3.c       ****     while (1) {
  27               		.loc 1 173 5 discriminator 1 view .LVU6
  28               		.loc 1 174 9 discriminator 1 view .LVU7
  29               		.loc 1 174 16 is_stmt 0 discriminator 1 view .LVU8
  30 0010 4E92      		jsr (%a2)
  31               	.LVL1:
  32               		.loc 1 174 14 discriminator 1 view .LVU9
  33 0012 23C0 0000 		move.l %d0,seed
  33      0000 
 173:test3.c       ****     while (1) {
  34               		.loc 1 173 11 is_stmt 1 discriminator 1 view .LVU10
  35 0018 60EE      		jra .L2
  36               		.cfi_endproc
  37               	.LFE10:
  38               		.size	seed_task, .-seed_task
  39               		.section	.rodata.str1.1,"aMS",@progbits,1
  40               	.LC0:
  41 0000 1B5B 2564 		.string	"\033[%dA"
  41      4100 
  42               		.text
  43               		.align	2
  44               		.globl	reset_cur
  45               		.type	reset_cur, @function
  46               	reset_cur:
  47               	.LVL2:


  48               	.LFB3:
  35:test3.c       ****     // 枠線の左端にカーソルを戻すエスケープシーケンス
  49               		.loc 1 35 26 view -0
  50               		.cfi_startproc
  35:test3.c       ****     // 枠線の左端にカーソルを戻すエスケープシーケンス
  51               		.loc 1 35 26 is_stmt 0 view .LVU12
  52 001a 2F0A      		move.l %a2,-(%sp)
  53               		.cfi_def_cfa_offset 8
  54               		.cfi_offset 10, -8
  55 001c 2F02      		move.l %d2,-(%sp)
  56               		.cfi_def_cfa_offset 12
  57               		.cfi_offset 2, -12
  58 001e 242F 000C 		move.l 12(%sp),%d2
  37:test3.c       ****     fprintf(com1out, "\033[%dA", move);
  59               		.loc 1 37 5 is_stmt 1 view .LVU13
  60 0022 2F02      		move.l %d2,-(%sp)
  61               		.cfi_def_cfa_offset 16
  62 0024 4879 0000 		pea .LC0
  62      0000 
  63               		.cfi_def_cfa_offset 20
  64 002a 2F39 0000 		move.l com0out,-(%sp)
  64      0000 
  65               		.cfi_def_cfa_offset 24
  66 0030 45F9 0000 		lea fprintf,%a2
  66      0000 
  67 0036 4E92      		jsr (%a2)
  68               	.LVL3:
  38:test3.c       **** }
  69               		.loc 1 38 5 view .LVU14
  70 0038 2F02      		move.l %d2,-(%sp)
  71               		.cfi_def_cfa_offset 28
  72 003a 4879 0000 		pea .LC0
  72      0000 
  73               		.cfi_def_cfa_offset 32
  74 0040 2F39 0000 		move.l com1out,-(%sp)
  74      0000 
  75               		.cfi_def_cfa_offset 36
  76 0046 4E92      		jsr (%a2)
  77               	.LVL4:
  39:test3.c       **** 
  78               		.loc 1 39 1 is_stmt 0 view .LVU15
  79 0048 4FEF 0018 		lea (24,%sp),%sp
  80               		.cfi_def_cfa_offset 12
  81 004c 241F      		move.l (%sp)+,%d2
  82 004e 245F      		move.l (%sp)+,%a2
  83 0050 4E75      		rts
  84               		.cfi_endproc
  85               	.LFE3:
  86               		.size	reset_cur, .-reset_cur
  87               		.align	2
  88               		.globl	reset_matrix
  89               		.type	reset_matrix, @function
  90               	reset_matrix:
  91               	.LFB4:
  42:test3.c       ****     // 乱数シードの設定
  92               		.loc 1 42 21 is_stmt 1 view -0
  93               		.cfi_startproc


  94 0052 48E7 3038 		movem.l #12344,-(%sp)
  95               		.cfi_def_cfa_offset 24
  96               		.cfi_offset 2, -24
  97               		.cfi_offset 3, -20
  98               		.cfi_offset 10, -16
  99               		.cfi_offset 11, -12
 100               		.cfi_offset 12, -8
  44:test3.c       ****     for (int i = 0; i < row; i++) {
 101               		.loc 1 44 5 view .LVU17
 102 0056 2F39 0000 		move.l seed,-(%sp)
 102      0000 
 103               		.cfi_def_cfa_offset 28
 104 005c 4EB9 0000 		jsr srand
 104      0000 
 105               	.LVL5:
  45:test3.c       ****         for (int j = 0; j < col; j++) {
 106               		.loc 1 45 5 view .LVU18
 107               	.LBB2:
  45:test3.c       ****         for (int j = 0; j < col; j++) {
 108               		.loc 1 45 10 view .LVU19
  45:test3.c       ****         for (int j = 0; j < col; j++) {
 109               		.loc 1 45 23 view .LVU20
 110 0062 588F      		addq.l #4,%sp
 111               		.cfi_def_cfa_offset 24
 112 0064 4AB9 0000 		tst.l row
 112      0000 
 113 006a 6F42      		jle .L7
 114 006c 49F9 0000 		lea matrix,%a4
 114      0000 
  45:test3.c       ****         for (int j = 0; j < col; j++) {
 115               		.loc 1 45 14 is_stmt 0 view .LVU21
 116 0072 7600      		moveq #0,%d3
 117 0074 47F9 0000 		lea rand,%a3
 117      0000 
 118               	.LVL6:
 119               	.L9:
 120               	.LBB3:
  46:test3.c       ****             matrix[i][j] = rand() % 2;
 121               		.loc 1 46 27 is_stmt 1 view .LVU22
 122 007a 4AB9 0000 		tst.l col
 122      0000 
 123 0080 6F1E      		jle .L12
 124 0082 244C      		move.l %a4,%a2
  46:test3.c       ****             matrix[i][j] = rand() % 2;
 125               		.loc 1 46 18 is_stmt 0 view .LVU23
 126 0084 7400      		moveq #0,%d2
 127               	.LVL7:
 128               	.L11:
  47:test3.c       ****         }
 129               		.loc 1 47 13 is_stmt 1 discriminator 3 view .LVU24
  47:test3.c       ****         }
 130               		.loc 1 47 28 is_stmt 0 discriminator 3 view .LVU25
 131 0086 4E93      		jsr (%a3)
 132               	.LVL8:
  47:test3.c       ****         }
 133               		.loc 1 47 35 discriminator 3 view .LVU26
 134 0088 2200      		move.l %d0,%d1


 135 008a 0281 8000 		and.l #-2147483647,%d1
 135      0001 
 136 0090 4A80      		tst.l %d0
 137 0092 6D20      		jlt .L17
  47:test3.c       ****         }
 138               		.loc 1 47 26 discriminator 3 view .LVU27
 139 0094 24C1      		move.l %d1,(%a2)+
  46:test3.c       ****             matrix[i][j] = rand() % 2;
 140               		.loc 1 46 35 is_stmt 1 discriminator 3 view .LVU28
 141 0096 5282      		addq.l #1,%d2
 142               	.LVL9:
  46:test3.c       ****             matrix[i][j] = rand() % 2;
 143               		.loc 1 46 27 discriminator 3 view .LVU29
 144 0098 B4B9 0000 		cmp.l col.l,%d2
 144      0000 
 145 009e 6DE6      		jlt .L11
 146               	.LVL10:
 147               	.L12:
  46:test3.c       ****             matrix[i][j] = rand() % 2;
 148               		.loc 1 46 27 is_stmt 0 discriminator 3 view .LVU30
 149               	.LBE3:
  45:test3.c       ****         for (int j = 0; j < col; j++) {
 150               		.loc 1 45 31 is_stmt 1 view .LVU31
 151 00a0 5283      		addq.l #1,%d3
 152               	.LVL11:
  45:test3.c       ****         for (int j = 0; j < col; j++) {
 153               		.loc 1 45 23 view .LVU32
 154 00a2 49EC 000C 		lea (12,%a4),%a4
 155 00a6 B6B9 0000 		cmp.l row.l,%d3
 155      0000 
 156 00ac 6DCC      		jlt .L9
 157               	.LVL12:
 158               	.L7:
  45:test3.c       ****         for (int j = 0; j < col; j++) {
 159               		.loc 1 45 23 is_stmt 0 view .LVU33
 160               	.LBE2:
  50:test3.c       **** 
 161               		.loc 1 50 1 view .LVU34
 162 00ae 4CDF 1C0C 		movem.l (%sp)+,#7180
 163 00b2 4E75      		rts
 164               	.LVL13:
 165               	.L17:
 166               	.LBB5:
 167               	.LBB4:
  47:test3.c       ****         }
 168               		.loc 1 47 35 discriminator 3 view .LVU35
 169 00b4 5381      		subq.l #1,%d1
 170 00b6 70FE      		moveq #-2,%d0
 171 00b8 8280      		or.l %d0,%d1
 172 00ba 5281      		addq.l #1,%d1
  47:test3.c       ****         }
 173               		.loc 1 47 26 discriminator 3 view .LVU36
 174 00bc 24C1      		move.l %d1,(%a2)+
  46:test3.c       ****             matrix[i][j] = rand() % 2;
 175               		.loc 1 46 35 is_stmt 1 discriminator 3 view .LVU37
 176 00be 5282      		addq.l #1,%d2
 177               	.LVL14:


  46:test3.c       ****             matrix[i][j] = rand() % 2;
 178               		.loc 1 46 27 discriminator 3 view .LVU38
 179 00c0 B4B9 0000 		cmp.l col.l,%d2
 179      0000 
 180 00c6 6DBE      		jlt .L11
 181 00c8 60D6      		jra .L12
 182               	.LBE4:
 183               	.LBE5:
 184               		.cfi_endproc
 185               	.LFE4:
 186               		.size	reset_matrix, .-reset_matrix
 187               		.section	.rodata.str1.1
 188               	.LC1:
 189 0006 2564 00   		.string	"%d"
 190               	.LC2:
 191 0009 7C0A 00   		.string	"|\n"
 192               		.text
 193               		.align	2
 194               		.globl	draw_board
 195               		.type	draw_board, @function
 196               	draw_board:
 197               	.LFB5:
  53:test3.c       ****     // 上枠
 198               		.loc 1 53 19 view -0
 199               		.cfi_startproc
 200 00ca 48E7 303E 		movem.l #12350,-(%sp)
 201               		.cfi_def_cfa_offset 32
 202               		.cfi_offset 2, -32
 203               		.cfi_offset 3, -28
 204               		.cfi_offset 10, -24
 205               		.cfi_offset 11, -20
 206               		.cfi_offset 12, -16
 207               		.cfi_offset 13, -12
 208               		.cfi_offset 14, -8
  55:test3.c       ****         fprintf(com0out, "-");
 209               		.loc 1 55 5 view .LVU40
 210               	.LBB12:
  55:test3.c       ****         fprintf(com0out, "-");
 211               		.loc 1 55 10 view .LVU41
 212               	.LVL15:
  55:test3.c       ****         fprintf(com0out, "-");
 213               		.loc 1 55 23 view .LVU42
 214 00ce 70FF      		moveq #-1,%d0
 215 00d0 45F9 0000 		lea fputc,%a2
 215      0000 
 216 00d6 B0B9 0000 		cmp.l row.l,%d0
 216      0000 
 217 00dc 6E30      		jgt .L19
  55:test3.c       ****         fprintf(com0out, "-");
 218               		.loc 1 55 14 is_stmt 0 view .LVU43
 219 00de 7400      		moveq #0,%d2
 220 00e0 45F9 0000 		lea fputc,%a2
 220      0000 
 221               	.LVL16:
 222               	.L20:
  56:test3.c       ****         fprintf(com1out, "-");
 223               		.loc 1 56 9 is_stmt 1 discriminator 3 view .LVU44


 224 00e6 2F39 0000 		move.l com0out,-(%sp)
 224      0000 
 225               		.cfi_def_cfa_offset 36
 226 00ec 4878 002D 		pea 45.w
 227               		.cfi_def_cfa_offset 40
 228 00f0 4E92      		jsr (%a2)
 229               	.LVL17:
  57:test3.c       ****     }
 230               		.loc 1 57 9 discriminator 3 view .LVU45
 231 00f2 2F39 0000 		move.l com1out,-(%sp)
 231      0000 
 232               		.cfi_def_cfa_offset 44
 233 00f8 4878 002D 		pea 45.w
 234               		.cfi_def_cfa_offset 48
 235 00fc 4E92      		jsr (%a2)
 236               	.LVL18:
  55:test3.c       ****         fprintf(com0out, "-");
 237               		.loc 1 55 35 discriminator 3 view .LVU46
 238 00fe 2002      		move.l %d2,%d0
 239 0100 5282      		addq.l #1,%d2
 240               	.LVL19:
  55:test3.c       ****         fprintf(com0out, "-");
 241               		.loc 1 55 23 discriminator 3 view .LVU47
 242 0102 4FEF 0010 		lea (16,%sp),%sp
 243               		.cfi_def_cfa_offset 32
 244 0106 B0B9 0000 		cmp.l row.l,%d0
 244      0000 
 245 010c 6FD8      		jle .L20
 246               	.LVL20:
 247               	.L19:
  55:test3.c       ****         fprintf(com0out, "-");
 248               		.loc 1 55 23 is_stmt 0 discriminator 3 view .LVU48
 249               	.LBE12:
  59:test3.c       ****     fprintf(com1out, "\n");
 250               		.loc 1 59 5 is_stmt 1 view .LVU49
 251 010e 2F39 0000 		move.l com0out,-(%sp)
 251      0000 
 252               		.cfi_def_cfa_offset 36
 253 0114 4878 000A 		pea 10.w
 254               		.cfi_def_cfa_offset 40
 255 0118 4E92      		jsr (%a2)
 256               	.LVL21:
  60:test3.c       **** 
 257               		.loc 1 60 5 view .LVU50
 258 011a 2F39 0000 		move.l com1out,-(%sp)
 258      0000 
 259               		.cfi_def_cfa_offset 44
 260 0120 4878 000A 		pea 10.w
 261               		.cfi_def_cfa_offset 48
 262 0124 4E92      		jsr (%a2)
 263               	.LVL22:
  63:test3.c       ****         fprintf(com0out, "|");
 264               		.loc 1 63 5 view .LVU51
 265               	.LBB13:
  63:test3.c       ****         fprintf(com0out, "|");
 266               		.loc 1 63 10 view .LVU52
  63:test3.c       ****         fprintf(com0out, "|");


 267               		.loc 1 63 23 view .LVU53
 268 0126 4FEF 0010 		lea (16,%sp),%sp
 269               		.cfi_def_cfa_offset 32
 270 012a 49F9 0000 		lea fprintf,%a4
 270      0000 
 271 0130 4AB9 0000 		tst.l row
 271      0000 
 272 0136 6F00 00AC 		jle .L21
 273 013a 4BF9 0000 		lea matrix,%a5
 273      0000 
  63:test3.c       ****         fprintf(com0out, "|");
 274               		.loc 1 63 14 is_stmt 0 view .LVU54
 275 0140 7600      		moveq #0,%d3
 276 0142 49F9 0000 		lea fprintf,%a4
 276      0000 
 277 0148 4DF9 0000 		lea fwrite,%a6
 277      0000 
 278               	.LVL23:
 279               	.L24:
  64:test3.c       ****         fprintf(com1out, "|");
 280               		.loc 1 64 9 is_stmt 1 view .LVU55
 281 014e 2F39 0000 		move.l com0out,-(%sp)
 281      0000 
 282               		.cfi_def_cfa_offset 36
 283 0154 4878 007C 		pea 124.w
 284               		.cfi_def_cfa_offset 40
 285 0158 4E92      		jsr (%a2)
 286               	.LVL24:
  65:test3.c       ****         for (int j = 0; j < col; j++) {
 287               		.loc 1 65 9 view .LVU56
 288 015a 2F39 0000 		move.l com1out,-(%sp)
 288      0000 
 289               		.cfi_def_cfa_offset 44
 290 0160 4878 007C 		pea 124.w
 291               		.cfi_def_cfa_offset 48
 292 0164 4E92      		jsr (%a2)
 293               	.LVL25:
  66:test3.c       ****             fprintf(com0out, "%d", matrix[i][j]);
 294               		.loc 1 66 9 view .LVU57
 295               	.LBB14:
  66:test3.c       ****             fprintf(com0out, "%d", matrix[i][j]);
 296               		.loc 1 66 14 view .LVU58
  66:test3.c       ****             fprintf(com0out, "%d", matrix[i][j]);
 297               		.loc 1 66 27 view .LVU59
 298 0166 4FEF 0010 		lea (16,%sp),%sp
 299               		.cfi_def_cfa_offset 32
 300 016a 4AB9 0000 		tst.l col
 300      0000 
 301 0170 6F32      		jle .L22
 302 0172 264D      		move.l %a5,%a3
  66:test3.c       ****             fprintf(com0out, "%d", matrix[i][j]);
 303               		.loc 1 66 18 is_stmt 0 view .LVU60
 304 0174 7400      		moveq #0,%d2
 305               	.LVL26:
 306               	.L23:
  67:test3.c       ****             fprintf(com1out, "%d", matrix[i][j]);
 307               		.loc 1 67 13 is_stmt 1 discriminator 3 view .LVU61


 308 0176 2F13      		move.l (%a3),-(%sp)
 309               		.cfi_def_cfa_offset 36
 310 0178 4879 0000 		pea .LC1
 310      0000 
 311               		.cfi_def_cfa_offset 40
 312 017e 2F39 0000 		move.l com0out,-(%sp)
 312      0000 
 313               		.cfi_def_cfa_offset 44
 314 0184 4E94      		jsr (%a4)
 315               	.LVL27:
  68:test3.c       ****         }
 316               		.loc 1 68 13 discriminator 3 view .LVU62
 317 0186 2F1B      		move.l (%a3)+,-(%sp)
 318               		.cfi_def_cfa_offset 48
 319 0188 4879 0000 		pea .LC1
 319      0000 
 320               		.cfi_def_cfa_offset 52
 321 018e 2F39 0000 		move.l com1out,-(%sp)
 321      0000 
 322               		.cfi_def_cfa_offset 56
 323 0194 4E94      		jsr (%a4)
 324               	.LVL28:
  66:test3.c       ****             fprintf(com0out, "%d", matrix[i][j]);
 325               		.loc 1 66 35 discriminator 3 view .LVU63
 326 0196 5282      		addq.l #1,%d2
 327               	.LVL29:
  66:test3.c       ****             fprintf(com0out, "%d", matrix[i][j]);
 328               		.loc 1 66 27 discriminator 3 view .LVU64
 329 0198 4FEF 0018 		lea (24,%sp),%sp
 330               		.cfi_def_cfa_offset 32
 331 019c B4B9 0000 		cmp.l col.l,%d2
 331      0000 
 332 01a2 6DD2      		jlt .L23
 333               	.LVL30:
 334               	.L22:
  66:test3.c       ****             fprintf(com0out, "%d", matrix[i][j]);
 335               		.loc 1 66 27 is_stmt 0 discriminator 3 view .LVU65
 336               	.LBE14:
  70:test3.c       ****         fprintf(com1out, "|\n");
 337               		.loc 1 70 9 is_stmt 1 view .LVU66
 338 01a4 2F39 0000 		move.l com0out,-(%sp)
 338      0000 
 339               		.cfi_def_cfa_offset 36
 340 01aa 4878 0002 		pea 2.w
 341               		.cfi_def_cfa_offset 40
 342 01ae 4878 0001 		pea 1.w
 343               		.cfi_def_cfa_offset 44
 344 01b2 4879 0000 		pea .LC2
 344      0000 
 345               		.cfi_def_cfa_offset 48
 346 01b8 4E96      		jsr (%a6)
 347               	.LVL31:
  71:test3.c       ****     }
 348               		.loc 1 71 9 view .LVU67
 349 01ba 2F39 0000 		move.l com1out,-(%sp)
 349      0000 
 350               		.cfi_def_cfa_offset 52


 351 01c0 4878 0002 		pea 2.w
 352               		.cfi_def_cfa_offset 56
 353 01c4 4878 0001 		pea 1.w
 354               		.cfi_def_cfa_offset 60
 355 01c8 4879 0000 		pea .LC2
 355      0000 
 356               		.cfi_def_cfa_offset 64
 357 01ce 4E96      		jsr (%a6)
 358               	.LVL32:
  63:test3.c       ****         fprintf(com0out, "|");
 359               		.loc 1 63 31 view .LVU68
 360 01d0 5283      		addq.l #1,%d3
 361               	.LVL33:
  63:test3.c       ****         fprintf(com0out, "|");
 362               		.loc 1 63 23 view .LVU69
 363 01d2 4BED 000C 		lea (12,%a5),%a5
 364 01d6 4FEF 0020 		lea (32,%sp),%sp
 365               		.cfi_def_cfa_offset 32
 366 01da B6B9 0000 		cmp.l row.l,%d3
 366      0000 
 367 01e0 6D00 FF6C 		jlt .L24
 368               	.LVL34:
 369               	.L21:
  63:test3.c       ****         fprintf(com0out, "|");
 370               		.loc 1 63 23 is_stmt 0 view .LVU70
 371               	.LBE13:
 372               	.LBB15:
  75:test3.c       ****         fprintf(com0out, "-");
 373               		.loc 1 75 23 is_stmt 1 view .LVU71
 374 01e4 70FF      		moveq #-1,%d0
 375 01e6 B0B9 0000 		cmp.l col.l,%d0
 375      0000 
 376 01ec 6E2A      		jgt .L25
  75:test3.c       ****         fprintf(com0out, "-");
 377               		.loc 1 75 14 is_stmt 0 view .LVU72
 378 01ee 7400      		moveq #0,%d2
 379               	.LVL35:
 380               	.L26:
  76:test3.c       ****         fprintf(com1out, "-");
 381               		.loc 1 76 9 is_stmt 1 discriminator 3 view .LVU73
 382 01f0 2F39 0000 		move.l com0out,-(%sp)
 382      0000 
 383               		.cfi_def_cfa_offset 36
 384 01f6 4878 002D 		pea 45.w
 385               		.cfi_def_cfa_offset 40
 386 01fa 4E92      		jsr (%a2)
 387               	.LVL36:
  77:test3.c       ****     }
 388               		.loc 1 77 9 discriminator 3 view .LVU74
 389 01fc 2F39 0000 		move.l com1out,-(%sp)
 389      0000 
 390               		.cfi_def_cfa_offset 44
 391 0202 4878 002D 		pea 45.w
 392               		.cfi_def_cfa_offset 48
 393 0206 4E92      		jsr (%a2)
 394               	.LVL37:
  75:test3.c       ****         fprintf(com0out, "-");


 395               		.loc 1 75 35 discriminator 3 view .LVU75
 396 0208 2002      		move.l %d2,%d0
 397 020a 5282      		addq.l #1,%d2
 398               	.LVL38:
  75:test3.c       ****         fprintf(com0out, "-");
 399               		.loc 1 75 23 discriminator 3 view .LVU76
 400 020c 4FEF 0010 		lea (16,%sp),%sp
 401               		.cfi_def_cfa_offset 32
 402 0210 B0B9 0000 		cmp.l col.l,%d0
 402      0000 
 403 0216 6FD8      		jle .L26
 404               	.LVL39:
 405               	.L25:
  75:test3.c       ****         fprintf(com0out, "-");
 406               		.loc 1 75 23 is_stmt 0 discriminator 3 view .LVU77
 407               	.LBE15:
  79:test3.c       ****     fprintf(com1out, "\n");
 408               		.loc 1 79 5 is_stmt 1 view .LVU78
 409 0218 2F39 0000 		move.l com0out,-(%sp)
 409      0000 
 410               		.cfi_def_cfa_offset 36
 411 021e 4878 000A 		pea 10.w
 412               		.cfi_def_cfa_offset 40
 413 0222 4E92      		jsr (%a2)
 414               	.LVL40:
  80:test3.c       **** 
 415               		.loc 1 80 5 view .LVU79
 416 0224 2F39 0000 		move.l com1out,-(%sp)
 416      0000 
 417               		.cfi_def_cfa_offset 44
 418 022a 4878 000A 		pea 10.w
 419               		.cfi_def_cfa_offset 48
 420 022e 4E92      		jsr (%a2)
 421               	.LVL41:
  83:test3.c       **** }
 422               		.loc 1 83 5 view .LVU80
 423               	.LBB16:
 424               	.LBI16:
  35:test3.c       ****     // 枠線の左端にカーソルを戻すエスケープシーケンス
 425               		.loc 1 35 6 view .LVU81
 426               	.LBB17:
  37:test3.c       ****     fprintf(com1out, "\033[%dA", move);
 427               		.loc 1 37 5 view .LVU82
 428 0230 4878 0005 		pea 5.w
 429               		.cfi_def_cfa_offset 52
 430 0234 4879 0000 		pea .LC0
 430      0000 
 431               		.cfi_def_cfa_offset 56
 432 023a 2F39 0000 		move.l com0out,-(%sp)
 432      0000 
 433               		.cfi_def_cfa_offset 60
 434 0240 4E94      		jsr (%a4)
 435               	.LVL42:
  38:test3.c       **** }
 436               		.loc 1 38 5 view .LVU83
 437 0242 4878 0005 		pea 5.w
 438               		.cfi_def_cfa_offset 64


 439 0246 4879 0000 		pea .LC0
 439      0000 
 440               		.cfi_def_cfa_offset 68
 441 024c 2F39 0000 		move.l com1out,-(%sp)
 441      0000 
 442               		.cfi_def_cfa_offset 72
 443 0252 4E94      		jsr (%a4)
 444               	.LVL43:
  38:test3.c       **** }
 445               		.loc 1 38 5 is_stmt 0 view .LVU84
 446               	.LBE17:
 447               	.LBE16:
  84:test3.c       **** 
 448               		.loc 1 84 1 view .LVU85
 449 0254 4FEF 0028 		lea (40,%sp),%sp
 450               		.cfi_def_cfa_offset 32
 451 0258 4CDF 7C0C 		movem.l (%sp)+,#31756
 452 025c 4E75      		rts
 453               		.cfi_endproc
 454               	.LFE5:
 455               		.size	draw_board, .-draw_board
 456               		.align	2
 457               		.globl	inkey
 458               		.type	inkey, @function
 459               	inkey:
 460               	.LVL44:
 461               	.LFB6:
  87:test3.c       ****     char c;
 462               		.loc 1 87 19 is_stmt 1 view -0
 463               		.cfi_startproc
  87:test3.c       ****     char c;
 464               		.loc 1 87 19 is_stmt 0 view .LVU87
 465 025e 2F03      		move.l %d3,-(%sp)
 466               		.cfi_def_cfa_offset 8
 467               		.cfi_offset 3, -8
 468 0260 2F02      		move.l %d2,-(%sp)
 469               		.cfi_def_cfa_offset 12
 470               		.cfi_offset 2, -12
 471 0262 242F 000C 		move.l 12(%sp),%d2
  88:test3.c       ****     c = inbyte(ch);
 472               		.loc 1 88 5 is_stmt 1 view .LVU88
  89:test3.c       **** 
 473               		.loc 1 89 5 view .LVU89
  89:test3.c       **** 
 474               		.loc 1 89 9 is_stmt 0 view .LVU90
 475 0266 2F02      		move.l %d2,-(%sp)
 476               		.cfi_def_cfa_offset 16
 477 0268 4EB9 0000 		jsr inbyte
 477      0000 
 478               	.LVL45:
  92:test3.c       ****         return 0;
 479               		.loc 1 92 5 is_stmt 1 view .LVU91
  92:test3.c       ****         return 0;
 480               		.loc 1 92 23 is_stmt 0 view .LVU92
 481 026e 41F9 0000 		lea input_buf,%a0
 481      0000 
  92:test3.c       ****         return 0;


 482               		.loc 1 92 8 view .LVU93
 483 0274 588F      		addq.l #4,%sp
 484               		.cfi_def_cfa_offset 12
 485 0276 B030 2800 		cmp.b (%a0,%d2.l),%d0
 486 027a 6722      		jeq .L43
  97:test3.c       ****         c == 'q' || c == 'w' || c == 'e' ||
 487               		.loc 1 97 5 is_stmt 1 view .LVU94
 488 027c 0C00 0033 		cmp.b #51,%d0
 489 0280 6F24      		jle .L47
 490 0282 1200      		move.b %d0,%d1
 491 0284 0601 FF9F 		add.b #-97,%d1
 492 0288 0C01 0016 		cmp.b #22,%d1
 493 028c 6210      		jhi .L43
 494 028e 0281 0000 		and.l #255,%d1
 494      00FF 
 495 0294 263C 0045 		move.l #4522009,%d3
 495      0019 
 496 029a 0303      		btst %d1,%d3
 497 029c 660E      		jne .L40
 498               	.L43:
  92:test3.c       ****         return 0;
 499               		.loc 1 92 8 is_stmt 0 view .LVU95
 500 029e 7000      		moveq #0,%d0
 501               	.LVL46:
 105:test3.c       **** 
 502               		.loc 1 105 1 view .LVU96
 503 02a0 241F      		move.l (%sp)+,%d2
 504 02a2 261F      		move.l (%sp)+,%d3
 505 02a4 4E75      		rts
 506               	.LVL47:
 507               	.L47:
 105:test3.c       **** 
 508               		.loc 1 105 1 view .LVU97
 509 02a6 0C00 0030 		cmp.b #48,%d0
 510 02aa 6FF2      		jle .L43
 511               	.L40:
 100:test3.c       ****         return 1; // true
 512               		.loc 1 100 9 is_stmt 1 view .LVU98
 100:test3.c       ****         return 1; // true
 513               		.loc 1 100 23 is_stmt 0 view .LVU99
 514 02ac 1180 2800 		move.b %d0,(%a0,%d2.l)
 101:test3.c       ****     } else {
 515               		.loc 1 101 9 is_stmt 1 view .LVU100
 101:test3.c       ****     } else {
 516               		.loc 1 101 16 is_stmt 0 view .LVU101
 517 02b0 7001      		moveq #1,%d0
 518               	.LVL48:
 105:test3.c       **** 
 519               		.loc 1 105 1 view .LVU102
 520 02b2 241F      		move.l (%sp)+,%d2
 521               	.LVL49:
 105:test3.c       **** 
 522               		.loc 1 105 1 view .LVU103
 523 02b4 261F      		move.l (%sp)+,%d3
 524 02b6 4E75      		rts
 525               		.cfi_endproc
 526               	.LFE6:


 527               		.size	inkey, .-inkey
 528               		.globl	__mulsi3
 529               		.align	2
 530               		.globl	check_board
 531               		.type	check_board, @function
 532               	check_board:
 533               	.LFB7:
 108:test3.c       ****     int cnt = 0;
 534               		.loc 1 108 19 is_stmt 1 view -0
 535               		.cfi_startproc
 536 02b8 48E7 3020 		movem.l #12320,-(%sp)
 537               		.cfi_def_cfa_offset 16
 538               		.cfi_offset 2, -16
 539               		.cfi_offset 3, -12
 540               		.cfi_offset 10, -8
 109:test3.c       ****     for (int i = 0; i < row; i++) {
 541               		.loc 1 109 5 view .LVU105
 542               	.LVL50:
 110:test3.c       ****         for (int j = 0; j < col; j++) {
 543               		.loc 1 110 5 view .LVU106
 544               	.LBB18:
 110:test3.c       ****         for (int j = 0; j < col; j++) {
 545               		.loc 1 110 10 view .LVU107
 110:test3.c       ****         for (int j = 0; j < col; j++) {
 546               		.loc 1 110 23 view .LVU108
 547 02bc 2639 0000 		move.l row,%d3
 547      0000 
 548 02c2 6F4E      		jle .L57
 549               	.LBB19:
 111:test3.c       ****             if (matrix[i][j] == 0) {
 550               		.loc 1 111 27 is_stmt 0 view .LVU109
 551 02c4 2239 0000 		move.l col,%d1
 551      0000 
 552 02ca 45F9 0000 		lea matrix,%a2
 552      0000 
 553               	.LBE19:
 110:test3.c       ****         for (int j = 0; j < col; j++) {
 554               		.loc 1 110 14 view .LVU110
 555 02d0 93C9      		sub.l %a1,%a1
 556               	.LBE18:
 109:test3.c       ****     for (int i = 0; i < row; i++) {
 557               		.loc 1 109 9 view .LVU111
 558 02d2 7400      		moveq #0,%d2
 559               	.LVL51:
 560               	.L50:
 561               	.LBB21:
 562               	.LBB20:
 111:test3.c       ****             if (matrix[i][j] == 0) {
 563               		.loc 1 111 27 is_stmt 1 view .LVU112
 564 02d4 4A81      		tst.l %d1
 565 02d6 6F10      		jle .L54
 566 02d8 204A      		move.l %a2,%a0
 111:test3.c       ****             if (matrix[i][j] == 0) {
 567               		.loc 1 111 18 is_stmt 0 view .LVU113
 568 02da 7000      		moveq #0,%d0
 569               	.LVL52:
 570               	.L52:


 112:test3.c       ****                 cnt++;
 571               		.loc 1 112 13 is_stmt 1 view .LVU114
 112:test3.c       ****                 cnt++;
 572               		.loc 1 112 16 is_stmt 0 view .LVU115
 573 02dc 4A98      		tst.l (%a0)+
 574 02de 6602      		jne .L51
 113:test3.c       ****             }
 575               		.loc 1 113 17 is_stmt 1 view .LVU116
 113:test3.c       ****             }
 576               		.loc 1 113 20 is_stmt 0 view .LVU117
 577 02e0 5282      		addq.l #1,%d2
 578               	.LVL53:
 579               	.L51:
 111:test3.c       ****             if (matrix[i][j] == 0) {
 580               		.loc 1 111 35 is_stmt 1 discriminator 2 view .LVU118
 581 02e2 5280      		addq.l #1,%d0
 582               	.LVL54:
 111:test3.c       ****             if (matrix[i][j] == 0) {
 583               		.loc 1 111 27 discriminator 2 view .LVU119
 584 02e4 B280      		cmp.l %d0,%d1
 585 02e6 66F4      		jne .L52
 586               	.LVL55:
 587               	.L54:
 111:test3.c       ****             if (matrix[i][j] == 0) {
 588               		.loc 1 111 27 is_stmt 0 discriminator 2 view .LVU120
 589               	.LBE20:
 110:test3.c       ****         for (int j = 0; j < col; j++) {
 590               		.loc 1 110 31 is_stmt 1 discriminator 2 view .LVU121
 591 02e8 5289      		addq.l #1,%a1
 592               	.LVL56:
 110:test3.c       ****         for (int j = 0; j < col; j++) {
 593               		.loc 1 110 23 discriminator 2 view .LVU122
 594 02ea 45EA 000C 		lea (12,%a2),%a2
 595 02ee B689      		cmp.l %a1,%d3
 596 02f0 66E2      		jne .L50
 110:test3.c       ****         for (int j = 0; j < col; j++) {
 597               		.loc 1 110 23 is_stmt 0 discriminator 2 view .LVU123
 598               	.LBE21:
 118:test3.c       ****         return 1; // true
 599               		.loc 1 118 5 is_stmt 1 view .LVU124
 118:test3.c       ****         return 1; // true
 600               		.loc 1 118 8 is_stmt 0 view .LVU125
 601 02f2 4A82      		tst.l %d2
 602 02f4 671C      		jeq .L57
 118:test3.c       ****         return 1; // true
 603               		.loc 1 118 32 discriminator 1 view .LVU126
 604 02f6 2F01      		move.l %d1,-(%sp)
 605               		.cfi_def_cfa_offset 20
 606 02f8 2F09      		move.l %a1,-(%sp)
 607               		.cfi_def_cfa_offset 24
 608 02fa 4EB9 0000 		jsr __mulsi3
 608      0000 
 609               	.LVL57:
 118:test3.c       ****         return 1; // true
 610               		.loc 1 118 32 discriminator 1 view .LVU127
 611 0300 508F      		addq.l #8,%sp
 612               		.cfi_def_cfa_offset 16


 118:test3.c       ****         return 1; // true
 613               		.loc 1 118 18 discriminator 1 view .LVU128
 614 0302 B480      		cmp.l %d0,%d2
 615 0304 57C0      		seq %d0
 616 0306 4880      		ext.w %d0
 617 0308 48C0      		ext.l %d0
 618 030a 4480      		neg.l %d0
 123:test3.c       **** 
 619               		.loc 1 123 1 discriminator 1 view .LVU129
 620 030c 4CDF 040C 		movem.l (%sp)+,#1036
 621               	.LVL58:
 123:test3.c       **** 
 622               		.loc 1 123 1 discriminator 1 view .LVU130
 623 0310 4E75      		rts
 624               	.L57:
 119:test3.c       ****     } else {
 625               		.loc 1 119 16 view .LVU131
 626 0312 7001      		moveq #1,%d0
 123:test3.c       **** 
 627               		.loc 1 123 1 view .LVU132
 628 0314 4CDF 040C 		movem.l (%sp)+,#1036
 629 0318 4E75      		rts
 630               		.cfi_endproc
 631               	.LFE7:
 632               		.size	check_board, .-check_board
 633               		.align	2
 634               		.globl	rev_matrix
 635               		.type	rev_matrix, @function
 636               	rev_matrix:
 637               	.LVL59:
 638               	.LFB8:
 126:test3.c       ****     if (matrix[x][y] == 0) {
 639               		.loc 1 126 31 is_stmt 1 view -0
 640               		.cfi_startproc
 126:test3.c       ****     if (matrix[x][y] == 0) {
 641               		.loc 1 126 31 is_stmt 0 view .LVU134
 642 031a 2F02      		move.l %d2,-(%sp)
 643               		.cfi_def_cfa_offset 8
 644               		.cfi_offset 2, -8
 645 031c 222F 0008 		move.l 8(%sp),%d1
 127:test3.c       ****         matrix[x][y] = 1;
 646               		.loc 1 127 5 is_stmt 1 view .LVU135
 127:test3.c       ****         matrix[x][y] = 1;
 647               		.loc 1 127 18 is_stmt 0 view .LVU136
 648 0320 41F9 0000 		lea matrix,%a0
 648      0000 
 649 0326 2001      		move.l %d1,%d0
 650 0328 D081      		add.l %d1,%d0
 651 032a D081      		add.l %d1,%d0
 652 032c D0AF 000C 		add.l 12(%sp),%d0
 653 0330 D080      		add.l %d0,%d0
 654 0332 D080      		add.l %d0,%d0
 655 0334 2230 0800 		move.l (%a0,%d0.l),%d1
 127:test3.c       ****         matrix[x][y] = 1;
 656               		.loc 1 127 8 view .LVU137
 657 0338 660A      		jne .L62
 128:test3.c       ****     } else if (matrix[x][y] == 1) {


 658               		.loc 1 128 9 is_stmt 1 view .LVU138
 128:test3.c       ****     } else if (matrix[x][y] == 1) {
 659               		.loc 1 128 22 is_stmt 0 view .LVU139
 660 033a 7201      		moveq #1,%d1
 661 033c 2181 0800 		move.l %d1,(%a0,%d0.l)
 662               	.L61:
 132:test3.c       **** 
 663               		.loc 1 132 1 view .LVU140
 664 0340 241F      		move.l (%sp)+,%d2
 665 0342 4E75      		rts
 666               	.L62:
 129:test3.c       ****         matrix[x][y] = 0;
 667               		.loc 1 129 12 is_stmt 1 view .LVU141
 129:test3.c       ****         matrix[x][y] = 0;
 668               		.loc 1 129 15 is_stmt 0 view .LVU142
 669 0344 5381      		subq.l #1,%d1
 670 0346 66F8      		jne .L61
 130:test3.c       ****     }
 671               		.loc 1 130 9 is_stmt 1 view .LVU143
 130:test3.c       ****     }
 672               		.loc 1 130 22 is_stmt 0 view .LVU144
 673 0348 42B0 0800 		clr.l (%a0,%d0.l)
 132:test3.c       **** 
 674               		.loc 1 132 1 view .LVU145
 675 034c 241F      		move.l (%sp)+,%d2
 676 034e 4E75      		rts
 677               		.cfi_endproc
 678               	.LFE8:
 679               		.size	rev_matrix, .-rev_matrix
 680               		.align	2
 681               		.globl	change_board
 682               		.type	change_board, @function
 683               	change_board:
 684               	.LVL60:
 685               	.LFB9:
 135:test3.c       ****     char c = input_buf[ch];
 686               		.loc 1 135 27 is_stmt 1 view -0
 687               		.cfi_startproc
 135:test3.c       ****     char c = input_buf[ch];
 688               		.loc 1 135 27 is_stmt 0 view .LVU147
 689 0350 48E7 3020 		movem.l #12320,-(%sp)
 690               		.cfi_def_cfa_offset 16
 691               		.cfi_offset 2, -16
 692               		.cfi_offset 3, -12
 693               		.cfi_offset 10, -8
 136:test3.c       **** 
 694               		.loc 1 136 5 is_stmt 1 view .LVU148
 695               	.LVL61:
 139:test3.c       ****         case '1': ch_p.x = 0; ch_p.y = 0; break;
 696               		.loc 1 139 5 view .LVU149
 697 0354 202F 0010 		move.l 16(%sp),%d0
 698 0358 41F9 0000 		lea input_buf,%a0
 698      0000 
 699 035e 1030 0800 		move.b (%a0,%d0.l),%d0
 700 0362 0600 FFCF 		add.b #-49,%d0
 701 0366 0C00 0046 		cmp.b #70,%d0
 702 036a 6200 0106 		jhi .L66


 703 036e 0280 0000 		and.l #255,%d0
 703      00FF 
 704 0374 D080      		add.l %d0,%d0
 705 0376 303B 0806 		move.w .L69(%pc,%d0.l),%d0
 706 037a 4EFB 0002 		jmp %pc@(2,%d0:w)
 707               		.balignw 2,0x284c
 708               		.swbeg	&71
 709               	.L69:
 710 037e 0260      		.word .L77-.L69
 711 0380 0256      		.word .L88-.L69
 712 0382 01DA      		.word .L75-.L69
 713 0384 00F4      		.word .L66-.L69
 714 0386 00F4      		.word .L66-.L69
 715 0388 00F4      		.word .L66-.L69
 716 038a 00F4      		.word .L66-.L69
 717 038c 00F4      		.word .L66-.L69
 718 038e 00F4      		.word .L66-.L69
 719 0390 00F4      		.word .L66-.L69
 720 0392 00F4      		.word .L66-.L69
 721 0394 00F4      		.word .L66-.L69
 722 0396 00F4      		.word .L66-.L69
 723 0398 00F4      		.word .L66-.L69
 724 039a 00F4      		.word .L66-.L69
 725 039c 00F4      		.word .L66-.L69
 726 039e 00F4      		.word .L66-.L69
 727 03a0 00F4      		.word .L66-.L69
 728 03a2 00F4      		.word .L66-.L69
 729 03a4 00F4      		.word .L66-.L69
 730 03a6 00F4      		.word .L66-.L69
 731 03a8 00F4      		.word .L66-.L69
 732 03aa 00F4      		.word .L66-.L69
 733 03ac 00F4      		.word .L66-.L69
 734 03ae 00F4      		.word .L66-.L69
 735 03b0 00F4      		.word .L66-.L69
 736 03b2 00F4      		.word .L66-.L69
 737 03b4 00F4      		.word .L66-.L69
 738 03b6 00F4      		.word .L66-.L69
 739 03b8 00F4      		.word .L66-.L69
 740 03ba 00F4      		.word .L66-.L69
 741 03bc 00F4      		.word .L66-.L69
 742 03be 00F4      		.word .L66-.L69
 743 03c0 00F4      		.word .L66-.L69
 744 03c2 00F4      		.word .L66-.L69
 745 03c4 00F4      		.word .L66-.L69
 746 03c6 00F4      		.word .L66-.L69
 747 03c8 00F4      		.word .L66-.L69
 748 03ca 00F4      		.word .L66-.L69
 749 03cc 00F4      		.word .L66-.L69
 750 03ce 00F4      		.word .L66-.L69
 751 03d0 00F4      		.word .L66-.L69
 752 03d2 00F4      		.word .L66-.L69
 753 03d4 00F4      		.word .L66-.L69
 754 03d6 00F4      		.word .L66-.L69
 755 03d8 00F4      		.word .L66-.L69
 756 03da 00F4      		.word .L66-.L69
 757 03dc 00F4      		.word .L66-.L69
 758 03de 0200      		.word .L74-.L69


 759 03e0 00F4      		.word .L66-.L69
 760 03e2 00F4      		.word .L66-.L69
 761 03e4 01E4      		.word .L73-.L69
 762 03e6 01EE      		.word .L72-.L69
 763 03e8 00F4      		.word .L66-.L69
 764 03ea 00F4      		.word .L66-.L69
 765 03ec 00F4      		.word .L66-.L69
 766 03ee 00F4      		.word .L66-.L69
 767 03f0 00F4      		.word .L66-.L69
 768 03f2 00F4      		.word .L66-.L69
 769 03f4 00F4      		.word .L66-.L69
 770 03f6 00F4      		.word .L66-.L69
 771 03f8 00F4      		.word .L66-.L69
 772 03fa 00F4      		.word .L66-.L69
 773 03fc 00F4      		.word .L66-.L69
 774 03fe 01F8      		.word .L71-.L69
 775 0400 00F4      		.word .L66-.L69
 776 0402 008E      		.word .L70-.L69
 777 0404 00F4      		.word .L66-.L69
 778 0406 00F4      		.word .L66-.L69
 779 0408 00F4      		.word .L66-.L69
 780 040a 00FA      		.word .L68-.L69
 781               	.L70:
 147:test3.c       ****         case 'd': ch_p.x = 2; ch_p.y = 2; break;
 782               		.loc 1 147 19 view .LVU150
 147:test3.c       ****         case 'd': ch_p.x = 2; ch_p.y = 2; break;
 783               		.loc 1 147 31 view .LVU151
 147:test3.c       ****         case 'd': ch_p.x = 2; ch_p.y = 2; break;
 784               		.loc 1 147 43 view .LVU152
 785 040c 307C 0001 		move.w #1,%a0
 786 0410 7202      		moveq #2,%d1
 787               	.L76:
 140:test3.c       ****         case '2': ch_p.x = 0; ch_p.y = 1; break;
 788               		.loc 1 140 26 is_stmt 0 view .LVU153
 789 0412 23C1 0000 		move.l %d1,ch_p
 789      0000 
 140:test3.c       ****         case '2': ch_p.x = 0; ch_p.y = 1; break;
 790               		.loc 1 140 38 view .LVU154
 791 0418 23C8 0000 		move.l %a0,ch_p+4
 791      0000 
 152:test3.c       ****     int y = ch_p.y;
 792               		.loc 1 152 5 is_stmt 1 view .LVU155
 793               	.LVL62:
 153:test3.c       **** 
 794               		.loc 1 153 5 view .LVU156
 156:test3.c       ****     if (x - 1 >= 0) rev_matrix(x - 1, y);
 795               		.loc 1 156 5 view .LVU157
 796               	.LBB32:
 797               	.LBI32:
 126:test3.c       ****     if (matrix[x][y] == 0) {
 798               		.loc 1 126 6 view .LVU158
 799               	.LBB33:
 127:test3.c       ****         matrix[x][y] = 1;
 800               		.loc 1 127 5 view .LVU159
 127:test3.c       ****         matrix[x][y] = 1;
 801               		.loc 1 127 18 is_stmt 0 view .LVU160
 802 041e 43F9 0000 		lea matrix,%a1


 802      0000 
 803 0424 2401      		move.l %d1,%d2
 804 0426 D481      		add.l %d1,%d2
 805 0428 2002      		move.l %d2,%d0
 806 042a D081      		add.l %d1,%d0
 807 042c D088      		add.l %a0,%d0
 808 042e D080      		add.l %d0,%d0
 809 0430 D080      		add.l %d0,%d0
 810 0432 2471 0800 		move.l (%a1,%d0.l),%a2
 128:test3.c       ****     } else if (matrix[x][y] == 1) {
 811               		.loc 1 128 22 view .LVU161
 812 0436 7601      		moveq #1,%d3
 127:test3.c       ****         matrix[x][y] = 1;
 813               		.loc 1 127 8 view .LVU162
 814 0438 B4FC 0000 		cmp.w #0,%a2
 815 043c 666C      		jne .L78
 816               	.L110:
 128:test3.c       ****     } else if (matrix[x][y] == 1) {
 817               		.loc 1 128 9 is_stmt 1 view .LVU163
 128:test3.c       ****     } else if (matrix[x][y] == 1) {
 818               		.loc 1 128 22 is_stmt 0 view .LVU164
 819 043e 2383 0800 		move.l %d3,(%a1,%d0.l)
 820               	.L79:
 821               	.LVL63:
 128:test3.c       ****     } else if (matrix[x][y] == 1) {
 822               		.loc 1 128 22 view .LVU165
 823               	.LBE33:
 824               	.LBE32:
 157:test3.c       ****     if (y - 1 >= 0) rev_matrix(x, y - 1);
 825               		.loc 1 157 5 is_stmt 1 view .LVU166
 157:test3.c       ****     if (y - 1 >= 0) rev_matrix(x, y - 1);
 826               		.loc 1 157 8 is_stmt 0 view .LVU167
 827 0442 4A81      		tst.l %d1
 828 0444 6600 009C 		jne .L106
 829               	.L80:
 158:test3.c       ****     if (x + 1 < 3)  rev_matrix(x + 1, y);
 830               		.loc 1 158 5 is_stmt 1 view .LVU168
 158:test3.c       ****     if (x + 1 < 3)  rev_matrix(x + 1, y);
 831               		.loc 1 158 8 is_stmt 0 view .LVU169
 832 0448 B0FC 0000 		cmp.w #0,%a0
 833 044c 666A      		jne .L107
 834               	.L82:
 159:test3.c       ****     if (y + 1 < 3)  rev_matrix(x, y + 1);
 835               		.loc 1 159 5 is_stmt 1 view .LVU170
 159:test3.c       ****     if (y + 1 < 3)  rev_matrix(x, y + 1);
 836               		.loc 1 159 8 is_stmt 0 view .LVU171
 837 044e 7002      		moveq #2,%d0
 838 0450 B081      		cmp.l %d1,%d0
 839 0452 6600 00DA 		jne .L108
 840               	.L84:
 160:test3.c       **** 
 841               		.loc 1 160 5 is_stmt 1 view .LVU172
 160:test3.c       **** 
 842               		.loc 1 160 8 is_stmt 0 view .LVU173
 843 0456 7002      		moveq #2,%d0
 844 0458 B088      		cmp.l %a0,%d0
 845 045a 6600 00B2 		jne .L109


 846               	.LVL64:
 847               	.L86:
 163:test3.c       **** 
 848               		.loc 1 163 5 is_stmt 1 view .LVU174
 849 045e 4EBA FC6A 		jsr draw_board
 850               	.LVL65:
 166:test3.c       ****         win_flag = 1;
 851               		.loc 1 166 5 view .LVU175
 166:test3.c       ****         win_flag = 1;
 852               		.loc 1 166 9 is_stmt 0 view .LVU176
 853 0462 4EBA FE54 		jsr check_board
 854               	.LVL66:
 166:test3.c       ****         win_flag = 1;
 855               		.loc 1 166 8 view .LVU177
 856 0466 4A80      		tst.l %d0
 857 0468 6708      		jeq .L66
 167:test3.c       ****     }
 858               		.loc 1 167 9 is_stmt 1 view .LVU178
 167:test3.c       ****     }
 859               		.loc 1 167 18 is_stmt 0 view .LVU179
 860 046a 7601      		moveq #1,%d3
 861 046c 23C3 0000 		move.l %d3,win_flag
 861      0000 
 862               	.L66:
 169:test3.c       **** 
 863               		.loc 1 169 1 view .LVU180
 864 0472 4CDF 040C 		movem.l (%sp)+,#1036
 865 0476 4E75      		rts
 866               	.LVL67:
 867               	.L68:
 144:test3.c       ****         case 'e': ch_p.x = 1; ch_p.y = 2; break;
 868               		.loc 1 144 19 is_stmt 1 view .LVU181
 144:test3.c       ****         case 'e': ch_p.x = 1; ch_p.y = 2; break;
 869               		.loc 1 144 31 view .LVU182
 144:test3.c       ****         case 'e': ch_p.x = 1; ch_p.y = 2; break;
 870               		.loc 1 144 43 view .LVU183
 871 0478 307C 0001 		move.w #1,%a0
 872 047c 7201      		moveq #1,%d1
 140:test3.c       ****         case '2': ch_p.x = 0; ch_p.y = 1; break;
 873               		.loc 1 140 26 is_stmt 0 view .LVU184
 874 047e 23C1 0000 		move.l %d1,ch_p
 874      0000 
 140:test3.c       ****         case '2': ch_p.x = 0; ch_p.y = 1; break;
 875               		.loc 1 140 38 view .LVU185
 876 0484 23C8 0000 		move.l %a0,ch_p+4
 876      0000 
 152:test3.c       ****     int y = ch_p.y;
 877               		.loc 1 152 5 is_stmt 1 view .LVU186
 878               	.LVL68:
 153:test3.c       **** 
 879               		.loc 1 153 5 view .LVU187
 156:test3.c       ****     if (x - 1 >= 0) rev_matrix(x - 1, y);
 880               		.loc 1 156 5 view .LVU188
 881               	.LBB35:
 126:test3.c       ****     if (matrix[x][y] == 0) {
 882               		.loc 1 126 6 view .LVU189
 883               	.LBB34:


 127:test3.c       ****         matrix[x][y] = 1;
 884               		.loc 1 127 5 view .LVU190
 127:test3.c       ****         matrix[x][y] = 1;
 885               		.loc 1 127 18 is_stmt 0 view .LVU191
 886 048a 43F9 0000 		lea matrix,%a1
 886      0000 
 887 0490 2401      		move.l %d1,%d2
 888 0492 D481      		add.l %d1,%d2
 889 0494 2002      		move.l %d2,%d0
 890 0496 D081      		add.l %d1,%d0
 891 0498 D088      		add.l %a0,%d0
 892 049a D080      		add.l %d0,%d0
 893 049c D080      		add.l %d0,%d0
 894 049e 2471 0800 		move.l (%a1,%d0.l),%a2
 128:test3.c       ****     } else if (matrix[x][y] == 1) {
 895               		.loc 1 128 22 view .LVU192
 896 04a2 7601      		moveq #1,%d3
 127:test3.c       ****         matrix[x][y] = 1;
 897               		.loc 1 127 8 view .LVU193
 898 04a4 B4FC 0000 		cmp.w #0,%a2
 899 04a8 6794      		jeq .L110
 900               	.LVL69:
 901               	.L78:
 129:test3.c       ****         matrix[x][y] = 0;
 902               		.loc 1 129 12 is_stmt 1 view .LVU194
 129:test3.c       ****         matrix[x][y] = 0;
 903               		.loc 1 129 15 is_stmt 0 view .LVU195
 904 04aa B68A      		cmp.l %a2,%d3
 905 04ac 6694      		jne .L79
 130:test3.c       ****     }
 906               		.loc 1 130 9 is_stmt 1 view .LVU196
 130:test3.c       ****     }
 907               		.loc 1 130 22 is_stmt 0 view .LVU197
 908 04ae 42B1 0800 		clr.l (%a1,%d0.l)
 909               	.LVL70:
 130:test3.c       ****     }
 910               		.loc 1 130 22 view .LVU198
 911               	.LBE34:
 912               	.LBE35:
 157:test3.c       ****     if (y - 1 >= 0) rev_matrix(x, y - 1);
 913               		.loc 1 157 5 is_stmt 1 view .LVU199
 157:test3.c       ****     if (y - 1 >= 0) rev_matrix(x, y - 1);
 914               		.loc 1 157 8 is_stmt 0 view .LVU200
 915 04b2 4A81      		tst.l %d1
 916 04b4 6792      		jeq .L80
 917 04b6 602A      		jra .L106
 918               	.L107:
 158:test3.c       ****     if (x + 1 < 3)  rev_matrix(x + 1, y);
 919               		.loc 1 158 21 is_stmt 1 discriminator 1 view .LVU201
 920               	.LVL71:
 921               	.LBB36:
 922               	.LBI36:
 126:test3.c       ****     if (matrix[x][y] == 0) {
 923               		.loc 1 126 6 discriminator 1 view .LVU202
 924               	.LBB37:
 127:test3.c       ****         matrix[x][y] = 1;
 925               		.loc 1 127 5 discriminator 1 view .LVU203


 127:test3.c       ****         matrix[x][y] = 1;
 926               		.loc 1 127 18 is_stmt 0 discriminator 1 view .LVU204
 927 04b8 2442      		move.l %d2,%a2
 928 04ba D5C1      		add.l %d1,%a2
 929 04bc 45F0 A8FF 		lea -1(%a0,%a2.l),%a2
 930 04c0 200A      		move.l %a2,%d0
 931 04c2 D08A      		add.l %a2,%d0
 932 04c4 D080      		add.l %d0,%d0
 933 04c6 2471 0800 		move.l (%a1,%d0.l),%a2
 128:test3.c       ****     } else if (matrix[x][y] == 1) {
 934               		.loc 1 128 22 discriminator 1 view .LVU205
 935 04ca 7601      		moveq #1,%d3
 127:test3.c       ****         matrix[x][y] = 1;
 936               		.loc 1 127 8 discriminator 1 view .LVU206
 937 04cc B4FC 0000 		cmp.w #0,%a2
 938 04d0 6600 00B4 		jne .L83
 128:test3.c       ****     } else if (matrix[x][y] == 1) {
 939               		.loc 1 128 9 is_stmt 1 view .LVU207
 128:test3.c       ****     } else if (matrix[x][y] == 1) {
 940               		.loc 1 128 22 is_stmt 0 view .LVU208
 941 04d4 2383 0800 		move.l %d3,(%a1,%d0.l)
 942               	.LVL72:
 128:test3.c       ****     } else if (matrix[x][y] == 1) {
 943               		.loc 1 128 22 view .LVU209
 944               	.LBE37:
 945               	.LBE36:
 159:test3.c       ****     if (y + 1 < 3)  rev_matrix(x, y + 1);
 946               		.loc 1 159 5 is_stmt 1 view .LVU210
 159:test3.c       ****     if (y + 1 < 3)  rev_matrix(x, y + 1);
 947               		.loc 1 159 8 is_stmt 0 view .LVU211
 948 04d8 7002      		moveq #2,%d0
 949 04da B081      		cmp.l %d1,%d0
 950 04dc 6700 FF78 		jeq .L84
 951 04e0 604C      		jra .L108
 952               	.L106:
 157:test3.c       ****     if (y - 1 >= 0) rev_matrix(x, y - 1);
 953               		.loc 1 157 21 is_stmt 1 discriminator 1 view .LVU212
 954 04e2 2441      		move.l %d1,%a2
 955 04e4 538A      		subq.l #1,%a2
 956               	.LVL73:
 957               	.LBB39:
 958               	.LBI39:
 126:test3.c       ****     if (matrix[x][y] == 0) {
 959               		.loc 1 126 6 discriminator 1 view .LVU213
 960               	.LBB40:
 127:test3.c       ****         matrix[x][y] = 1;
 961               		.loc 1 127 5 discriminator 1 view .LVU214
 127:test3.c       ****         matrix[x][y] = 1;
 962               		.loc 1 127 18 is_stmt 0 discriminator 1 view .LVU215
 963 04e6 200A      		move.l %a2,%d0
 964 04e8 D08A      		add.l %a2,%d0
 965 04ea D08A      		add.l %a2,%d0
 966 04ec D088      		add.l %a0,%d0
 967 04ee D080      		add.l %d0,%d0
 968 04f0 D080      		add.l %d0,%d0
 969 04f2 2471 0800 		move.l (%a1,%d0.l),%a2
 970               	.LVL74:


 128:test3.c       ****     } else if (matrix[x][y] == 1) {
 971               		.loc 1 128 22 discriminator 1 view .LVU216
 972 04f6 7601      		moveq #1,%d3
 127:test3.c       ****         matrix[x][y] = 1;
 973               		.loc 1 127 8 discriminator 1 view .LVU217
 974 04f8 B4FC 0000 		cmp.w #0,%a2
 975 04fc 6600 009C 		jne .L81
 128:test3.c       ****     } else if (matrix[x][y] == 1) {
 976               		.loc 1 128 9 is_stmt 1 view .LVU218
 128:test3.c       ****     } else if (matrix[x][y] == 1) {
 977               		.loc 1 128 22 is_stmt 0 view .LVU219
 978 0500 2383 0800 		move.l %d3,(%a1,%d0.l)
 979               	.LVL75:
 128:test3.c       ****     } else if (matrix[x][y] == 1) {
 980               		.loc 1 128 22 view .LVU220
 981               	.LBE40:
 982               	.LBE39:
 158:test3.c       ****     if (x + 1 < 3)  rev_matrix(x + 1, y);
 983               		.loc 1 158 5 is_stmt 1 view .LVU221
 158:test3.c       ****     if (x + 1 < 3)  rev_matrix(x + 1, y);
 984               		.loc 1 158 8 is_stmt 0 view .LVU222
 985 0504 B0FC 0000 		cmp.w #0,%a0
 986 0508 6700 FF44 		jeq .L82
 987 050c 60AA      		jra .L107
 988               	.L109:
 160:test3.c       **** 
 989               		.loc 1 160 21 is_stmt 1 discriminator 1 view .LVU223
 990               	.LVL76:
 991               	.LBB42:
 992               	.LBI42:
 126:test3.c       ****     if (matrix[x][y] == 0) {
 993               		.loc 1 126 6 discriminator 1 view .LVU224
 994               	.LBB43:
 127:test3.c       ****         matrix[x][y] = 1;
 995               		.loc 1 127 5 discriminator 1 view .LVU225
 127:test3.c       ****         matrix[x][y] = 1;
 996               		.loc 1 127 18 is_stmt 0 discriminator 1 view .LVU226
 997 050e 2442      		move.l %d2,%a2
 998 0510 D5C1      		add.l %d1,%a2
 999 0512 45F0 A801 		lea 1(%a0,%a2.l),%a2
 1000 0516 200A      		move.l %a2,%d0
 1001 0518 D08A      		add.l %a2,%d0
 1002 051a D080      		add.l %d0,%d0
 1003 051c 2231 0800 		move.l (%a1,%d0.l),%d1
 1004               	.LVL77:
 127:test3.c       ****         matrix[x][y] = 1;
 1005               		.loc 1 127 8 discriminator 1 view .LVU227
 1006 0520 6600 00A4 		jne .L87
 128:test3.c       ****     } else if (matrix[x][y] == 1) {
 1007               		.loc 1 128 9 is_stmt 1 view .LVU228
 128:test3.c       ****     } else if (matrix[x][y] == 1) {
 1008               		.loc 1 128 22 is_stmt 0 view .LVU229
 1009 0524 7201      		moveq #1,%d1
 1010 0526 2381 0800 		move.l %d1,(%a1,%d0.l)
 1011 052a 6000 FF32 		jra .L86
 1012               	.LVL78:
 1013               	.L108:


 128:test3.c       ****     } else if (matrix[x][y] == 1) {
 1014               		.loc 1 128 22 view .LVU230
 1015               	.LBE43:
 1016               	.LBE42:
 159:test3.c       ****     if (y + 1 < 3)  rev_matrix(x, y + 1);
 1017               		.loc 1 159 21 is_stmt 1 discriminator 1 view .LVU231
 1018 052e 2441      		move.l %d1,%a2
 1019 0530 528A      		addq.l #1,%a2
 1020               	.LVL79:
 1021               	.LBB45:
 1022               	.LBI45:
 126:test3.c       ****     if (matrix[x][y] == 0) {
 1023               		.loc 1 126 6 discriminator 1 view .LVU232
 1024               	.LBB46:
 127:test3.c       ****         matrix[x][y] = 1;
 1025               		.loc 1 127 5 discriminator 1 view .LVU233
 127:test3.c       ****         matrix[x][y] = 1;
 1026               		.loc 1 127 18 is_stmt 0 discriminator 1 view .LVU234
 1027 0532 200A      		move.l %a2,%d0
 1028 0534 D08A      		add.l %a2,%d0
 1029 0536 D08A      		add.l %a2,%d0
 1030 0538 D088      		add.l %a0,%d0
 1031 053a D080      		add.l %d0,%d0
 1032 053c D080      		add.l %d0,%d0
 1033 053e 2471 0800 		move.l (%a1,%d0.l),%a2
 1034               	.LVL80:
 128:test3.c       ****     } else if (matrix[x][y] == 1) {
 1035               		.loc 1 128 22 discriminator 1 view .LVU235
 1036 0542 7601      		moveq #1,%d3
 127:test3.c       ****         matrix[x][y] = 1;
 1037               		.loc 1 127 8 discriminator 1 view .LVU236
 1038 0544 B4FC 0000 		cmp.w #0,%a2
 1039 0548 6666      		jne .L85
 128:test3.c       ****     } else if (matrix[x][y] == 1) {
 1040               		.loc 1 128 9 is_stmt 1 view .LVU237
 128:test3.c       ****     } else if (matrix[x][y] == 1) {
 1041               		.loc 1 128 22 is_stmt 0 view .LVU238
 1042 054a 2383 0800 		move.l %d3,(%a1,%d0.l)
 1043               	.LVL81:
 128:test3.c       ****     } else if (matrix[x][y] == 1) {
 1044               		.loc 1 128 22 view .LVU239
 1045               	.LBE46:
 1046               	.LBE45:
 160:test3.c       **** 
 1047               		.loc 1 160 5 is_stmt 1 view .LVU240
 160:test3.c       **** 
 1048               		.loc 1 160 8 is_stmt 0 view .LVU241
 1049 054e 7002      		moveq #2,%d0
 1050 0550 B088      		cmp.l %a0,%d0
 1051 0552 6700 FF0A 		jeq .L86
 1052 0556 60B6      		jra .L109
 1053               	.LVL82:
 1054               	.L75:
 142:test3.c       ****         case 'q': ch_p.x = 1; ch_p.y = 0; break;
 1055               		.loc 1 142 19 is_stmt 1 view .LVU242
 142:test3.c       ****         case 'q': ch_p.x = 1; ch_p.y = 0; break;
 1056               		.loc 1 142 31 view .LVU243


 142:test3.c       ****         case 'q': ch_p.x = 1; ch_p.y = 0; break;
 1057               		.loc 1 142 43 view .LVU244
 1058 0558 307C 0002 		move.w #2,%a0
 1059 055c 7200      		moveq #0,%d1
 1060 055e 6000 FEB2 		jra .L76
 1061               	.L73:
 148:test3.c       ****         default: return;
 1062               		.loc 1 148 19 view .LVU245
 148:test3.c       ****         default: return;
 1063               		.loc 1 148 31 view .LVU246
 148:test3.c       ****         default: return;
 1064               		.loc 1 148 43 view .LVU247
 1065 0562 307C 0002 		move.w #2,%a0
 1066 0566 7202      		moveq #2,%d1
 1067 0568 6000 FEA8 		jra .L76
 1068               	.L72:
 145:test3.c       ****         case 'a': ch_p.x = 2; ch_p.y = 0; break;
 1069               		.loc 1 145 19 view .LVU248
 145:test3.c       ****         case 'a': ch_p.x = 2; ch_p.y = 0; break;
 1070               		.loc 1 145 31 view .LVU249
 145:test3.c       ****         case 'a': ch_p.x = 2; ch_p.y = 0; break;
 1071               		.loc 1 145 43 view .LVU250
 1072 056c 307C 0002 		move.w #2,%a0
 1073 0570 7201      		moveq #1,%d1
 1074 0572 6000 FE9E 		jra .L76
 1075               	.L71:
 143:test3.c       ****         case 'w': ch_p.x = 1; ch_p.y = 1; break;
 1076               		.loc 1 143 19 view .LVU251
 143:test3.c       ****         case 'w': ch_p.x = 1; ch_p.y = 1; break;
 1077               		.loc 1 143 31 view .LVU252
 143:test3.c       ****         case 'w': ch_p.x = 1; ch_p.y = 1; break;
 1078               		.loc 1 143 43 view .LVU253
 1079 0576 91C8      		sub.l %a0,%a0
 1080 0578 7201      		moveq #1,%d1
 1081 057a 6000 FE96 		jra .L76
 1082               	.L74:
 146:test3.c       ****         case 's': ch_p.x = 2; ch_p.y = 1; break;
 1083               		.loc 1 146 19 view .LVU254
 146:test3.c       ****         case 's': ch_p.x = 2; ch_p.y = 1; break;
 1084               		.loc 1 146 31 view .LVU255
 146:test3.c       ****         case 's': ch_p.x = 2; ch_p.y = 1; break;
 1085               		.loc 1 146 43 view .LVU256
 1086 057e 91C8      		sub.l %a0,%a0
 1087 0580 7202      		moveq #2,%d1
 1088 0582 6000 FE8E 		jra .L76
 1089               	.LVL83:
 1090               	.L83:
 1091               	.LBB48:
 1092               	.LBB38:
 129:test3.c       ****         matrix[x][y] = 0;
 1093               		.loc 1 129 12 view .LVU257
 129:test3.c       ****         matrix[x][y] = 0;
 1094               		.loc 1 129 15 is_stmt 0 view .LVU258
 1095 0586 B68A      		cmp.l %a2,%d3
 1096 0588 6600 FEC4 		jne .L82
 130:test3.c       ****     }
 1097               		.loc 1 130 9 is_stmt 1 view .LVU259


 130:test3.c       ****     }
 1098               		.loc 1 130 22 is_stmt 0 view .LVU260
 1099 058c 42B1 0800 		clr.l (%a1,%d0.l)
 1100               	.LVL84:
 130:test3.c       ****     }
 1101               		.loc 1 130 22 view .LVU261
 1102               	.LBE38:
 1103               	.LBE48:
 159:test3.c       ****     if (y + 1 < 3)  rev_matrix(x, y + 1);
 1104               		.loc 1 159 5 is_stmt 1 view .LVU262
 159:test3.c       ****     if (y + 1 < 3)  rev_matrix(x, y + 1);
 1105               		.loc 1 159 8 is_stmt 0 view .LVU263
 1106 0590 7002      		moveq #2,%d0
 1107 0592 B081      		cmp.l %d1,%d0
 1108 0594 6700 FEC0 		jeq .L84
 1109 0598 6094      		jra .L108
 1110               	.LVL85:
 1111               	.L81:
 1112               	.LBB49:
 1113               	.LBB41:
 129:test3.c       ****         matrix[x][y] = 0;
 1114               		.loc 1 129 12 is_stmt 1 view .LVU264
 129:test3.c       ****         matrix[x][y] = 0;
 1115               		.loc 1 129 15 is_stmt 0 view .LVU265
 1116 059a B68A      		cmp.l %a2,%d3
 1117 059c 6600 FEAA 		jne .L80
 130:test3.c       ****     }
 1118               		.loc 1 130 9 is_stmt 1 view .LVU266
 130:test3.c       ****     }
 1119               		.loc 1 130 22 is_stmt 0 view .LVU267
 1120 05a0 42B1 0800 		clr.l (%a1,%d0.l)
 1121               	.LVL86:
 130:test3.c       ****     }
 1122               		.loc 1 130 22 view .LVU268
 1123               	.LBE41:
 1124               	.LBE49:
 158:test3.c       ****     if (x + 1 < 3)  rev_matrix(x + 1, y);
 1125               		.loc 1 158 5 is_stmt 1 view .LVU269
 158:test3.c       ****     if (x + 1 < 3)  rev_matrix(x + 1, y);
 1126               		.loc 1 158 8 is_stmt 0 view .LVU270
 1127 05a4 B0FC 0000 		cmp.w #0,%a0
 1128 05a8 6700 FEA4 		jeq .L82
 1129 05ac 6000 FF0A 		jra .L107
 1130               	.LVL87:
 1131               	.L85:
 1132               	.LBB50:
 1133               	.LBB47:
 129:test3.c       ****         matrix[x][y] = 0;
 1134               		.loc 1 129 12 is_stmt 1 view .LVU271
 129:test3.c       ****         matrix[x][y] = 0;
 1135               		.loc 1 129 15 is_stmt 0 view .LVU272
 1136 05b0 B68A      		cmp.l %a2,%d3
 1137 05b2 6600 FEA2 		jne .L84
 130:test3.c       ****     }
 1138               		.loc 1 130 9 is_stmt 1 view .LVU273
 130:test3.c       ****     }
 1139               		.loc 1 130 22 is_stmt 0 view .LVU274


 1140 05b6 42B1 0800 		clr.l (%a1,%d0.l)
 1141               	.LVL88:
 130:test3.c       ****     }
 1142               		.loc 1 130 22 view .LVU275
 1143               	.LBE47:
 1144               	.LBE50:
 160:test3.c       **** 
 1145               		.loc 1 160 5 is_stmt 1 view .LVU276
 160:test3.c       **** 
 1146               		.loc 1 160 8 is_stmt 0 view .LVU277
 1147 05ba 7002      		moveq #2,%d0
 1148 05bc B088      		cmp.l %a0,%d0
 1149 05be 6700 FE9E 		jeq .L86
 1150 05c2 6000 FF4A 		jra .L109
 1151               	.LVL89:
 1152               	.L87:
 1153               	.LBB51:
 1154               	.LBB44:
 129:test3.c       ****         matrix[x][y] = 0;
 1155               		.loc 1 129 12 is_stmt 1 view .LVU278
 129:test3.c       ****         matrix[x][y] = 0;
 1156               		.loc 1 129 15 is_stmt 0 view .LVU279
 1157 05c6 5381      		subq.l #1,%d1
 1158 05c8 6600 FE94 		jne .L86
 130:test3.c       ****     }
 1159               		.loc 1 130 9 is_stmt 1 view .LVU280
 130:test3.c       ****     }
 1160               		.loc 1 130 22 is_stmt 0 view .LVU281
 1161 05cc 42B1 0800 		clr.l (%a1,%d0.l)
 1162 05d0 6000 FE8C 		jra .L86
 1163               	.LVL90:
 1164               	.L88:
 130:test3.c       ****     }
 1165               		.loc 1 130 22 view .LVU282
 1166               	.LBE44:
 1167               	.LBE51:
 139:test3.c       ****         case '1': ch_p.x = 0; ch_p.y = 0; break;
 1168               		.loc 1 139 5 view .LVU283
 1169 05d4 307C 0001 		move.w #1,%a0
 1170 05d8 7200      		moveq #0,%d1
 1171 05da 6000 FE36 		jra .L76
 1172               	.L77:
 1173 05de 91C8      		sub.l %a0,%a0
 1174 05e0 7200      		moveq #0,%d1
 1175 05e2 6000 FE2E 		jra .L76
 1176               		.cfi_endproc
 1177               	.LFE9:
 1178               		.size	change_board, .-change_board
 1179               		.section	.rodata.str1.1
 1180               	.LC3:
 1181 000c 594F 5520 		.string	"YOU WIN\n"
 1181      5749 4E0A 
 1181      00
 1182               	.LC4:
 1183 0015 594F 5520 		.string	"YOU LOSE\n"
 1183      4C4F 5345 
 1183      0A00 


 1184               		.text
 1185               		.align	2
 1186               		.globl	player1_task
 1187               		.type	player1_task, @function
 1188               	player1_task:
 1189               	.LFB11:
 175:test3.c       ****     }
 176:test3.c       **** }
 177:test3.c       **** 
 178:test3.c       **** // プレイヤー1の処理
 179:test3.c       **** void player1_task() {
 1190               		.loc 1 179 21 is_stmt 1 view -0
 1191               		.cfi_startproc
 1192 05e6 48E7 3C3E 		movem.l #15422,-(%sp)
 1193               		.cfi_def_cfa_offset 40
 1194               		.cfi_offset 2, -40
 1195               		.cfi_offset 3, -36
 1196               		.cfi_offset 4, -32
 1197               		.cfi_offset 5, -28
 1198               		.cfi_offset 10, -24
 1199               		.cfi_offset 11, -20
 1200               		.cfi_offset 12, -16
 1201               		.cfi_offset 13, -12
 1202               		.cfi_offset 14, -8
 1203 05ea 47F9 0000 		lea inbyte,%a3
 1203      0000 
 1204 05f0 4DF9 0000 		lea input_buf,%a6
 1204      0000 
 1205 05f6 45F9 0000 		lea P,%a2
 1205      0000 
 1206 05fc 4BFA FD52 		lea change_board,%a5
 1207 0600 49F9 0000 		lea V,%a4
 1207      0000 
 1208 0606 263C 0000 		move.l #fwrite,%d3
 1208      0000 
 1209 060c 2A3C 0000 		move.l #reset_matrix,%d5
 1209      0000 
 1210 0612 283C 0000 		move.l #draw_board,%d4
 1210      0000 
 1211 0618 243C 0045 		move.l #4522009,%d2
 1211      0019 
 1212               	.L118:
 180:test3.c       ****     while (1) {
 1213               		.loc 1 180 5 view .LVU285
 1214               	.LBB55:
 181:test3.c       ****         int ch = 0;
 1215               		.loc 1 181 9 view .LVU286
 1216               	.LVL91:
 182:test3.c       ****         if (inkey(ch)) {
 1217               		.loc 1 182 9 view .LVU287
 1218               	.LBB56:
 1219               	.LBI56:
  87:test3.c       ****     char c;
 1220               		.loc 1 87 5 view .LVU288
 1221               	.LBB57:
  88:test3.c       ****     c = inbyte(ch);
 1222               		.loc 1 88 5 view .LVU289


  89:test3.c       **** 
 1223               		.loc 1 89 5 view .LVU290
  89:test3.c       **** 
 1224               		.loc 1 89 9 is_stmt 0 view .LVU291
 1225 061e 42A7      		clr.l -(%sp)
 1226               		.cfi_def_cfa_offset 44
 1227 0620 4E93      		jsr (%a3)
 1228               	.LVL92:
  92:test3.c       ****         return 0;
 1229               		.loc 1 92 5 is_stmt 1 view .LVU292
  92:test3.c       ****         return 0;
 1230               		.loc 1 92 8 is_stmt 0 view .LVU293
 1231 0622 588F      		addq.l #4,%sp
 1232               		.cfi_def_cfa_offset 40
 1233 0624 B039 0000 		cmp.b input_buf.l,%d0
 1233      0000 
 1234 062a 67F2      		jeq .L118
  97:test3.c       ****         c == 'q' || c == 'w' || c == 'e' ||
 1235               		.loc 1 97 5 is_stmt 1 view .LVU294
 1236 062c 0C00 0033 		cmp.b #51,%d0
 1237 0630 6F00 0092 		jle .L122
 1238 0634 1200      		move.b %d0,%d1
 1239 0636 0601 FF9F 		add.b #-97,%d1
 1240 063a 0C01 0016 		cmp.b #22,%d1
 1241 063e 62DE      		jhi .L118
 1242 0640 0281 0000 		and.l #255,%d1
 1242      00FF 
 1243 0646 0302      		btst %d1,%d2
 1244 0648 67D4      		jeq .L118
 1245               	.L114:
 100:test3.c       ****         return 1; // true
 1246               		.loc 1 100 9 view .LVU295
 100:test3.c       ****         return 1; // true
 1247               		.loc 1 100 23 is_stmt 0 view .LVU296
 1248 064a 1C80      		move.b %d0,(%a6)
 101:test3.c       ****     } else {
 1249               		.loc 1 101 9 is_stmt 1 view .LVU297
 1250               	.LVL93:
 101:test3.c       ****     } else {
 1251               		.loc 1 101 9 is_stmt 0 view .LVU298
 1252               	.LBE57:
 1253               	.LBE56:
 183:test3.c       ****             P(0); // 変更座標の確保
 1254               		.loc 1 183 13 is_stmt 1 view .LVU299
 1255 064c 42A7      		clr.l -(%sp)
 1256               		.cfi_def_cfa_offset 44
 1257 064e 4E92      		jsr (%a2)
 1258               	.LVL94:
 184:test3.c       ****             P(1); // 盤面の確保
 1259               		.loc 1 184 13 view .LVU300
 1260 0650 4878 0001 		pea 1.w
 1261               		.cfi_def_cfa_offset 48
 1262 0654 4E92      		jsr (%a2)
 1263               	.LVL95:
 185:test3.c       ****             P(2); // ゲーム終了フラグの確保
 1264               		.loc 1 185 13 view .LVU301
 1265 0656 4878 0002 		pea 2.w


 1266               		.cfi_def_cfa_offset 52
 1267 065a 4E92      		jsr (%a2)
 1268               	.LVL96:
 186:test3.c       ****             
 187:test3.c       ****             change_board(ch);
 1269               		.loc 1 187 13 view .LVU302
 1270 065c 42A7      		clr.l -(%sp)
 1271               		.cfi_def_cfa_offset 56
 1272 065e 4E95      		jsr (%a5)
 1273               	.LVL97:
 188:test3.c       ****             
 189:test3.c       ****             V(0); // 変更座標の解放
 1274               		.loc 1 189 13 view .LVU303
 1275 0660 42A7      		clr.l -(%sp)
 1276               		.cfi_def_cfa_offset 60
 1277 0662 4E94      		jsr (%a4)
 1278               	.LVL98:
 190:test3.c       ****             V(1); // 盤面の解放
 1279               		.loc 1 190 13 view .LVU304
 1280 0664 4878 0001 		pea 1.w
 1281               		.cfi_def_cfa_offset 64
 1282 0668 4E94      		jsr (%a4)
 1283               	.LVL99:
 191:test3.c       ****             
 192:test3.c       ****             if (win_flag) {
 1284               		.loc 1 192 13 view .LVU305
 1285               		.loc 1 192 16 is_stmt 0 view .LVU306
 1286 066a 4FEF 0018 		lea (24,%sp),%sp
 1287               		.cfi_def_cfa_offset 40
 1288 066e 4AB9 0000 		tst.l win_flag
 1288      0000 
 1289 0674 6742      		jeq .L116
 193:test3.c       ****                 fprintf(com0out, "YOU WIN\n");
 1290               		.loc 1 193 17 is_stmt 1 view .LVU307
 1291 0676 2F39 0000 		move.l com0out,-(%sp)
 1291      0000 
 1292               		.cfi_def_cfa_offset 44
 1293 067c 4878 0008 		pea 8.w
 1294               		.cfi_def_cfa_offset 48
 1295 0680 4878 0001 		pea 1.w
 1296               		.cfi_def_cfa_offset 52
 1297 0684 4879 0000 		pea .LC3
 1297      0000 
 1298               		.cfi_def_cfa_offset 56
 1299 068a 2043      		move.l %d3,%a0
 1300 068c 4E90      		jsr (%a0)
 1301               	.LVL100:
 194:test3.c       ****                 fprintf(com1out, "YOU LOSE\n");
 1302               		.loc 1 194 17 view .LVU308
 1303 068e 2F39 0000 		move.l com1out,-(%sp)
 1303      0000 
 1304               		.cfi_def_cfa_offset 60
 1305 0694 4878 0009 		pea 9.w
 1306               		.cfi_def_cfa_offset 64
 1307 0698 4878 0001 		pea 1.w
 1308               		.cfi_def_cfa_offset 68
 1309 069c 4879 0000 		pea .LC4


 1309      0000 
 1310               		.cfi_def_cfa_offset 72
 1311 06a2 2043      		move.l %d3,%a0
 1312 06a4 4E90      		jsr (%a0)
 1313               	.LVL101:
 195:test3.c       ****                 reset_matrix();
 1314               		.loc 1 195 17 view .LVU309
 1315 06a6 4FEF 0020 		lea (32,%sp),%sp
 1316               		.cfi_def_cfa_offset 40
 1317 06aa 2045      		move.l %d5,%a0
 1318 06ac 4E90      		jsr (%a0)
 1319               	.LVL102:
 196:test3.c       ****                 draw_board();
 1320               		.loc 1 196 17 view .LVU310
 1321 06ae 2044      		move.l %d4,%a0
 1322 06b0 4E90      		jsr (%a0)
 1323               	.LVL103:
 197:test3.c       ****                 win_flag = 0;
 1324               		.loc 1 197 17 view .LVU311
 1325               		.loc 1 197 26 is_stmt 0 view .LVU312
 1326 06b2 42B9 0000 		clr.l win_flag
 1326      0000 
 1327               	.L116:
 198:test3.c       ****             }
 199:test3.c       ****             V(2); // ゲーム終了フラグの解放
 1328               		.loc 1 199 13 is_stmt 1 view .LVU313
 1329 06b8 4878 0002 		pea 2.w
 1330               		.cfi_def_cfa_offset 44
 1331 06bc 4E94      		jsr (%a4)
 1332               	.LVL104:
 1333 06be 588F      		addq.l #4,%sp
 1334               		.cfi_def_cfa_offset 40
 1335 06c0 6000 FF5C 		jra .L118
 1336               	.LVL105:
 1337               	.L122:
 1338               		.loc 1 199 13 is_stmt 0 view .LVU314
 1339 06c4 0C00 0030 		cmp.b #48,%d0
 1340 06c8 6F00 FF54 		jle .L118
 1341 06cc 6000 FF7C 		jra .L114
 1342               	.LBE55:
 1343               		.cfi_endproc
 1344               	.LFE11:
 1345               		.size	player1_task, .-player1_task
 1346               		.align	2
 1347               		.globl	player2_task
 1348               		.type	player2_task, @function
 1349               	player2_task:
 1350               	.LFB12:
 200:test3.c       ****         }
 201:test3.c       ****     }
 202:test3.c       **** }
 203:test3.c       **** 
 204:test3.c       **** // プレイヤー2の処理
 205:test3.c       **** void player2_task() {
 1351               		.loc 1 205 21 is_stmt 1 view -0
 1352               		.cfi_startproc
 1353 06d0 48E7 383E 		movem.l #14398,-(%sp)


 1354               		.cfi_def_cfa_offset 36
 1355               		.cfi_offset 2, -36
 1356               		.cfi_offset 3, -32
 1357               		.cfi_offset 4, -28
 1358               		.cfi_offset 10, -24
 1359               		.cfi_offset 11, -20
 1360               		.cfi_offset 12, -16
 1361               		.cfi_offset 13, -12
 1362               		.cfi_offset 14, -8
 1363 06d4 47F9 0000 		lea inbyte,%a3
 1363      0000 
 1364 06da 45F9 0000 		lea P,%a2
 1364      0000 
 1365 06e0 4BFA FC6E 		lea change_board,%a5
 1366 06e4 49F9 0000 		lea V,%a4
 1366      0000 
 1367 06ea 4DF9 0000 		lea fwrite,%a6
 1367      0000 
 1368 06f0 283C 0000 		move.l #reset_matrix,%d4
 1368      0000 
 1369 06f6 263C 0000 		move.l #draw_board,%d3
 1369      0000 
 1370 06fc 243C 0045 		move.l #4522009,%d2
 1370      0019 
 1371               	.L130:
 206:test3.c       ****     while (1) {
 1372               		.loc 1 206 5 view .LVU316
 1373               	.LBB61:
 207:test3.c       ****         int ch = 1;
 1374               		.loc 1 207 9 view .LVU317
 1375               	.LVL106:
 208:test3.c       ****         if (inkey(ch)) {
 1376               		.loc 1 208 9 view .LVU318
 1377               	.LBB62:
 1378               	.LBI62:
  87:test3.c       ****     char c;
 1379               		.loc 1 87 5 view .LVU319
 1380               	.LBB63:
  88:test3.c       ****     c = inbyte(ch);
 1381               		.loc 1 88 5 view .LVU320
  89:test3.c       **** 
 1382               		.loc 1 89 5 view .LVU321
  89:test3.c       **** 
 1383               		.loc 1 89 9 is_stmt 0 view .LVU322
 1384 0702 4878 0001 		pea 1.w
 1385               		.cfi_def_cfa_offset 40
 1386 0706 4E93      		jsr (%a3)
 1387               	.LVL107:
  92:test3.c       ****         return 0;
 1388               		.loc 1 92 5 is_stmt 1 view .LVU323
  92:test3.c       ****         return 0;
 1389               		.loc 1 92 8 is_stmt 0 view .LVU324
 1390 0708 588F      		addq.l #4,%sp
 1391               		.cfi_def_cfa_offset 36
 1392 070a B039 0000 		cmp.b input_buf+1.l,%d0
 1392      0000 
 1393 0710 67F0      		jeq .L130


  97:test3.c       ****         c == 'q' || c == 'w' || c == 'e' ||
 1394               		.loc 1 97 5 is_stmt 1 view .LVU325
 1395 0712 0C00 0033 		cmp.b #51,%d0
 1396 0716 6F00 0094 		jle .L134
 1397 071a 1200      		move.b %d0,%d1
 1398 071c 0601 FF9F 		add.b #-97,%d1
 1399 0720 0C01 0016 		cmp.b #22,%d1
 1400 0724 62DC      		jhi .L130
 1401 0726 0281 0000 		and.l #255,%d1
 1401      00FF 
 1402 072c 0302      		btst %d1,%d2
 1403 072e 67D2      		jeq .L130
 1404               	.L126:
 100:test3.c       ****         return 1; // true
 1405               		.loc 1 100 9 view .LVU326
 100:test3.c       ****         return 1; // true
 1406               		.loc 1 100 23 is_stmt 0 view .LVU327
 1407 0730 13C0 0000 		move.b %d0,input_buf+1
 1407      0000 
 101:test3.c       ****     } else {
 1408               		.loc 1 101 9 is_stmt 1 view .LVU328
 1409               	.LVL108:
 101:test3.c       ****     } else {
 1410               		.loc 1 101 9 is_stmt 0 view .LVU329
 1411               	.LBE63:
 1412               	.LBE62:
 209:test3.c       ****             P(0); // 変更座標の確保
 1413               		.loc 1 209 13 is_stmt 1 view .LVU330
 1414 0736 42A7      		clr.l -(%sp)
 1415               		.cfi_def_cfa_offset 40
 1416 0738 4E92      		jsr (%a2)
 1417               	.LVL109:
 210:test3.c       ****             P(1); // 盤面確保
 1418               		.loc 1 210 13 view .LVU331
 1419 073a 4878 0001 		pea 1.w
 1420               		.cfi_def_cfa_offset 44
 1421 073e 4E92      		jsr (%a2)
 1422               	.LVL110:
 211:test3.c       ****             P(2); // ゲーム終了フラグの確保
 1423               		.loc 1 211 13 view .LVU332
 1424 0740 4878 0002 		pea 2.w
 1425               		.cfi_def_cfa_offset 48
 1426 0744 4E92      		jsr (%a2)
 1427               	.LVL111:
 212:test3.c       ****             
 213:test3.c       ****             change_board(ch);
 1428               		.loc 1 213 13 view .LVU333
 1429 0746 4878 0001 		pea 1.w
 1430               		.cfi_def_cfa_offset 52
 1431 074a 4E95      		jsr (%a5)
 1432               	.LVL112:
 214:test3.c       ****             
 215:test3.c       ****             V(0); // 変更座標の解放
 1433               		.loc 1 215 13 view .LVU334
 1434 074c 42A7      		clr.l -(%sp)
 1435               		.cfi_def_cfa_offset 56
 1436 074e 4E94      		jsr (%a4)


 1437               	.LVL113:
 216:test3.c       ****             V(1); // 盤面の解放
 1438               		.loc 1 216 13 view .LVU335
 1439 0750 4878 0001 		pea 1.w
 1440               		.cfi_def_cfa_offset 60
 1441 0754 4E94      		jsr (%a4)
 1442               	.LVL114:
 217:test3.c       ****             
 218:test3.c       ****             if (win_flag) {
 1443               		.loc 1 218 13 view .LVU336
 1444               		.loc 1 218 16 is_stmt 0 view .LVU337
 1445 0756 4FEF 0018 		lea (24,%sp),%sp
 1446               		.cfi_def_cfa_offset 36
 1447 075a 4AB9 0000 		tst.l win_flag
 1447      0000 
 1448 0760 673E      		jeq .L128
 219:test3.c       ****                 fprintf(com0out, "YOU LOSE\n");
 1449               		.loc 1 219 17 is_stmt 1 view .LVU338
 1450 0762 2F39 0000 		move.l com0out,-(%sp)
 1450      0000 
 1451               		.cfi_def_cfa_offset 40
 1452 0768 4878 0009 		pea 9.w
 1453               		.cfi_def_cfa_offset 44
 1454 076c 4878 0001 		pea 1.w
 1455               		.cfi_def_cfa_offset 48
 1456 0770 4879 0000 		pea .LC4
 1456      0000 
 1457               		.cfi_def_cfa_offset 52
 1458 0776 4E96      		jsr (%a6)
 1459               	.LVL115:
 220:test3.c       ****                 fprintf(com1out, "YOU WIN\n");
 1460               		.loc 1 220 17 view .LVU339
 1461 0778 2F39 0000 		move.l com1out,-(%sp)
 1461      0000 
 1462               		.cfi_def_cfa_offset 56
 1463 077e 4878 0008 		pea 8.w
 1464               		.cfi_def_cfa_offset 60
 1465 0782 4878 0001 		pea 1.w
 1466               		.cfi_def_cfa_offset 64
 1467 0786 4879 0000 		pea .LC3
 1467      0000 
 1468               		.cfi_def_cfa_offset 68
 1469 078c 4E96      		jsr (%a6)
 1470               	.LVL116:
 221:test3.c       ****                 reset_matrix();
 1471               		.loc 1 221 17 view .LVU340
 1472 078e 4FEF 0020 		lea (32,%sp),%sp
 1473               		.cfi_def_cfa_offset 36
 1474 0792 2044      		move.l %d4,%a0
 1475 0794 4E90      		jsr (%a0)
 1476               	.LVL117:
 222:test3.c       ****                 draw_board();
 1477               		.loc 1 222 17 view .LVU341
 1478 0796 2043      		move.l %d3,%a0
 1479 0798 4E90      		jsr (%a0)
 1480               	.LVL118:
 223:test3.c       ****                 win_flag = 0;


 1481               		.loc 1 223 17 view .LVU342
 1482               		.loc 1 223 26 is_stmt 0 view .LVU343
 1483 079a 42B9 0000 		clr.l win_flag
 1483      0000 
 1484               	.L128:
 224:test3.c       ****             }
 225:test3.c       ****             V(2); // ゲーム終了フラグの解放
 1485               		.loc 1 225 13 is_stmt 1 view .LVU344
 1486 07a0 4878 0002 		pea 2.w
 1487               		.cfi_def_cfa_offset 40
 1488 07a4 4E94      		jsr (%a4)
 1489               	.LVL119:
 1490 07a6 588F      		addq.l #4,%sp
 1491               		.cfi_def_cfa_offset 36
 1492 07a8 6000 FF58 		jra .L130
 1493               	.LVL120:
 1494               	.L134:
 1495               		.loc 1 225 13 is_stmt 0 view .LVU345
 1496 07ac 0C00 0030 		cmp.b #48,%d0
 1497 07b0 6F00 FF50 		jle .L130
 1498 07b4 6000 FF7A 		jra .L126
 1499               	.LBE61:
 1500               		.cfi_endproc
 1501               	.LFE12:
 1502               		.size	player2_task, .-player2_task
 1503               		.section	.text.startup,"ax",@progbits
 1504               		.align	2
 1505               		.globl	main
 1506               		.type	main, @function
 1507               	main:
 1508               	.LFB13:
 226:test3.c       ****         }
 227:test3.c       ****     }
 228:test3.c       **** }
 229:test3.c       **** 
 230:test3.c       **** int main() {
 1509               		.loc 1 230 12 is_stmt 1 view -0
 1510               		.cfi_startproc
 1511 0000 2F0A      		move.l %a2,-(%sp)
 1512               		.cfi_def_cfa_offset 8
 1513               		.cfi_offset 10, -8
 231:test3.c       ****   fd_mapping();
 1514               		.loc 1 231 3 view .LVU347
 1515 0002 4EB9 0000 		jsr fd_mapping
 1515      0000 
 1516               	.LVL121:
 232:test3.c       ****   // 変更座標の初期化
 233:test3.c       ****   ch_p.x = -1;
 1517               		.loc 1 233 3 view .LVU348
 1518               		.loc 1 233 10 is_stmt 0 view .LVU349
 1519 0008 70FF      		moveq #-1,%d0
 1520 000a 23C0 0000 		move.l %d0,ch_p
 1520      0000 
 234:test3.c       ****   ch_p.y = -1;
 1521               		.loc 1 234 3 is_stmt 1 view .LVU350
 1522               		.loc 1 234 10 is_stmt 0 view .LVU351
 1523 0010 23C0 0000 		move.l %d0,ch_p+4


 1523      0000 
 235:test3.c       ****   init_kernel();
 1524               		.loc 1 235 3 is_stmt 1 view .LVU352
 1525 0016 4EB9 0000 		jsr init_kernel
 1525      0000 
 1526               	.LVL122:
 236:test3.c       ****   // 初期盤面の描画
 237:test3.c       ****   draw_board();
 1527               		.loc 1 237 3 view .LVU353
 1528 001c 4EB9 0000 		jsr draw_board
 1528      0000 
 1529               	.LVL123:
 238:test3.c       ****   // タスクの登録とスケジューリング開始
 239:test3.c       ****   set_task(seed_task);
 1530               		.loc 1 239 3 view .LVU354
 1531 0022 4879 0000 		pea seed_task
 1531      0000 
 1532               		.cfi_def_cfa_offset 12
 1533 0028 45F9 0000 		lea set_task,%a2
 1533      0000 
 1534 002e 4E92      		jsr (%a2)
 1535               	.LVL124:
 240:test3.c       ****   set_task(player1_task);
 1536               		.loc 1 240 3 view .LVU355
 1537 0030 4879 0000 		pea player1_task
 1537      0000 
 1538               		.cfi_def_cfa_offset 16
 1539 0036 4E92      		jsr (%a2)
 1540               	.LVL125:
 241:test3.c       ****   set_task(player2_task);
 1541               		.loc 1 241 3 view .LVU356
 1542 0038 4879 0000 		pea player2_task
 1542      0000 
 1543               		.cfi_def_cfa_offset 20
 1544 003e 4E92      		jsr (%a2)
 1545               	.LVL126:
 242:test3.c       ****   begin_sch();
 1546               		.loc 1 242 3 view .LVU357
 1547 0040 4EB9 0000 		jsr begin_sch
 1547      0000 
 1548               	.LVL127:
 243:test3.c       ****   return 0;
 1549               		.loc 1 243 3 view .LVU358
 244:test3.c       **** }
 1550               		.loc 1 244 1 is_stmt 0 view .LVU359
 1551 0046 4FEF 000C 		lea (12,%sp),%sp
 1552               		.cfi_def_cfa_offset 8
 1553 004a 7000      		moveq #0,%d0
 1554 004c 245F      		move.l (%sp)+,%a2
 1555 004e 4E75      		rts
 1556               		.cfi_endproc
 1557               	.LFE13:
 1558               		.size	main, .-main
 1559               		.globl	input_buf
 1560               		.section	.bss
 1561               		.type	input_buf, @object
 1562               		.size	input_buf, 2


 1563               	input_buf:
 1564 0000 0000      		.zero	2
 1565               		.globl	win_flag
 1566               		.align	2
 1567               		.type	win_flag, @object
 1568               		.size	win_flag, 4
 1569               	win_flag:
 1570 0002 0000 0000 		.zero	4
 1571               		.globl	matrix
 1572               		.data
 1573               		.align	2
 1574               		.type	matrix, @object
 1575               		.size	matrix, 36
 1576               	matrix:
 1577 0000 0000 0001 		.long	1
 1578 0004 0000 0000 		.long	0
 1579 0008 0000 0001 		.long	1
 1580 000c 0000 0000 		.long	0
 1581 0010 0000 0001 		.long	1
 1582 0014 0000 0000 		.long	0
 1583 0018 0000 0001 		.long	1
 1584 001c 0000 0000 		.long	0
 1585 0020 0000 0001 		.long	1
 1586               		.globl	ch_p
 1587               		.section	.bss
 1588               		.align	2
 1589               		.type	ch_p, @object
 1590               		.size	ch_p, 8
 1591               	ch_p:
 1592 0006 0000 0000 		.zero	8
 1592      0000 0000 
 1593               		.globl	seed
 1594               		.align	2
 1595               		.type	seed, @object
 1596               		.size	seed, 4
 1597               	seed:
 1598 000e 0000 0000 		.zero	4
 1599               		.globl	col
 1600               		.data
 1601               		.align	2
 1602               		.type	col, @object
 1603               		.size	col, 4
 1604               	col:
 1605 0024 0000 0003 		.long	3
 1606               		.globl	row
 1607               		.align	2
 1608               		.type	row, @object
 1609               		.size	row, 4
 1610               	row:
 1611 0028 0000 0003 		.long	3
 1612               		.text
 1613               	.Letext0:
 1614               		.file 2 "/usr/local/lib/gcc/m68k-elf/11.4.0/include/stddef.h"
 1615               		.file 3 "/usr/local/m68k-elf/include/sys/_types.h"
 1616               		.file 4 "/usr/local/m68k-elf/include/sys/reent.h"
 1617               		.file 5 "/usr/local/m68k-elf/include/sys/lock.h"
 1618               		.file 6 "/usr/local/m68k-elf/include/stdio.h"


 1619               		.file 7 "mtk_c.h"
 1620               		.file 8 "/usr/local/m68k-elf/include/stdlib.h"
 1621               		.file 9 "<built-in>"
 1622               		.section	.debug_info,"",@progbits
 1623               	.Ldebug_info0:
 1624 0000 0000 0F04 		.long	0xf04
 1625 0004 0005      		.word	0x5
 1626 0006 01        		.byte	0x1
 1627 0007 04        		.byte	0x4
 1628 0008 0000 0000 		.long	.Ldebug_abbrev0
 1629 000c 2B        		.uleb128 0x2b
 1630 000d 0000 0000 		.long	.LASF131
 1631 0011 1D        		.byte	0x1d
 1632 0012 0000 0000 		.long	.LASF132
 1633 0016 0000 0000 		.long	.LASF133
 1634 001a 0000 0000 		.long	.LLRL37
 1635 001e 0000 0000 		.long	0
 1636 0022 0000 0000 		.long	.Ldebug_line0
 1637 0026 0A        		.uleb128 0xa
 1638 0027 01        		.byte	0x1
 1639 0028 06        		.byte	0x6
 1640 0029 0000 0000 		.long	.LASF0
 1641 002d 0A        		.uleb128 0xa
 1642 002e 01        		.byte	0x1
 1643 002f 08        		.byte	0x8
 1644 0030 0000 0000 		.long	.LASF1
 1645 0034 0A        		.uleb128 0xa
 1646 0035 02        		.byte	0x2
 1647 0036 05        		.byte	0x5
 1648 0037 0000 0000 		.long	.LASF2
 1649 003b 0A        		.uleb128 0xa
 1650 003c 02        		.byte	0x2
 1651 003d 07        		.byte	0x7
 1652 003e 0000 0000 		.long	.LASF3
 1653 0042 0A        		.uleb128 0xa
 1654 0043 04        		.byte	0x4
 1655 0044 05        		.byte	0x5
 1656 0045 0000 0000 		.long	.LASF4
 1657 0049 0A        		.uleb128 0xa
 1658 004a 04        		.byte	0x4
 1659 004b 07        		.byte	0x7
 1660 004c 0000 0000 		.long	.LASF5
 1661 0050 0A        		.uleb128 0xa
 1662 0051 08        		.byte	0x8
 1663 0052 05        		.byte	0x5
 1664 0053 0000 0000 		.long	.LASF6
 1665 0057 0A        		.uleb128 0xa
 1666 0058 08        		.byte	0x8
 1667 0059 07        		.byte	0x7
 1668 005a 0000 0000 		.long	.LASF7
 1669 005e 0A        		.uleb128 0xa
 1670 005f 0C        		.byte	0xc
 1671 0060 04        		.byte	0x4
 1672 0061 0000 0000 		.long	.LASF8
 1673 0065 1B        		.uleb128 0x1b
 1674 0066 0000 0000 		.long	.LASF10
 1675 006a 02        		.byte	0x2


 1676 006b 015E      		.word	0x15e
 1677 006d 17        		.byte	0x17
 1678 006e 0000 0072 		.long	0x72
 1679 0072 0A        		.uleb128 0xa
 1680 0073 04        		.byte	0x4
 1681 0074 07        		.byte	0x7
 1682 0075 0000 0000 		.long	.LASF9
 1683 0079 0C        		.uleb128 0xc
 1684 007a 0000 0000 		.long	.LASF11
 1685 007e 03        		.byte	0x3
 1686 007f 2E        		.byte	0x2e
 1687 0080 0E        		.byte	0xe
 1688 0081 0000 0042 		.long	0x42
 1689 0085 2C        		.uleb128 0x2c
 1690 0086 04        		.byte	0x4
 1691 0087 05        		.byte	0x5
 1692 0088 696E 7400 		.string	"int"
 1693 008c 0C        		.uleb128 0xc
 1694 008d 0000 0000 		.long	.LASF12
 1695 0091 03        		.byte	0x3
 1696 0092 74        		.byte	0x74
 1697 0093 0E        		.byte	0xe
 1698 0094 0000 0042 		.long	0x42
 1699 0098 0C        		.uleb128 0xc
 1700 0099 0000 0000 		.long	.LASF13
 1701 009d 03        		.byte	0x3
 1702 009e 93        		.byte	0x93
 1703 009f 17        		.byte	0x17
 1704 00a0 0000 0042 		.long	0x42
 1705 00a4 2D        		.uleb128 0x2d
 1706 00a5 04        		.byte	0x4
 1707 00a6 03        		.byte	0x3
 1708 00a7 A5        		.byte	0xa5
 1709 00a8 03        		.byte	0x3
 1710 00a9 0000 00C4 		.long	0xc4
 1711 00ad 1C        		.uleb128 0x1c
 1712 00ae 0000 0000 		.long	.LASF14
 1713 00b2 A7        		.byte	0xa7
 1714 00b3 0C        		.byte	0xc
 1715 00b4 0000 0065 		.long	0x65
 1716 00b8 1C        		.uleb128 0x1c
 1717 00b9 0000 0000 		.long	.LASF15
 1718 00bd A8        		.byte	0xa8
 1719 00be 13        		.byte	0x13
 1720 00bf 0000 00C4 		.long	0xc4
 1721 00c3 00        		.byte	0
 1722 00c4 0B        		.uleb128 0xb
 1723 00c5 0000 002D 		.long	0x2d
 1724 00c9 0000 00D4 		.long	0xd4
 1725 00cd 07        		.uleb128 0x7
 1726 00ce 0000 0049 		.long	0x49
 1727 00d2 03        		.byte	0x3
 1728 00d3 00        		.byte	0
 1729 00d4 1D        		.uleb128 0x1d
 1730 00d5 03        		.byte	0x3
 1731 00d6 A2        		.byte	0xa2
 1732 00d7 0000 00F6 		.long	0xf6


 1733 00db 03        		.uleb128 0x3
 1734 00dc 0000 0000 		.long	.LASF16
 1735 00e0 03        		.byte	0x3
 1736 00e1 A4        		.byte	0xa4
 1737 00e2 07        		.byte	0x7
 1738 00e3 0000 0085 		.long	0x85
 1739 00e7 00        		.byte	0
 1740 00e8 03        		.uleb128 0x3
 1741 00e9 0000 0000 		.long	.LASF17
 1742 00ed 03        		.byte	0x3
 1743 00ee A9        		.byte	0xa9
 1744 00ef 05        		.byte	0x5
 1745 00f0 0000 00A4 		.long	0xa4
 1746 00f4 04        		.byte	0x4
 1747 00f5 00        		.byte	0
 1748 00f6 0C        		.uleb128 0xc
 1749 00f7 0000 0000 		.long	.LASF18
 1750 00fb 03        		.byte	0x3
 1751 00fc AA        		.byte	0xaa
 1752 00fd 03        		.byte	0x3
 1753 00fe 0000 00D4 		.long	0xd4
 1754 0102 2E        		.uleb128 0x2e
 1755 0103 04        		.byte	0x4
 1756 0104 0C        		.uleb128 0xc
 1757 0105 0000 0000 		.long	.LASF19
 1758 0109 04        		.byte	0x4
 1759 010a 16        		.byte	0x16
 1760 010b 19        		.byte	0x19
 1761 010c 0000 0049 		.long	0x49
 1762 0110 0C        		.uleb128 0xc
 1763 0111 0000 0000 		.long	.LASF20
 1764 0115 05        		.byte	0x5
 1765 0116 0C        		.byte	0xc
 1766 0117 0D        		.byte	0xd
 1767 0118 0000 0085 		.long	0x85
 1768 011c 0C        		.uleb128 0xc
 1769 011d 0000 0000 		.long	.LASF21
 1770 0121 04        		.byte	0x4
 1771 0122 23        		.byte	0x23
 1772 0123 1B        		.byte	0x1b
 1773 0124 0000 0110 		.long	0x110
 1774 0128 11        		.uleb128 0x11
 1775 0129 0000 0000 		.long	.LASF26
 1776 012d 18        		.byte	0x18
 1777 012e 34        		.byte	0x34
 1778 012f 0000 0180 		.long	0x180
 1779 0133 03        		.uleb128 0x3
 1780 0134 0000 0000 		.long	.LASF22
 1781 0138 04        		.byte	0x4
 1782 0139 36        		.byte	0x36
 1783 013a 13        		.byte	0x13
 1784 013b 0000 0180 		.long	0x180
 1785 013f 00        		.byte	0
 1786 0140 08        		.uleb128 0x8
 1787 0141 5F6B 00   		.string	"_k"
 1788 0144 04        		.byte	0x4
 1789 0145 37        		.byte	0x37


 1790 0146 07        		.byte	0x7
 1791 0147 0000 0085 		.long	0x85
 1792 014b 04        		.byte	0x4
 1793 014c 03        		.uleb128 0x3
 1794 014d 0000 0000 		.long	.LASF23
 1795 0151 04        		.byte	0x4
 1796 0152 37        		.byte	0x37
 1797 0153 0B        		.byte	0xb
 1798 0154 0000 0085 		.long	0x85
 1799 0158 08        		.byte	0x8
 1800 0159 03        		.uleb128 0x3
 1801 015a 0000 0000 		.long	.LASF24
 1802 015e 04        		.byte	0x4
 1803 015f 37        		.byte	0x37
 1804 0160 14        		.byte	0x14
 1805 0161 0000 0085 		.long	0x85
 1806 0165 0C        		.byte	0xc
 1807 0166 03        		.uleb128 0x3
 1808 0167 0000 0000 		.long	.LASF25
 1809 016b 04        		.byte	0x4
 1810 016c 37        		.byte	0x37
 1811 016d 1B        		.byte	0x1b
 1812 016e 0000 0085 		.long	0x85
 1813 0172 10        		.byte	0x10
 1814 0173 08        		.uleb128 0x8
 1815 0174 5F78 00   		.string	"_x"
 1816 0177 04        		.byte	0x4
 1817 0178 38        		.byte	0x38
 1818 0179 0B        		.byte	0xb
 1819 017a 0000 0185 		.long	0x185
 1820 017e 14        		.byte	0x14
 1821 017f 00        		.byte	0
 1822 0180 05        		.uleb128 0x5
 1823 0181 0000 0128 		.long	0x128
 1824 0185 0B        		.uleb128 0xb
 1825 0186 0000 0104 		.long	0x104
 1826 018a 0000 0195 		.long	0x195
 1827 018e 07        		.uleb128 0x7
 1828 018f 0000 0049 		.long	0x49
 1829 0193 00        		.byte	0
 1830 0194 00        		.byte	0
 1831 0195 11        		.uleb128 0x11
 1832 0196 0000 0000 		.long	.LASF27
 1833 019a 24        		.byte	0x24
 1834 019b 3C        		.byte	0x3c
 1835 019c 0000 0216 		.long	0x216
 1836 01a0 03        		.uleb128 0x3
 1837 01a1 0000 0000 		.long	.LASF28
 1838 01a5 04        		.byte	0x4
 1839 01a6 3E        		.byte	0x3e
 1840 01a7 09        		.byte	0x9
 1841 01a8 0000 0085 		.long	0x85
 1842 01ac 00        		.byte	0
 1843 01ad 03        		.uleb128 0x3
 1844 01ae 0000 0000 		.long	.LASF29
 1845 01b2 04        		.byte	0x4
 1846 01b3 3F        		.byte	0x3f


 1847 01b4 09        		.byte	0x9
 1848 01b5 0000 0085 		.long	0x85
 1849 01b9 04        		.byte	0x4
 1850 01ba 03        		.uleb128 0x3
 1851 01bb 0000 0000 		.long	.LASF30
 1852 01bf 04        		.byte	0x4
 1853 01c0 40        		.byte	0x40
 1854 01c1 09        		.byte	0x9
 1855 01c2 0000 0085 		.long	0x85
 1856 01c6 08        		.byte	0x8
 1857 01c7 03        		.uleb128 0x3
 1858 01c8 0000 0000 		.long	.LASF31
 1859 01cc 04        		.byte	0x4
 1860 01cd 41        		.byte	0x41
 1861 01ce 09        		.byte	0x9
 1862 01cf 0000 0085 		.long	0x85
 1863 01d3 0C        		.byte	0xc
 1864 01d4 03        		.uleb128 0x3
 1865 01d5 0000 0000 		.long	.LASF32
 1866 01d9 04        		.byte	0x4
 1867 01da 42        		.byte	0x42
 1868 01db 09        		.byte	0x9
 1869 01dc 0000 0085 		.long	0x85
 1870 01e0 10        		.byte	0x10
 1871 01e1 03        		.uleb128 0x3
 1872 01e2 0000 0000 		.long	.LASF33
 1873 01e6 04        		.byte	0x4
 1874 01e7 43        		.byte	0x43
 1875 01e8 09        		.byte	0x9
 1876 01e9 0000 0085 		.long	0x85
 1877 01ed 14        		.byte	0x14
 1878 01ee 03        		.uleb128 0x3
 1879 01ef 0000 0000 		.long	.LASF34
 1880 01f3 04        		.byte	0x4
 1881 01f4 44        		.byte	0x44
 1882 01f5 09        		.byte	0x9
 1883 01f6 0000 0085 		.long	0x85
 1884 01fa 18        		.byte	0x18
 1885 01fb 03        		.uleb128 0x3
 1886 01fc 0000 0000 		.long	.LASF35
 1887 0200 04        		.byte	0x4
 1888 0201 45        		.byte	0x45
 1889 0202 09        		.byte	0x9
 1890 0203 0000 0085 		.long	0x85
 1891 0207 1C        		.byte	0x1c
 1892 0208 03        		.uleb128 0x3
 1893 0209 0000 0000 		.long	.LASF36
 1894 020d 04        		.byte	0x4
 1895 020e 46        		.byte	0x46
 1896 020f 09        		.byte	0x9
 1897 0210 0000 0085 		.long	0x85
 1898 0214 20        		.byte	0x20
 1899 0215 00        		.byte	0
 1900 0216 11        		.uleb128 0x11
 1901 0217 0000 0000 		.long	.LASF37
 1902 021b 08        		.byte	0x8
 1903 021c 73        		.byte	0x73


 1904 021d 0000 023C 		.long	0x23c
 1905 0221 03        		.uleb128 0x3
 1906 0222 0000 0000 		.long	.LASF38
 1907 0226 04        		.byte	0x4
 1908 0227 74        		.byte	0x74
 1909 0228 11        		.byte	0x11
 1910 0229 0000 023C 		.long	0x23c
 1911 022d 00        		.byte	0
 1912 022e 03        		.uleb128 0x3
 1913 022f 0000 0000 		.long	.LASF39
 1914 0233 04        		.byte	0x4
 1915 0234 75        		.byte	0x75
 1916 0235 06        		.byte	0x6
 1917 0236 0000 0085 		.long	0x85
 1918 023a 04        		.byte	0x4
 1919 023b 00        		.byte	0
 1920 023c 05        		.uleb128 0x5
 1921 023d 0000 002D 		.long	0x2d
 1922 0241 11        		.uleb128 0x11
 1923 0242 0000 0000 		.long	.LASF40
 1924 0246 68        		.byte	0x68
 1925 0247 98        		.byte	0x98
 1926 0248 0000 0382 		.long	0x382
 1927 024c 08        		.uleb128 0x8
 1928 024d 5F70 00   		.string	"_p"
 1929 0250 04        		.byte	0x4
 1930 0251 99        		.byte	0x99
 1931 0252 12        		.byte	0x12
 1932 0253 0000 023C 		.long	0x23c
 1933 0257 00        		.byte	0
 1934 0258 08        		.uleb128 0x8
 1935 0259 5F72 00   		.string	"_r"
 1936 025c 04        		.byte	0x4
 1937 025d 9A        		.byte	0x9a
 1938 025e 07        		.byte	0x7
 1939 025f 0000 0085 		.long	0x85
 1940 0263 04        		.byte	0x4
 1941 0264 08        		.uleb128 0x8
 1942 0265 5F77 00   		.string	"_w"
 1943 0268 04        		.byte	0x4
 1944 0269 9B        		.byte	0x9b
 1945 026a 07        		.byte	0x7
 1946 026b 0000 0085 		.long	0x85
 1947 026f 08        		.byte	0x8
 1948 0270 03        		.uleb128 0x3
 1949 0271 0000 0000 		.long	.LASF41
 1950 0275 04        		.byte	0x4
 1951 0276 9C        		.byte	0x9c
 1952 0277 09        		.byte	0x9
 1953 0278 0000 0034 		.long	0x34
 1954 027c 0C        		.byte	0xc
 1955 027d 03        		.uleb128 0x3
 1956 027e 0000 0000 		.long	.LASF42
 1957 0282 04        		.byte	0x4
 1958 0283 9D        		.byte	0x9d
 1959 0284 09        		.byte	0x9
 1960 0285 0000 0034 		.long	0x34


 1961 0289 0E        		.byte	0xe
 1962 028a 08        		.uleb128 0x8
 1963 028b 5F62 6600 		.string	"_bf"
 1964 028f 04        		.byte	0x4
 1965 0290 9E        		.byte	0x9e
 1966 0291 11        		.byte	0x11
 1967 0292 0000 0216 		.long	0x216
 1968 0296 10        		.byte	0x10
 1969 0297 03        		.uleb128 0x3
 1970 0298 0000 0000 		.long	.LASF43
 1971 029c 04        		.byte	0x4
 1972 029d 9F        		.byte	0x9f
 1973 029e 07        		.byte	0x7
 1974 029f 0000 0085 		.long	0x85
 1975 02a3 18        		.byte	0x18
 1976 02a4 03        		.uleb128 0x3
 1977 02a5 0000 0000 		.long	.LASF44
 1978 02a9 04        		.byte	0x4
 1979 02aa A6        		.byte	0xa6
 1980 02ab 0A        		.byte	0xa
 1981 02ac 0000 0102 		.long	0x102
 1982 02b0 1C        		.byte	0x1c
 1983 02b1 03        		.uleb128 0x3
 1984 02b2 0000 0000 		.long	.LASF45
 1985 02b6 04        		.byte	0x4
 1986 02b7 A8        		.byte	0xa8
 1987 02b8 1D        		.byte	0x1d
 1988 02b9 0000 0498 		.long	0x498
 1989 02bd 20        		.byte	0x20
 1990 02be 03        		.uleb128 0x3
 1991 02bf 0000 0000 		.long	.LASF46
 1992 02c3 04        		.byte	0x4
 1993 02c4 AA        		.byte	0xaa
 1994 02c5 1D        		.byte	0x1d
 1995 02c6 0000 04C5 		.long	0x4c5
 1996 02ca 24        		.byte	0x24
 1997 02cb 03        		.uleb128 0x3
 1998 02cc 0000 0000 		.long	.LASF47
 1999 02d0 04        		.byte	0x4
 2000 02d1 AD        		.byte	0xad
 2001 02d2 0D        		.byte	0xd
 2002 02d3 0000 04E8 		.long	0x4e8
 2003 02d7 28        		.byte	0x28
 2004 02d8 03        		.uleb128 0x3
 2005 02d9 0000 0000 		.long	.LASF48
 2006 02dd 04        		.byte	0x4
 2007 02de AE        		.byte	0xae
 2008 02df 09        		.byte	0x9
 2009 02e0 0000 0501 		.long	0x501
 2010 02e4 2C        		.byte	0x2c
 2011 02e5 08        		.uleb128 0x8
 2012 02e6 5F75 6200 		.string	"_ub"
 2013 02ea 04        		.byte	0x4
 2014 02eb B1        		.byte	0xb1
 2015 02ec 11        		.byte	0x11
 2016 02ed 0000 0216 		.long	0x216
 2017 02f1 30        		.byte	0x30


 2018 02f2 08        		.uleb128 0x8
 2019 02f3 5F75 7000 		.string	"_up"
 2020 02f7 04        		.byte	0x4
 2021 02f8 B2        		.byte	0xb2
 2022 02f9 12        		.byte	0x12
 2023 02fa 0000 023C 		.long	0x23c
 2024 02fe 38        		.byte	0x38
 2025 02ff 08        		.uleb128 0x8
 2026 0300 5F75 7200 		.string	"_ur"
 2027 0304 04        		.byte	0x4
 2028 0305 B3        		.byte	0xb3
 2029 0306 07        		.byte	0x7
 2030 0307 0000 0085 		.long	0x85
 2031 030b 3C        		.byte	0x3c
 2032 030c 03        		.uleb128 0x3
 2033 030d 0000 0000 		.long	.LASF49
 2034 0311 04        		.byte	0x4
 2035 0312 B6        		.byte	0xb6
 2036 0313 11        		.byte	0x11
 2037 0314 0000 0506 		.long	0x506
 2038 0318 40        		.byte	0x40
 2039 0319 03        		.uleb128 0x3
 2040 031a 0000 0000 		.long	.LASF50
 2041 031e 04        		.byte	0x4
 2042 031f B7        		.byte	0xb7
 2043 0320 11        		.byte	0x11
 2044 0321 0000 0516 		.long	0x516
 2045 0325 43        		.byte	0x43
 2046 0326 08        		.uleb128 0x8
 2047 0327 5F6C 6200 		.string	"_lb"
 2048 032b 04        		.byte	0x4
 2049 032c BA        		.byte	0xba
 2050 032d 11        		.byte	0x11
 2051 032e 0000 0216 		.long	0x216
 2052 0332 44        		.byte	0x44
 2053 0333 03        		.uleb128 0x3
 2054 0334 0000 0000 		.long	.LASF51
 2055 0338 04        		.byte	0x4
 2056 0339 BD        		.byte	0xbd
 2057 033a 07        		.byte	0x7
 2058 033b 0000 0085 		.long	0x85
 2059 033f 4C        		.byte	0x4c
 2060 0340 03        		.uleb128 0x3
 2061 0341 0000 0000 		.long	.LASF52
 2062 0345 04        		.byte	0x4
 2063 0346 BE        		.byte	0xbe
 2064 0347 0A        		.byte	0xa
 2065 0348 0000 0079 		.long	0x79
 2066 034c 50        		.byte	0x50
 2067 034d 03        		.uleb128 0x3
 2068 034e 0000 0000 		.long	.LASF53
 2069 0352 04        		.byte	0x4
 2070 0353 C1        		.byte	0xc1
 2071 0354 12        		.byte	0x12
 2072 0355 0000 03A0 		.long	0x3a0
 2073 0359 54        		.byte	0x54
 2074 035a 03        		.uleb128 0x3


 2075 035b 0000 0000 		.long	.LASF54
 2076 035f 04        		.byte	0x4
 2077 0360 C5        		.byte	0xc5
 2078 0361 0C        		.byte	0xc
 2079 0362 0000 011C 		.long	0x11c
 2080 0366 58        		.byte	0x58
 2081 0367 03        		.uleb128 0x3
 2082 0368 0000 0000 		.long	.LASF55
 2083 036c 04        		.byte	0x4
 2084 036d C7        		.byte	0xc7
 2085 036e 0E        		.byte	0xe
 2086 036f 0000 00F6 		.long	0xf6
 2087 0373 5C        		.byte	0x5c
 2088 0374 03        		.uleb128 0x3
 2089 0375 0000 0000 		.long	.LASF56
 2090 0379 04        		.byte	0x4
 2091 037a C8        		.byte	0xc8
 2092 037b 09        		.byte	0x9
 2093 037c 0000 0085 		.long	0x85
 2094 0380 64        		.byte	0x64
 2095 0381 00        		.byte	0
 2096 0382 12        		.uleb128 0x12
 2097 0383 0000 0098 		.long	0x98
 2098 0387 0000 03A0 		.long	0x3a0
 2099 038b 04        		.uleb128 0x4
 2100 038c 0000 03A0 		.long	0x3a0
 2101 0390 04        		.uleb128 0x4
 2102 0391 0000 0102 		.long	0x102
 2103 0395 04        		.uleb128 0x4
 2104 0396 0000 0487 		.long	0x487
 2105 039a 04        		.uleb128 0x4
 2106 039b 0000 0085 		.long	0x85
 2107 039f 00        		.byte	0
 2108 03a0 05        		.uleb128 0x5
 2109 03a1 0000 03A5 		.long	0x3a5
 2110 03a5 2F        		.uleb128 0x2f
 2111 03a6 0000 0000 		.long	.LASF57
 2112 03aa 0116      		.word	0x116
 2113 03ac 04        		.byte	0x4
 2114 03ad 0237      		.word	0x237
 2115 03af 08        		.byte	0x8
 2116 03b0 0000 0487 		.long	0x487
 2117 03b4 02        		.uleb128 0x2
 2118 03b5 0000 0000 		.long	.LASF58
 2119 03b9 0239      		.word	0x239
 2120 03bb 07        		.byte	0x7
 2121 03bc 0000 0085 		.long	0x85
 2122 03c0 00        		.byte	0
 2123 03c1 02        		.uleb128 0x2
 2124 03c2 0000 0000 		.long	.LASF59
 2125 03c6 023E      		.word	0x23e
 2126 03c8 0B        		.byte	0xb
 2127 03c9 0000 0533 		.long	0x533
 2128 03cd 04        		.byte	0x4
 2129 03ce 02        		.uleb128 0x2
 2130 03cf 0000 0000 		.long	.LASF60
 2131 03d3 023E      		.word	0x23e


 2132 03d5 14        		.byte	0x14
 2133 03d6 0000 0533 		.long	0x533
 2134 03da 08        		.byte	0x8
 2135 03db 02        		.uleb128 0x2
 2136 03dc 0000 0000 		.long	.LASF61
 2137 03e0 023E      		.word	0x23e
 2138 03e2 1E        		.byte	0x1e
 2139 03e3 0000 0533 		.long	0x533
 2140 03e7 0C        		.byte	0xc
 2141 03e8 02        		.uleb128 0x2
 2142 03e9 0000 0000 		.long	.LASF62
 2143 03ed 0240      		.word	0x240
 2144 03ef 08        		.byte	0x8
 2145 03f0 0000 0085 		.long	0x85
 2146 03f4 10        		.byte	0x10
 2147 03f5 02        		.uleb128 0x2
 2148 03f6 0000 0000 		.long	.LASF63
 2149 03fa 0241      		.word	0x241
 2150 03fc 08        		.byte	0x8
 2151 03fd 0000 06BB 		.long	0x6bb
 2152 0401 14        		.byte	0x14
 2153 0402 02        		.uleb128 0x2
 2154 0403 0000 0000 		.long	.LASF64
 2155 0407 0246      		.word	0x246
 2156 0409 16        		.byte	0x16
 2157 040a 0000 06D0 		.long	0x6d0
 2158 040e 2E        		.byte	0x2e
 2159 040f 02        		.uleb128 0x2
 2160 0410 0000 0000 		.long	.LASF65
 2161 0414 024C      		.word	0x24c
 2162 0416 0A        		.byte	0xa
 2163 0417 0000 06E0 		.long	0x6e0
 2164 041b 32        		.byte	0x32
 2165 041c 02        		.uleb128 0x2
 2166 041d 0000 0000 		.long	.LASF66
 2167 0421 024F      		.word	0x24f
 2168 0423 13        		.byte	0x13
 2169 0424 0000 0180 		.long	0x180
 2170 0428 36        		.byte	0x36
 2171 0429 02        		.uleb128 0x2
 2172 042a 0000 0000 		.long	.LASF67
 2173 042e 0250      		.word	0x250
 2174 0430 07        		.byte	0x7
 2175 0431 0000 0085 		.long	0x85
 2176 0435 3A        		.byte	0x3a
 2177 0436 02        		.uleb128 0x2
 2178 0437 0000 0000 		.long	.LASF68
 2179 043b 0251      		.word	0x251
 2180 043d 13        		.byte	0x13
 2181 043e 0000 0180 		.long	0x180
 2182 0442 3E        		.byte	0x3e
 2183 0443 02        		.uleb128 0x2
 2184 0444 0000 0000 		.long	.LASF69
 2185 0448 0252      		.word	0x252
 2186 044a 14        		.byte	0x14
 2187 044b 0000 06E5 		.long	0x6e5
 2188 044f 42        		.byte	0x42


 2189 0450 02        		.uleb128 0x2
 2190 0451 0000 0000 		.long	.LASF70
 2191 0455 0255      		.word	0x255
 2192 0457 07        		.byte	0x7
 2193 0458 0000 0085 		.long	0x85
 2194 045c 46        		.byte	0x46
 2195 045d 02        		.uleb128 0x2
 2196 045e 0000 0000 		.long	.LASF71
 2197 0462 0256      		.word	0x256
 2198 0464 09        		.byte	0x9
 2199 0465 0000 0487 		.long	0x487
 2200 0469 4A        		.byte	0x4a
 2201 046a 02        		.uleb128 0x2
 2202 046b 0000 0000 		.long	.LASF72
 2203 046f 0279      		.word	0x279
 2204 0471 07        		.byte	0x7
 2205 0472 0000 06A3 		.long	0x6a3
 2206 0476 4E        		.byte	0x4e
 2207 0477 30        		.uleb128 0x30
 2208 0478 0000 0000 		.long	.LASF73
 2209 047c 04        		.byte	0x4
 2210 047d 0281      		.word	0x281
 2211 047f 0B        		.byte	0xb
 2212 0480 0000 06F5 		.long	0x6f5
 2213 0484 0112      		.word	0x112
 2214 0486 00        		.byte	0
 2215 0487 05        		.uleb128 0x5
 2216 0488 0000 048C 		.long	0x48c
 2217 048c 0A        		.uleb128 0xa
 2218 048d 01        		.byte	0x1
 2219 048e 06        		.byte	0x6
 2220 048f 0000 0000 		.long	.LASF74
 2221 0493 31        		.uleb128 0x31
 2222 0494 0000 048C 		.long	0x48c
 2223 0498 05        		.uleb128 0x5
 2224 0499 0000 0382 		.long	0x382
 2225 049d 12        		.uleb128 0x12
 2226 049e 0000 0098 		.long	0x98
 2227 04a2 0000 04BB 		.long	0x4bb
 2228 04a6 04        		.uleb128 0x4
 2229 04a7 0000 03A0 		.long	0x3a0
 2230 04ab 04        		.uleb128 0x4
 2231 04ac 0000 0102 		.long	0x102
 2232 04b0 04        		.uleb128 0x4
 2233 04b1 0000 04BB 		.long	0x4bb
 2234 04b5 04        		.uleb128 0x4
 2235 04b6 0000 0085 		.long	0x85
 2236 04ba 00        		.byte	0
 2237 04bb 05        		.uleb128 0x5
 2238 04bc 0000 0493 		.long	0x493
 2239 04c0 1E        		.uleb128 0x1e
 2240 04c1 0000 04BB 		.long	0x4bb
 2241 04c5 05        		.uleb128 0x5
 2242 04c6 0000 049D 		.long	0x49d
 2243 04ca 12        		.uleb128 0x12
 2244 04cb 0000 008C 		.long	0x8c
 2245 04cf 0000 04E8 		.long	0x4e8


 2246 04d3 04        		.uleb128 0x4
 2247 04d4 0000 03A0 		.long	0x3a0
 2248 04d8 04        		.uleb128 0x4
 2249 04d9 0000 0102 		.long	0x102
 2250 04dd 04        		.uleb128 0x4
 2251 04de 0000 008C 		.long	0x8c
 2252 04e2 04        		.uleb128 0x4
 2253 04e3 0000 0085 		.long	0x85
 2254 04e7 00        		.byte	0
 2255 04e8 05        		.uleb128 0x5
 2256 04e9 0000 04CA 		.long	0x4ca
 2257 04ed 12        		.uleb128 0x12
 2258 04ee 0000 0085 		.long	0x85
 2259 04f2 0000 0501 		.long	0x501
 2260 04f6 04        		.uleb128 0x4
 2261 04f7 0000 03A0 		.long	0x3a0
 2262 04fb 04        		.uleb128 0x4
 2263 04fc 0000 0102 		.long	0x102
 2264 0500 00        		.byte	0
 2265 0501 05        		.uleb128 0x5
 2266 0502 0000 04ED 		.long	0x4ed
 2267 0506 0B        		.uleb128 0xb
 2268 0507 0000 002D 		.long	0x2d
 2269 050b 0000 0516 		.long	0x516
 2270 050f 07        		.uleb128 0x7
 2271 0510 0000 0049 		.long	0x49
 2272 0514 02        		.byte	0x2
 2273 0515 00        		.byte	0
 2274 0516 0B        		.uleb128 0xb
 2275 0517 0000 002D 		.long	0x2d
 2276 051b 0000 0526 		.long	0x526
 2277 051f 07        		.uleb128 0x7
 2278 0520 0000 0049 		.long	0x49
 2279 0524 00        		.byte	0
 2280 0525 00        		.byte	0
 2281 0526 1B        		.uleb128 0x1b
 2282 0527 0000 0000 		.long	.LASF75
 2283 052b 04        		.byte	0x4
 2284 052c 010D      		.word	0x10d
 2285 052e 1A        		.byte	0x1a
 2286 052f 0000 0241 		.long	0x241
 2287 0533 05        		.uleb128 0x5
 2288 0534 0000 0526 		.long	0x526
 2289 0538 32        		.uleb128 0x32
 2290 0539 0000 0000 		.long	.LASF76
 2291 053d 0E        		.byte	0xe
 2292 053e 04        		.byte	0x4
 2293 053f 0131      		.word	0x131
 2294 0541 08        		.byte	0x8
 2295 0542 0000 056E 		.long	0x56e
 2296 0546 02        		.uleb128 0x2
 2297 0547 0000 0000 		.long	.LASF77
 2298 054b 0132      		.word	0x132
 2299 054d 12        		.byte	0x12
 2300 054e 0000 056E 		.long	0x56e
 2301 0552 00        		.byte	0
 2302 0553 02        		.uleb128 0x2


 2303 0554 0000 0000 		.long	.LASF78
 2304 0558 0133      		.word	0x133
 2305 055a 12        		.byte	0x12
 2306 055b 0000 056E 		.long	0x56e
 2307 055f 06        		.byte	0x6
 2308 0560 02        		.uleb128 0x2
 2309 0561 0000 0000 		.long	.LASF79
 2310 0565 0134      		.word	0x134
 2311 0567 12        		.byte	0x12
 2312 0568 0000 003B 		.long	0x3b
 2313 056c 0C        		.byte	0xc
 2314 056d 00        		.byte	0
 2315 056e 0B        		.uleb128 0xb
 2316 056f 0000 003B 		.long	0x3b
 2317 0573 0000 057E 		.long	0x57e
 2318 0577 07        		.uleb128 0x7
 2319 0578 0000 0049 		.long	0x49
 2320 057c 02        		.byte	0x2
 2321 057d 00        		.byte	0
 2322 057e 33        		.uleb128 0x33
 2323 057f C4        		.byte	0xc4
 2324 0580 04        		.byte	0x4
 2325 0581 025A      		.word	0x25a
 2326 0583 07        		.byte	0x7
 2327 0584 0000 0673 		.long	0x673
 2328 0588 02        		.uleb128 0x2
 2329 0589 0000 0000 		.long	.LASF80
 2330 058d 025F      		.word	0x25f
 2331 058f 12        		.byte	0x12
 2332 0590 0000 0487 		.long	0x487
 2333 0594 00        		.byte	0
 2334 0595 02        		.uleb128 0x2
 2335 0596 0000 0000 		.long	.LASF81
 2336 059a 0260      		.word	0x260
 2337 059c 10        		.byte	0x10
 2338 059d 0000 0673 		.long	0x673
 2339 05a1 04        		.byte	0x4
 2340 05a2 02        		.uleb128 0x2
 2341 05a3 0000 0000 		.long	.LASF82
 2342 05a7 0261      		.word	0x261
 2343 05a9 17        		.byte	0x17
 2344 05aa 0000 0195 		.long	0x195
 2345 05ae 1E        		.byte	0x1e
 2346 05af 02        		.uleb128 0x2
 2347 05b0 0000 0000 		.long	.LASF83
 2348 05b4 0262      		.word	0x262
 2349 05b6 0F        		.byte	0xf
 2350 05b7 0000 0085 		.long	0x85
 2351 05bb 42        		.byte	0x42
 2352 05bc 02        		.uleb128 0x2
 2353 05bd 0000 0000 		.long	.LASF84
 2354 05c1 0263      		.word	0x263
 2355 05c3 2C        		.byte	0x2c
 2356 05c4 0000 0057 		.long	0x57
 2357 05c8 46        		.byte	0x46
 2358 05c9 02        		.uleb128 0x2
 2359 05ca 0000 0000 		.long	.LASF85


 2360 05ce 0264      		.word	0x264
 2361 05d0 1A        		.byte	0x1a
 2362 05d1 0000 0538 		.long	0x538
 2363 05d5 4E        		.byte	0x4e
 2364 05d6 02        		.uleb128 0x2
 2365 05d7 0000 0000 		.long	.LASF86
 2366 05db 0265      		.word	0x265
 2367 05dd 16        		.byte	0x16
 2368 05de 0000 00F6 		.long	0xf6
 2369 05e2 5C        		.byte	0x5c
 2370 05e3 02        		.uleb128 0x2
 2371 05e4 0000 0000 		.long	.LASF87
 2372 05e8 0266      		.word	0x266
 2373 05ea 16        		.byte	0x16
 2374 05eb 0000 00F6 		.long	0xf6
 2375 05ef 64        		.byte	0x64
 2376 05f0 02        		.uleb128 0x2
 2377 05f1 0000 0000 		.long	.LASF88
 2378 05f5 0267      		.word	0x267
 2379 05f7 16        		.byte	0x16
 2380 05f8 0000 00F6 		.long	0xf6
 2381 05fc 6C        		.byte	0x6c
 2382 05fd 02        		.uleb128 0x2
 2383 05fe 0000 0000 		.long	.LASF89
 2384 0602 0268      		.word	0x268
 2385 0604 10        		.byte	0x10
 2386 0605 0000 0683 		.long	0x683
 2387 0609 74        		.byte	0x74
 2388 060a 02        		.uleb128 0x2
 2389 060b 0000 0000 		.long	.LASF90
 2390 060f 0269      		.word	0x269
 2391 0611 10        		.byte	0x10
 2392 0612 0000 0693 		.long	0x693
 2393 0616 7C        		.byte	0x7c
 2394 0617 02        		.uleb128 0x2
 2395 0618 0000 0000 		.long	.LASF91
 2396 061c 026A      		.word	0x26a
 2397 061e 0F        		.byte	0xf
 2398 061f 0000 0085 		.long	0x85
 2399 0623 94        		.byte	0x94
 2400 0624 02        		.uleb128 0x2
 2401 0625 0000 0000 		.long	.LASF92
 2402 0629 026B      		.word	0x26b
 2403 062b 16        		.byte	0x16
 2404 062c 0000 00F6 		.long	0xf6
 2405 0630 98        		.byte	0x98
 2406 0631 02        		.uleb128 0x2
 2407 0632 0000 0000 		.long	.LASF93
 2408 0636 026C      		.word	0x26c
 2409 0638 16        		.byte	0x16
 2410 0639 0000 00F6 		.long	0xf6
 2411 063d A0        		.byte	0xa0
 2412 063e 02        		.uleb128 0x2
 2413 063f 0000 0000 		.long	.LASF94
 2414 0643 026D      		.word	0x26d
 2415 0645 16        		.byte	0x16
 2416 0646 0000 00F6 		.long	0xf6


 2417 064a A8        		.byte	0xa8
 2418 064b 02        		.uleb128 0x2
 2419 064c 0000 0000 		.long	.LASF95
 2420 0650 026E      		.word	0x26e
 2421 0652 16        		.byte	0x16
 2422 0653 0000 00F6 		.long	0xf6
 2423 0657 B0        		.byte	0xb0
 2424 0658 02        		.uleb128 0x2
 2425 0659 0000 0000 		.long	.LASF96
 2426 065d 026F      		.word	0x26f
 2427 065f 16        		.byte	0x16
 2428 0660 0000 00F6 		.long	0xf6
 2429 0664 B8        		.byte	0xb8
 2430 0665 02        		.uleb128 0x2
 2431 0666 0000 0000 		.long	.LASF97
 2432 066a 0270      		.word	0x270
 2433 066c 08        		.byte	0x8
 2434 066d 0000 0085 		.long	0x85
 2435 0671 C0        		.byte	0xc0
 2436 0672 00        		.byte	0
 2437 0673 0B        		.uleb128 0xb
 2438 0674 0000 048C 		.long	0x48c
 2439 0678 0000 0683 		.long	0x683
 2440 067c 07        		.uleb128 0x7
 2441 067d 0000 0049 		.long	0x49
 2442 0681 19        		.byte	0x19
 2443 0682 00        		.byte	0
 2444 0683 0B        		.uleb128 0xb
 2445 0684 0000 048C 		.long	0x48c
 2446 0688 0000 0693 		.long	0x693
 2447 068c 07        		.uleb128 0x7
 2448 068d 0000 0049 		.long	0x49
 2449 0691 07        		.byte	0x7
 2450 0692 00        		.byte	0
 2451 0693 0B        		.uleb128 0xb
 2452 0694 0000 048C 		.long	0x48c
 2453 0698 0000 06A3 		.long	0x6a3
 2454 069c 07        		.uleb128 0x7
 2455 069d 0000 0049 		.long	0x49
 2456 06a1 17        		.byte	0x17
 2457 06a2 00        		.byte	0
 2458 06a3 34        		.uleb128 0x34
 2459 06a4 C4        		.byte	0xc4
 2460 06a5 04        		.byte	0x4
 2461 06a6 0258      		.word	0x258
 2462 06a8 03        		.byte	0x3
 2463 06a9 0000 06BB 		.long	0x6bb
 2464 06ad 35        		.uleb128 0x35
 2465 06ae 0000 0000 		.long	.LASF57
 2466 06b2 04        		.byte	0x4
 2467 06b3 0271      		.word	0x271
 2468 06b5 0B        		.byte	0xb
 2469 06b6 0000 057E 		.long	0x57e
 2470 06ba 00        		.byte	0
 2471 06bb 0B        		.uleb128 0xb
 2472 06bc 0000 048C 		.long	0x48c
 2473 06c0 0000 06CB 		.long	0x6cb


 2474 06c4 07        		.uleb128 0x7
 2475 06c5 0000 0049 		.long	0x49
 2476 06c9 18        		.byte	0x18
 2477 06ca 00        		.byte	0
 2478 06cb 36        		.uleb128 0x36
 2479 06cc 0000 0000 		.long	.LASF134
 2480 06d0 05        		.uleb128 0x5
 2481 06d1 0000 06CB 		.long	0x6cb
 2482 06d5 1F        		.uleb128 0x1f
 2483 06d6 0000 06E0 		.long	0x6e0
 2484 06da 04        		.uleb128 0x4
 2485 06db 0000 03A0 		.long	0x3a0
 2486 06df 00        		.byte	0
 2487 06e0 05        		.uleb128 0x5
 2488 06e1 0000 06D5 		.long	0x6d5
 2489 06e5 05        		.uleb128 0x5
 2490 06e6 0000 0180 		.long	0x180
 2491 06ea 1F        		.uleb128 0x1f
 2492 06eb 0000 06F5 		.long	0x6f5
 2493 06ef 04        		.uleb128 0x4
 2494 06f0 0000 0085 		.long	0x85
 2495 06f4 00        		.byte	0
 2496 06f5 05        		.uleb128 0x5
 2497 06f6 0000 06FA 		.long	0x6fa
 2498 06fa 05        		.uleb128 0x5
 2499 06fb 0000 06EA 		.long	0x6ea
 2500 06ff 0C        		.uleb128 0xc
 2501 0700 0000 0000 		.long	.LASF98
 2502 0704 06        		.byte	0x6
 2503 0705 42        		.byte	0x42
 2504 0706 10        		.byte	0x10
 2505 0707 0000 0526 		.long	0x526
 2506 070b 37        		.uleb128 0x37
 2507 070c 0000 0712 		.long	0x712
 2508 0710 0D        		.uleb128 0xd
 2509 0711 00        		.byte	0
 2510 0712 05        		.uleb128 0x5
 2511 0713 0000 070B 		.long	0x70b
 2512 0717 05        		.uleb128 0x5
 2513 0718 0000 06FF 		.long	0x6ff
 2514 071c 1E        		.uleb128 0x1e
 2515 071d 0000 0717 		.long	0x717
 2516 0721 20        		.uleb128 0x20
 2517 0722 0000 0000 		.long	.LASF99
 2518 0726 48        		.byte	0x48
 2519 0727 0000 0717 		.long	0x717
 2520 072b 20        		.uleb128 0x20
 2521 072c 0000 0000 		.long	.LASF100
 2522 0730 4A        		.byte	0x4a
 2523 0731 0000 0717 		.long	0x717
 2524 0735 21        		.uleb128 0x21
 2525 0736 726F 7700 		.string	"row"
 2526 073a 07        		.byte	0x7
 2527 073b 0000 0085 		.long	0x85
 2528 073f 05        		.uleb128 0x5
 2529 0740 03        		.byte	0x3
 2530 0741 0000 0000 		.long	row


 2531 0745 21        		.uleb128 0x21
 2532 0746 636F 6C00 		.string	"col"
 2533 074a 08        		.byte	0x8
 2534 074b 0000 0085 		.long	0x85
 2535 074f 05        		.uleb128 0x5
 2536 0750 03        		.byte	0x3
 2537 0751 0000 0000 		.long	col
 2538 0755 0E        		.uleb128 0xe
 2539 0756 0000 0000 		.long	.LASF101
 2540 075a 0B        		.byte	0xb
 2541 075b 0E        		.byte	0xe
 2542 075c 0000 0072 		.long	0x72
 2543 0760 05        		.uleb128 0x5
 2544 0761 03        		.byte	0x3
 2545 0762 0000 0000 		.long	seed
 2546 0766 1D        		.uleb128 0x1d
 2547 0767 01        		.byte	0x1
 2548 0768 0D        		.byte	0xd
 2549 0769 0000 0784 		.long	0x784
 2550 076d 08        		.uleb128 0x8
 2551 076e 7800      		.string	"x"
 2552 0770 01        		.byte	0x1
 2553 0771 0E        		.byte	0xe
 2554 0772 09        		.byte	0x9
 2555 0773 0000 0085 		.long	0x85
 2556 0777 00        		.byte	0
 2557 0778 08        		.uleb128 0x8
 2558 0779 7900      		.string	"y"
 2559 077b 01        		.byte	0x1
 2560 077c 0F        		.byte	0xf
 2561 077d 09        		.byte	0x9
 2562 077e 0000 0085 		.long	0x85
 2563 0782 04        		.byte	0x4
 2564 0783 00        		.byte	0
 2565 0784 0C        		.uleb128 0xc
 2566 0785 0000 0000 		.long	.LASF102
 2567 0789 01        		.byte	0x1
 2568 078a 10        		.byte	0x10
 2569 078b 03        		.byte	0x3
 2570 078c 0000 0766 		.long	0x766
 2571 0790 0E        		.uleb128 0xe
 2572 0791 0000 0000 		.long	.LASF103
 2573 0795 13        		.byte	0x13
 2574 0796 0B        		.byte	0xb
 2575 0797 0000 0784 		.long	0x784
 2576 079b 05        		.uleb128 0x5
 2577 079c 03        		.byte	0x3
 2578 079d 0000 0000 		.long	ch_p
 2579 07a1 0B        		.uleb128 0xb
 2580 07a2 0000 0085 		.long	0x85
 2581 07a6 0000 07B7 		.long	0x7b7
 2582 07aa 07        		.uleb128 0x7
 2583 07ab 0000 0049 		.long	0x49
 2584 07af 02        		.byte	0x2
 2585 07b0 07        		.uleb128 0x7
 2586 07b1 0000 0049 		.long	0x49
 2587 07b5 02        		.byte	0x2


 2588 07b6 00        		.byte	0
 2589 07b7 0E        		.uleb128 0xe
 2590 07b8 0000 0000 		.long	.LASF104
 2591 07bc 16        		.byte	0x16
 2592 07bd 05        		.byte	0x5
 2593 07be 0000 07A1 		.long	0x7a1
 2594 07c2 05        		.uleb128 0x5
 2595 07c3 03        		.byte	0x3
 2596 07c4 0000 0000 		.long	matrix
 2597 07c8 0E        		.uleb128 0xe
 2598 07c9 0000 0000 		.long	.LASF105
 2599 07cd 1D        		.byte	0x1d
 2600 07ce 05        		.byte	0x5
 2601 07cf 0000 0085 		.long	0x85
 2602 07d3 05        		.uleb128 0x5
 2603 07d4 03        		.byte	0x3
 2604 07d5 0000 0000 		.long	win_flag
 2605 07d9 0B        		.uleb128 0xb
 2606 07da 0000 048C 		.long	0x48c
 2607 07de 0000 07E9 		.long	0x7e9
 2608 07e2 07        		.uleb128 0x7
 2609 07e3 0000 0049 		.long	0x49
 2610 07e7 01        		.byte	0x1
 2611 07e8 00        		.byte	0
 2612 07e9 0E        		.uleb128 0xe
 2613 07ea 0000 0000 		.long	.LASF106
 2614 07ee 20        		.byte	0x20
 2615 07ef 06        		.byte	0x6
 2616 07f0 0000 07D9 		.long	0x7d9
 2617 07f4 05        		.uleb128 0x5
 2618 07f5 03        		.byte	0x3
 2619 07f6 0000 0000 		.long	input_buf
 2620 07fa 15        		.uleb128 0x15
 2621 07fb 0000 0000 		.long	.LASF107
 2622 07ff 33        		.byte	0x33
 2623 0800 0000 0806 		.long	0x806
 2624 0804 0D        		.uleb128 0xd
 2625 0805 00        		.byte	0
 2626 0806 22        		.uleb128 0x22
 2627 0807 0000 0000 		.long	.LASF110
 2628 080b 07        		.byte	0x7
 2629 080c 31        		.byte	0x31
 2630 080d 0000 0817 		.long	0x817
 2631 0811 04        		.uleb128 0x4
 2632 0812 0000 0712 		.long	0x712
 2633 0816 00        		.byte	0
 2634 0817 15        		.uleb128 0x15
 2635 0818 0000 0000 		.long	.LASF108
 2636 081c 30        		.byte	0x30
 2637 081d 0000 0823 		.long	0x823
 2638 0821 0D        		.uleb128 0xd
 2639 0822 00        		.byte	0
 2640 0823 15        		.uleb128 0x15
 2641 0824 0000 0000 		.long	.LASF109
 2642 0828 4B        		.byte	0x4b
 2643 0829 0000 082F 		.long	0x82f
 2644 082d 0D        		.uleb128 0xd


 2645 082e 00        		.byte	0
 2646 082f 23        		.uleb128 0x23
 2647 0830 5600      		.string	"V"
 2648 0832 3F        		.byte	0x3f
 2649 0833 0000 083D 		.long	0x83d
 2650 0837 04        		.uleb128 0x4
 2651 0838 0000 0085 		.long	0x85
 2652 083c 00        		.byte	0
 2653 083d 23        		.uleb128 0x23
 2654 083e 5000      		.string	"P"
 2655 0840 3E        		.byte	0x3e
 2656 0841 0000 084B 		.long	0x84b
 2657 0845 04        		.uleb128 0x4
 2658 0846 0000 0085 		.long	0x85
 2659 084a 00        		.byte	0
 2660 084b 24        		.uleb128 0x24
 2661 084c 0000 0000 		.long	.LASF112
 2662 0850 01        		.byte	0x1
 2663 0851 04        		.byte	0x4
 2664 0852 0D        		.byte	0xd
 2665 0853 0000 048C 		.long	0x48c
 2666 0857 0000 0861 		.long	0x861
 2667 085b 04        		.uleb128 0x4
 2668 085c 0000 0085 		.long	0x85
 2669 0860 00        		.byte	0
 2670 0861 38        		.uleb128 0x38
 2671 0862 0000 0000 		.long	.LASF135
 2672 0866 08        		.byte	0x8
 2673 0867 90        		.byte	0x90
 2674 0868 05        		.byte	0x5
 2675 0869 0000 0085 		.long	0x85
 2676 086d 22        		.uleb128 0x22
 2677 086e 0000 0000 		.long	.LASF111
 2678 0872 08        		.byte	0x8
 2679 0873 9F        		.byte	0x9f
 2680 0874 0000 087E 		.long	0x87e
 2681 0878 04        		.uleb128 0x4
 2682 0879 0000 0072 		.long	0x72
 2683 087d 00        		.byte	0
 2684 087e 24        		.uleb128 0x24
 2685 087f 0000 0000 		.long	.LASF113
 2686 0883 06        		.byte	0x6
 2687 0884 CA        		.byte	0xca
 2688 0885 05        		.byte	0x5
 2689 0886 0000 0085 		.long	0x85
 2690 088a 0000 089A 		.long	0x89a
 2691 088e 04        		.uleb128 0x4
 2692 088f 0000 071C 		.long	0x71c
 2693 0893 04        		.uleb128 0x4
 2694 0894 0000 04C0 		.long	0x4c0
 2695 0898 0D        		.uleb128 0xd
 2696 0899 00        		.byte	0
 2697 089a 25        		.uleb128 0x25
 2698 089b 0000 0000 		.long	.LASF117
 2699 089f E6        		.byte	0xe6
 2700 08a0 0000 0085 		.long	0x85
 2701 08a4 0000 0000 		.long	.LFB13


 2702 08a8 0000 0050 		.long	.LFE13-.LFB13
 2703 08ac 01        		.uleb128 0x1
 2704 08ad 9C        		.byte	0x9c
 2705 08ae 0000 08F2 		.long	0x8f2
 2706 08b2 01        		.uleb128 0x1
 2707 08b3 0000 0000 		.long	.LVL121
 2708 08b7 0000 0823 		.long	0x823
 2709 08bb 01        		.uleb128 0x1
 2710 08bc 0000 0000 		.long	.LVL122
 2711 08c0 0000 0817 		.long	0x817
 2712 08c4 01        		.uleb128 0x1
 2713 08c5 0000 0000 		.long	.LVL123
 2714 08c9 0000 0CA8 		.long	0xca8
 2715 08cd 01        		.uleb128 0x1
 2716 08ce 0000 0000 		.long	.LVL124
 2717 08d2 0000 0806 		.long	0x806
 2718 08d6 01        		.uleb128 0x1
 2719 08d7 0000 0000 		.long	.LVL125
 2720 08db 0000 0806 		.long	0x806
 2721 08df 01        		.uleb128 0x1
 2722 08e0 0000 0000 		.long	.LVL126
 2723 08e4 0000 0806 		.long	0x806
 2724 08e8 01        		.uleb128 0x1
 2725 08e9 0000 0000 		.long	.LVL127
 2726 08ed 0000 07FA 		.long	0x7fa
 2727 08f1 00        		.byte	0
 2728 08f2 0F        		.uleb128 0xf
 2729 08f3 0000 0000 		.long	.LASF114
 2730 08f7 CD        		.byte	0xcd
 2731 08f8 0000 0000 		.long	.LFB12
 2732 08fc 0000 00E8 		.long	.LFE12-.LFB12
 2733 0900 01        		.uleb128 0x1
 2734 0901 9C        		.byte	0x9c
 2735 0902 0000 09BA 		.long	0x9ba
 2736 0906 26        		.uleb128 0x26
 2737 0907 0000 0000 		.long	.LBB61
 2738 090b 0000 00B6 		.long	.LBE61-.LBB61
 2739 090f 27        		.uleb128 0x27
 2740 0910 6368 00   		.string	"ch"
 2741 0913 CF        		.byte	0xcf
 2742 0914 0000 0085 		.long	0x85
 2743 0918 01        		.byte	0x1
 2744 0919 16        		.uleb128 0x16
 2745 091a 0000 0C82 		.long	0xc82
 2746 091e 0000 0000 		.long	.LBI62
 2747 0922 03        		.byte	.LVU319
 2748 0923 0000 0000 		.long	.LBB62
 2749 0927 0000 0034 		.long	.LBE62-.LBB62
 2750 092b D0        		.byte	0xd0
 2751 092c 0D        		.byte	0xd
 2752 092d 0000 0955 		.long	0x955
 2753 0931 06        		.uleb128 0x6
 2754 0932 0000 0C93 		.long	0xc93
 2755 0936 0000 0000 		.long	.LLST35
 2756 093a 0000 0000 		.long	.LVUS35
 2757 093e 17        		.uleb128 0x17
 2758 093f 0000 0C9D 		.long	0xc9d


 2759 0943 0000 0000 		.long	.LLST36
 2760 0947 0000 0000 		.long	.LVUS36
 2761 094b 01        		.uleb128 0x1
 2762 094c 0000 0000 		.long	.LVL107
 2763 0950 0000 084B 		.long	0x84b
 2764 0954 00        		.byte	0
 2765 0955 01        		.uleb128 0x1
 2766 0956 0000 0000 		.long	.LVL109
 2767 095a 0000 083D 		.long	0x83d
 2768 095e 01        		.uleb128 0x1
 2769 095f 0000 0000 		.long	.LVL110
 2770 0963 0000 083D 		.long	0x83d
 2771 0967 01        		.uleb128 0x1
 2772 0968 0000 0000 		.long	.LVL111
 2773 096c 0000 083D 		.long	0x83d
 2774 0970 01        		.uleb128 0x1
 2775 0971 0000 0000 		.long	.LVL112
 2776 0975 0000 0AA9 		.long	0xaa9
 2777 0979 01        		.uleb128 0x1
 2778 097a 0000 0000 		.long	.LVL113
 2779 097e 0000 082F 		.long	0x82f
 2780 0982 01        		.uleb128 0x1
 2781 0983 0000 0000 		.long	.LVL114
 2782 0987 0000 082F 		.long	0x82f
 2783 098b 01        		.uleb128 0x1
 2784 098c 0000 0000 		.long	.LVL115
 2785 0990 0000 0EE3 		.long	0xee3
 2786 0994 01        		.uleb128 0x1
 2787 0995 0000 0000 		.long	.LVL116
 2788 0999 0000 0EE3 		.long	0xee3
 2789 099d 01        		.uleb128 0x1
 2790 099e 0000 0000 		.long	.LVL117
 2791 09a2 0000 0DEF 		.long	0xdef
 2792 09a6 01        		.uleb128 0x1
 2793 09a7 0000 0000 		.long	.LVL118
 2794 09ab 0000 0CA8 		.long	0xca8
 2795 09af 01        		.uleb128 0x1
 2796 09b0 0000 0000 		.long	.LVL119
 2797 09b4 0000 082F 		.long	0x82f
 2798 09b8 00        		.byte	0
 2799 09b9 00        		.byte	0
 2800 09ba 0F        		.uleb128 0xf
 2801 09bb 0000 0000 		.long	.LASF115
 2802 09bf B3        		.byte	0xb3
 2803 09c0 0000 0000 		.long	.LFB11
 2804 09c4 0000 00EA 		.long	.LFE11-.LFB11
 2805 09c8 01        		.uleb128 0x1
 2806 09c9 9C        		.byte	0x9c
 2807 09ca 0000 0A82 		.long	0xa82
 2808 09ce 26        		.uleb128 0x26
 2809 09cf 0000 0000 		.long	.LBB55
 2810 09d3 0000 00B2 		.long	.LBE55-.LBB55
 2811 09d7 27        		.uleb128 0x27
 2812 09d8 6368 00   		.string	"ch"
 2813 09db B5        		.byte	0xb5
 2814 09dc 0000 0085 		.long	0x85
 2815 09e0 00        		.byte	0


 2816 09e1 16        		.uleb128 0x16
 2817 09e2 0000 0C82 		.long	0xc82
 2818 09e6 0000 0000 		.long	.LBI56
 2819 09ea 03        		.byte	.LVU288
 2820 09eb 0000 0000 		.long	.LBB56
 2821 09ef 0000 002E 		.long	.LBE56-.LBB56
 2822 09f3 B6        		.byte	0xb6
 2823 09f4 0D        		.byte	0xd
 2824 09f5 0000 0A1D 		.long	0xa1d
 2825 09f9 06        		.uleb128 0x6
 2826 09fa 0000 0C93 		.long	0xc93
 2827 09fe 0000 0000 		.long	.LLST33
 2828 0a02 0000 0000 		.long	.LVUS33
 2829 0a06 17        		.uleb128 0x17
 2830 0a07 0000 0C9D 		.long	0xc9d
 2831 0a0b 0000 0000 		.long	.LLST34
 2832 0a0f 0000 0000 		.long	.LVUS34
 2833 0a13 01        		.uleb128 0x1
 2834 0a14 0000 0000 		.long	.LVL92
 2835 0a18 0000 084B 		.long	0x84b
 2836 0a1c 00        		.byte	0
 2837 0a1d 01        		.uleb128 0x1
 2838 0a1e 0000 0000 		.long	.LVL94
 2839 0a22 0000 083D 		.long	0x83d
 2840 0a26 01        		.uleb128 0x1
 2841 0a27 0000 0000 		.long	.LVL95
 2842 0a2b 0000 083D 		.long	0x83d
 2843 0a2f 01        		.uleb128 0x1
 2844 0a30 0000 0000 		.long	.LVL96
 2845 0a34 0000 083D 		.long	0x83d
 2846 0a38 01        		.uleb128 0x1
 2847 0a39 0000 0000 		.long	.LVL97
 2848 0a3d 0000 0AA9 		.long	0xaa9
 2849 0a41 01        		.uleb128 0x1
 2850 0a42 0000 0000 		.long	.LVL98
 2851 0a46 0000 082F 		.long	0x82f
 2852 0a4a 01        		.uleb128 0x1
 2853 0a4b 0000 0000 		.long	.LVL99
 2854 0a4f 0000 082F 		.long	0x82f
 2855 0a53 01        		.uleb128 0x1
 2856 0a54 0000 0000 		.long	.LVL100
 2857 0a58 0000 0EE3 		.long	0xee3
 2858 0a5c 01        		.uleb128 0x1
 2859 0a5d 0000 0000 		.long	.LVL101
 2860 0a61 0000 0EE3 		.long	0xee3
 2861 0a65 01        		.uleb128 0x1
 2862 0a66 0000 0000 		.long	.LVL102
 2863 0a6a 0000 0DEF 		.long	0xdef
 2864 0a6e 01        		.uleb128 0x1
 2865 0a6f 0000 0000 		.long	.LVL103
 2866 0a73 0000 0CA8 		.long	0xca8
 2867 0a77 01        		.uleb128 0x1
 2868 0a78 0000 0000 		.long	.LVL104
 2869 0a7c 0000 082F 		.long	0x82f
 2870 0a80 00        		.byte	0
 2871 0a81 00        		.byte	0
 2872 0a82 0F        		.uleb128 0xf


 2873 0a83 0000 0000 		.long	.LASF116
 2874 0a87 AC        		.byte	0xac
 2875 0a88 0000 0000 		.long	.LFB10
 2876 0a8c 0000 001A 		.long	.LFE10-.LFB10
 2877 0a90 01        		.uleb128 0x1
 2878 0a91 9C        		.byte	0x9c
 2879 0a92 0000 0AA9 		.long	0xaa9
 2880 0a96 01        		.uleb128 0x1
 2881 0a97 0000 0000 		.long	.LVL0
 2882 0a9b 0000 0861 		.long	0x861
 2883 0a9f 01        		.uleb128 0x1
 2884 0aa0 0000 0000 		.long	.LVL1
 2885 0aa4 0000 0861 		.long	0x861
 2886 0aa8 00        		.byte	0
 2887 0aa9 39        		.uleb128 0x39
 2888 0aaa 0000 0000 		.long	.LASF118
 2889 0aae 01        		.byte	0x1
 2890 0aaf 87        		.byte	0x87
 2891 0ab0 06        		.byte	0x6
 2892 0ab1 0000 0000 		.long	.LFB9
 2893 0ab5 0000 0296 		.long	.LFE9-.LFB9
 2894 0ab9 01        		.uleb128 0x1
 2895 0aba 9C        		.byte	0x9c
 2896 0abb 0000 0BFE 		.long	0xbfe
 2897 0abf 3A        		.uleb128 0x3a
 2898 0ac0 6368 00   		.string	"ch"
 2899 0ac3 01        		.byte	0x1
 2900 0ac4 87        		.byte	0x87
 2901 0ac5 17        		.byte	0x17
 2902 0ac6 0000 0085 		.long	0x85
 2903 0aca 02        		.uleb128 0x2
 2904 0acb 91        		.byte	0x91
 2905 0acc 00        		.sleb128 0
 2906 0acd 09        		.uleb128 0x9
 2907 0ace 6300      		.string	"c"
 2908 0ad0 88        		.byte	0x88
 2909 0ad1 0A        		.byte	0xa
 2910 0ad2 0000 048C 		.long	0x48c
 2911 0ad6 0000 0000 		.long	.LLST15
 2912 0ada 0000 0000 		.long	.LVUS15
 2913 0ade 09        		.uleb128 0x9
 2914 0adf 7800      		.string	"x"
 2915 0ae1 98        		.byte	0x98
 2916 0ae2 09        		.byte	0x9
 2917 0ae3 0000 0085 		.long	0x85
 2918 0ae7 0000 0000 		.long	.LLST16
 2919 0aeb 0000 0000 		.long	.LVUS16
 2920 0aef 09        		.uleb128 0x9
 2921 0af0 7900      		.string	"y"
 2922 0af2 99        		.byte	0x99
 2923 0af3 09        		.byte	0x9
 2924 0af4 0000 0085 		.long	0x85
 2925 0af8 0000 0000 		.long	.LLST17
 2926 0afc 0000 0000 		.long	.LVUS17
 2927 0b00 10        		.uleb128 0x10
 2928 0b01 0000 0BFE 		.long	0xbfe
 2929 0b05 0000 0000 		.long	.LBI32


 2930 0b09 03        		.byte	.LVU158
 2931 0b0a 0000 0000 		.long	.LLRL18
 2932 0b0e 9C        		.byte	0x9c
 2933 0b0f 05        		.byte	0x5
 2934 0b10 0000 0B2F 		.long	0xb2f
 2935 0b14 06        		.uleb128 0x6
 2936 0b15 0000 0C11 		.long	0xc11
 2937 0b19 0000 0000 		.long	.LLST19
 2938 0b1d 0000 0000 		.long	.LVUS19
 2939 0b21 06        		.uleb128 0x6
 2940 0b22 0000 0C08 		.long	0xc08
 2941 0b26 0000 0000 		.long	.LLST20
 2942 0b2a 0000 0000 		.long	.LVUS20
 2943 0b2e 00        		.byte	0
 2944 0b2f 10        		.uleb128 0x10
 2945 0b30 0000 0BFE 		.long	0xbfe
 2946 0b34 0000 0000 		.long	.LBI36
 2947 0b38 01        		.byte	.LVU202
 2948 0b39 0000 0000 		.long	.LLRL21
 2949 0b3d 9E        		.byte	0x9e
 2950 0b3e 15        		.byte	0x15
 2951 0b3f 0000 0B5E 		.long	0xb5e
 2952 0b43 06        		.uleb128 0x6
 2953 0b44 0000 0C11 		.long	0xc11
 2954 0b48 0000 0000 		.long	.LLST22
 2955 0b4c 0000 0000 		.long	.LVUS22
 2956 0b50 06        		.uleb128 0x6
 2957 0b51 0000 0C08 		.long	0xc08
 2958 0b55 0000 0000 		.long	.LLST23
 2959 0b59 0000 0000 		.long	.LVUS23
 2960 0b5d 00        		.byte	0
 2961 0b5e 10        		.uleb128 0x10
 2962 0b5f 0000 0BFE 		.long	0xbfe
 2963 0b63 0000 0000 		.long	.LBI39
 2964 0b67 00        		.byte	.LVU213
 2965 0b68 0000 0000 		.long	.LLRL24
 2966 0b6c 9D        		.byte	0x9d
 2967 0b6d 15        		.byte	0x15
 2968 0b6e 0000 0B8D 		.long	0xb8d
 2969 0b72 06        		.uleb128 0x6
 2970 0b73 0000 0C11 		.long	0xc11
 2971 0b77 0000 0000 		.long	.LLST25
 2972 0b7b 0000 0000 		.long	.LVUS25
 2973 0b7f 06        		.uleb128 0x6
 2974 0b80 0000 0C08 		.long	0xc08
 2975 0b84 0000 0000 		.long	.LLST26
 2976 0b88 0000 0000 		.long	.LVUS26
 2977 0b8c 00        		.byte	0
 2978 0b8d 10        		.uleb128 0x10
 2979 0b8e 0000 0BFE 		.long	0xbfe
 2980 0b92 0000 0000 		.long	.LBI42
 2981 0b96 01        		.byte	.LVU224
 2982 0b97 0000 0000 		.long	.LLRL27
 2983 0b9b A0        		.byte	0xa0
 2984 0b9c 15        		.byte	0x15
 2985 0b9d 0000 0BBC 		.long	0xbbc
 2986 0ba1 06        		.uleb128 0x6


 2987 0ba2 0000 0C11 		.long	0xc11
 2988 0ba6 0000 0000 		.long	.LLST28
 2989 0baa 0000 0000 		.long	.LVUS28
 2990 0bae 06        		.uleb128 0x6
 2991 0baf 0000 0C08 		.long	0xc08
 2992 0bb3 0000 0000 		.long	.LLST29
 2993 0bb7 0000 0000 		.long	.LVUS29
 2994 0bbb 00        		.byte	0
 2995 0bbc 10        		.uleb128 0x10
 2996 0bbd 0000 0BFE 		.long	0xbfe
 2997 0bc1 0000 0000 		.long	.LBI45
 2998 0bc5 00        		.byte	.LVU232
 2999 0bc6 0000 0000 		.long	.LLRL30
 3000 0bca 9F        		.byte	0x9f
 3001 0bcb 15        		.byte	0x15
 3002 0bcc 0000 0BEB 		.long	0xbeb
 3003 0bd0 06        		.uleb128 0x6
 3004 0bd1 0000 0C11 		.long	0xc11
 3005 0bd5 0000 0000 		.long	.LLST31
 3006 0bd9 0000 0000 		.long	.LVUS31
 3007 0bdd 06        		.uleb128 0x6
 3008 0bde 0000 0C08 		.long	0xc08
 3009 0be2 0000 0000 		.long	.LLST32
 3010 0be6 0000 0000 		.long	.LVUS32
 3011 0bea 00        		.byte	0
 3012 0beb 01        		.uleb128 0x1
 3013 0bec 0000 0000 		.long	.LVL65
 3014 0bf0 0000 0CA8 		.long	0xca8
 3015 0bf4 01        		.uleb128 0x1
 3016 0bf5 0000 0000 		.long	.LVL66
 3017 0bf9 0000 0C1B 		.long	0xc1b
 3018 0bfd 00        		.byte	0
 3019 0bfe 28        		.uleb128 0x28
 3020 0bff 0000 0000 		.long	.LASF119
 3021 0c03 7E        		.byte	0x7e
 3022 0c04 0000 0C1B 		.long	0xc1b
 3023 0c08 18        		.uleb128 0x18
 3024 0c09 7800      		.string	"x"
 3025 0c0b 7E        		.byte	0x7e
 3026 0c0c 15        		.byte	0x15
 3027 0c0d 0000 0085 		.long	0x85
 3028 0c11 18        		.uleb128 0x18
 3029 0c12 7900      		.string	"y"
 3030 0c14 7E        		.byte	0x7e
 3031 0c15 1C        		.byte	0x1c
 3032 0c16 0000 0085 		.long	0x85
 3033 0c1a 00        		.byte	0
 3034 0c1b 25        		.uleb128 0x25
 3035 0c1c 0000 0000 		.long	.LASF120
 3036 0c20 6C        		.byte	0x6c
 3037 0c21 0000 0085 		.long	0x85
 3038 0c25 0000 0000 		.long	.LFB7
 3039 0c29 0000 0062 		.long	.LFE7-.LFB7
 3040 0c2d 01        		.uleb128 0x1
 3041 0c2e 9C        		.byte	0x9c
 3042 0c2f 0000 0C82 		.long	0xc82
 3043 0c33 09        		.uleb128 0x9


 3044 0c34 636E 7400 		.string	"cnt"
 3045 0c38 6D        		.byte	0x6d
 3046 0c39 09        		.byte	0x9
 3047 0c3a 0000 0085 		.long	0x85
 3048 0c3e 0000 0000 		.long	.LLST10
 3049 0c42 0000 0000 		.long	.LVUS10
 3050 0c46 29        		.uleb128 0x29
 3051 0c47 0000 0000 		.long	.LLRL11
 3052 0c4b 0000 0C78 		.long	0xc78
 3053 0c4f 09        		.uleb128 0x9
 3054 0c50 6900      		.string	"i"
 3055 0c52 6E        		.byte	0x6e
 3056 0c53 0E        		.byte	0xe
 3057 0c54 0000 0085 		.long	0x85
 3058 0c58 0000 0000 		.long	.LLST12
 3059 0c5c 0000 0000 		.long	.LVUS12
 3060 0c60 2A        		.uleb128 0x2a
 3061 0c61 0000 0000 		.long	.LLRL13
 3062 0c65 09        		.uleb128 0x9
 3063 0c66 6A00      		.string	"j"
 3064 0c68 6F        		.byte	0x6f
 3065 0c69 12        		.byte	0x12
 3066 0c6a 0000 0085 		.long	0x85
 3067 0c6e 0000 0000 		.long	.LLST14
 3068 0c72 0000 0000 		.long	.LVUS14
 3069 0c76 00        		.byte	0
 3070 0c77 00        		.byte	0
 3071 0c78 01        		.uleb128 0x1
 3072 0c79 0000 0000 		.long	.LVL57
 3073 0c7d 0000 0EEC 		.long	0xeec
 3074 0c81 00        		.byte	0
 3075 0c82 3B        		.uleb128 0x3b
 3076 0c83 0000 0000 		.long	.LASF121
 3077 0c87 01        		.byte	0x1
 3078 0c88 57        		.byte	0x57
 3079 0c89 05        		.byte	0x5
 3080 0c8a 0000 0085 		.long	0x85
 3081 0c8e 01        		.byte	0x1
 3082 0c8f 0000 0CA8 		.long	0xca8
 3083 0c93 18        		.uleb128 0x18
 3084 0c94 6368 00   		.string	"ch"
 3085 0c97 57        		.byte	0x57
 3086 0c98 0F        		.byte	0xf
 3087 0c99 0000 0085 		.long	0x85
 3088 0c9d 3C        		.uleb128 0x3c
 3089 0c9e 6300      		.string	"c"
 3090 0ca0 01        		.byte	0x1
 3091 0ca1 58        		.byte	0x58
 3092 0ca2 0A        		.byte	0xa
 3093 0ca3 0000 048C 		.long	0x48c
 3094 0ca7 00        		.byte	0
 3095 0ca8 0F        		.uleb128 0xf
 3096 0ca9 0000 0000 		.long	.LASF122
 3097 0cad 35        		.byte	0x35
 3098 0cae 0000 0000 		.long	.LFB5
 3099 0cb2 0000 0194 		.long	.LFE5-.LFB5
 3100 0cb6 01        		.uleb128 0x1


 3101 0cb7 9C        		.byte	0x9c
 3102 0cb8 0000 0DEF 		.long	0xdef
 3103 0cbc 13        		.uleb128 0x13
 3104 0cbd 0000 0000 		.long	.LBB12
 3105 0cc1 0000 0040 		.long	.LBE12-.LBB12
 3106 0cc5 0000 0CED 		.long	0xced
 3107 0cc9 09        		.uleb128 0x9
 3108 0cca 6900      		.string	"i"
 3109 0ccc 37        		.byte	0x37
 3110 0ccd 0E        		.byte	0xe
 3111 0cce 0000 0085 		.long	0x85
 3112 0cd2 0000 0000 		.long	.LLST4
 3113 0cd6 0000 0000 		.long	.LVUS4
 3114 0cda 01        		.uleb128 0x1
 3115 0cdb 0000 0000 		.long	.LVL17
 3116 0cdf 0000 0EF5 		.long	0xef5
 3117 0ce3 01        		.uleb128 0x1
 3118 0ce4 0000 0000 		.long	.LVL18
 3119 0ce8 0000 0EF5 		.long	0xef5
 3120 0cec 00        		.byte	0
 3121 0ced 13        		.uleb128 0x13
 3122 0cee 0000 0000 		.long	.LBB13
 3123 0cf2 0000 00BE 		.long	.LBE13-.LBB13
 3124 0cf6 0000 0D61 		.long	0xd61
 3125 0cfa 09        		.uleb128 0x9
 3126 0cfb 6900      		.string	"i"
 3127 0cfd 3F        		.byte	0x3f
 3128 0cfe 0E        		.byte	0xe
 3129 0cff 0000 0085 		.long	0x85
 3130 0d03 0000 0000 		.long	.LLST5
 3131 0d07 0000 0000 		.long	.LVUS5
 3132 0d0b 13        		.uleb128 0x13
 3133 0d0c 0000 0000 		.long	.LBB14
 3134 0d10 0000 003E 		.long	.LBE14-.LBB14
 3135 0d14 0000 0D3C 		.long	0xd3c
 3136 0d18 09        		.uleb128 0x9
 3137 0d19 6A00      		.string	"j"
 3138 0d1b 42        		.byte	0x42
 3139 0d1c 12        		.byte	0x12
 3140 0d1d 0000 0085 		.long	0x85
 3141 0d21 0000 0000 		.long	.LLST6
 3142 0d25 0000 0000 		.long	.LVUS6
 3143 0d29 01        		.uleb128 0x1
 3144 0d2a 0000 0000 		.long	.LVL27
 3145 0d2e 0000 0EFE 		.long	0xefe
 3146 0d32 01        		.uleb128 0x1
 3147 0d33 0000 0000 		.long	.LVL28
 3148 0d37 0000 0EFE 		.long	0xefe
 3149 0d3b 00        		.byte	0
 3150 0d3c 01        		.uleb128 0x1
 3151 0d3d 0000 0000 		.long	.LVL24
 3152 0d41 0000 0EF5 		.long	0xef5
 3153 0d45 01        		.uleb128 0x1
 3154 0d46 0000 0000 		.long	.LVL25
 3155 0d4a 0000 0EF5 		.long	0xef5
 3156 0d4e 01        		.uleb128 0x1
 3157 0d4f 0000 0000 		.long	.LVL31


 3158 0d53 0000 0EE3 		.long	0xee3
 3159 0d57 01        		.uleb128 0x1
 3160 0d58 0000 0000 		.long	.LVL32
 3161 0d5c 0000 0EE3 		.long	0xee3
 3162 0d60 00        		.byte	0
 3163 0d61 13        		.uleb128 0x13
 3164 0d62 0000 0000 		.long	.LBB15
 3165 0d66 0000 0034 		.long	.LBE15-.LBB15
 3166 0d6a 0000 0D92 		.long	0xd92
 3167 0d6e 09        		.uleb128 0x9
 3168 0d6f 6900      		.string	"i"
 3169 0d71 4B        		.byte	0x4b
 3170 0d72 0E        		.byte	0xe
 3171 0d73 0000 0085 		.long	0x85
 3172 0d77 0000 0000 		.long	.LLST7
 3173 0d7b 0000 0000 		.long	.LVUS7
 3174 0d7f 01        		.uleb128 0x1
 3175 0d80 0000 0000 		.long	.LVL36
 3176 0d84 0000 0EF5 		.long	0xef5
 3177 0d88 01        		.uleb128 0x1
 3178 0d89 0000 0000 		.long	.LVL37
 3179 0d8d 0000 0EF5 		.long	0xef5
 3180 0d91 00        		.byte	0
 3181 0d92 16        		.uleb128 0x16
 3182 0d93 0000 0E48 		.long	0xe48
 3183 0d97 0000 0000 		.long	.LBI16
 3184 0d9b 01        		.byte	.LVU81
 3185 0d9c 0000 0000 		.long	.LBB16
 3186 0da0 0000 0024 		.long	.LBE16-.LBB16
 3187 0da4 53        		.byte	0x53
 3188 0da5 05        		.byte	0x5
 3189 0da6 0000 0DCA 		.long	0xdca
 3190 0daa 06        		.uleb128 0x6
 3191 0dab 0000 0E52 		.long	0xe52
 3192 0daf 0000 0000 		.long	.LLST8
 3193 0db3 0000 0000 		.long	.LVUS8
 3194 0db7 01        		.uleb128 0x1
 3195 0db8 0000 0000 		.long	.LVL42
 3196 0dbc 0000 0EFE 		.long	0xefe
 3197 0dc0 01        		.uleb128 0x1
 3198 0dc1 0000 0000 		.long	.LVL43
 3199 0dc5 0000 0EFE 		.long	0xefe
 3200 0dc9 00        		.byte	0
 3201 0dca 01        		.uleb128 0x1
 3202 0dcb 0000 0000 		.long	.LVL21
 3203 0dcf 0000 0EF5 		.long	0xef5
 3204 0dd3 01        		.uleb128 0x1
 3205 0dd4 0000 0000 		.long	.LVL22
 3206 0dd8 0000 0EF5 		.long	0xef5
 3207 0ddc 01        		.uleb128 0x1
 3208 0ddd 0000 0000 		.long	.LVL40
 3209 0de1 0000 0EF5 		.long	0xef5
 3210 0de5 01        		.uleb128 0x1
 3211 0de6 0000 0000 		.long	.LVL41
 3212 0dea 0000 0EF5 		.long	0xef5
 3213 0dee 00        		.byte	0
 3214 0def 0F        		.uleb128 0xf


 3215 0df0 0000 0000 		.long	.LASF123
 3216 0df4 2A        		.byte	0x2a
 3217 0df5 0000 0000 		.long	.LFB4
 3218 0df9 0000 0078 		.long	.LFE4-.LFB4
 3219 0dfd 01        		.uleb128 0x1
 3220 0dfe 9C        		.byte	0x9c
 3221 0dff 0000 0E48 		.long	0xe48
 3222 0e03 29        		.uleb128 0x29
 3223 0e04 0000 0000 		.long	.LLRL0
 3224 0e08 0000 0E3E 		.long	0xe3e
 3225 0e0c 09        		.uleb128 0x9
 3226 0e0d 6900      		.string	"i"
 3227 0e0f 2D        		.byte	0x2d
 3228 0e10 0E        		.byte	0xe
 3229 0e11 0000 0085 		.long	0x85
 3230 0e15 0000 0000 		.long	.LLST1
 3231 0e19 0000 0000 		.long	.LVUS1
 3232 0e1d 2A        		.uleb128 0x2a
 3233 0e1e 0000 0000 		.long	.LLRL2
 3234 0e22 09        		.uleb128 0x9
 3235 0e23 6A00      		.string	"j"
 3236 0e25 2E        		.byte	0x2e
 3237 0e26 12        		.byte	0x12
 3238 0e27 0000 0085 		.long	0x85
 3239 0e2b 0000 0000 		.long	.LLST3
 3240 0e2f 0000 0000 		.long	.LVUS3
 3241 0e33 01        		.uleb128 0x1
 3242 0e34 0000 0000 		.long	.LVL8
 3243 0e38 0000 0861 		.long	0x861
 3244 0e3c 00        		.byte	0
 3245 0e3d 00        		.byte	0
 3246 0e3e 01        		.uleb128 0x1
 3247 0e3f 0000 0000 		.long	.LVL5
 3248 0e43 0000 086D 		.long	0x86d
 3249 0e47 00        		.byte	0
 3250 0e48 28        		.uleb128 0x28
 3251 0e49 0000 0000 		.long	.LASF124
 3252 0e4d 23        		.byte	0x23
 3253 0e4e 0000 0E5F 		.long	0xe5f
 3254 0e52 3D        		.uleb128 0x3d
 3255 0e53 0000 0000 		.long	.LASF125
 3256 0e57 01        		.byte	0x1
 3257 0e58 23        		.byte	0x23
 3258 0e59 14        		.byte	0x14
 3259 0e5a 0000 0085 		.long	0x85
 3260 0e5e 00        		.byte	0
 3261 0e5f 19        		.uleb128 0x19
 3262 0e60 0000 0E48 		.long	0xe48
 3263 0e64 0000 0000 		.long	.LFB3
 3264 0e68 0000 0038 		.long	.LFE3-.LFB3
 3265 0e6c 01        		.uleb128 0x1
 3266 0e6d 9C        		.byte	0x9c
 3267 0e6e 0000 0E8D 		.long	0xe8d
 3268 0e72 14        		.uleb128 0x14
 3269 0e73 0000 0E52 		.long	0xe52
 3270 0e77 02        		.uleb128 0x2
 3271 0e78 91        		.byte	0x91


 3272 0e79 00        		.sleb128 0
 3273 0e7a 01        		.uleb128 0x1
 3274 0e7b 0000 0000 		.long	.LVL3
 3275 0e7f 0000 0EFE 		.long	0xefe
 3276 0e83 01        		.uleb128 0x1
 3277 0e84 0000 0000 		.long	.LVL4
 3278 0e88 0000 0EFE 		.long	0xefe
 3279 0e8c 00        		.byte	0
 3280 0e8d 19        		.uleb128 0x19
 3281 0e8e 0000 0C82 		.long	0xc82
 3282 0e92 0000 0000 		.long	.LFB6
 3283 0e96 0000 005A 		.long	.LFE6-.LFB6
 3284 0e9a 01        		.uleb128 0x1
 3285 0e9b 9C        		.byte	0x9c
 3286 0e9c 0000 0EBF 		.long	0xebf
 3287 0ea0 14        		.uleb128 0x14
 3288 0ea1 0000 0C93 		.long	0xc93
 3289 0ea5 02        		.uleb128 0x2
 3290 0ea6 91        		.byte	0x91
 3291 0ea7 00        		.sleb128 0
 3292 0ea8 17        		.uleb128 0x17
 3293 0ea9 0000 0C9D 		.long	0xc9d
 3294 0ead 0000 0000 		.long	.LLST9
 3295 0eb1 0000 0000 		.long	.LVUS9
 3296 0eb5 01        		.uleb128 0x1
 3297 0eb6 0000 0000 		.long	.LVL45
 3298 0eba 0000 084B 		.long	0x84b
 3299 0ebe 00        		.byte	0
 3300 0ebf 19        		.uleb128 0x19
 3301 0ec0 0000 0BFE 		.long	0xbfe
 3302 0ec4 0000 0000 		.long	.LFB8
 3303 0ec8 0000 0036 		.long	.LFE8-.LFB8
 3304 0ecc 01        		.uleb128 0x1
 3305 0ecd 9C        		.byte	0x9c
 3306 0ece 0000 0EE3 		.long	0xee3
 3307 0ed2 14        		.uleb128 0x14
 3308 0ed3 0000 0C08 		.long	0xc08
 3309 0ed7 02        		.uleb128 0x2
 3310 0ed8 91        		.byte	0x91
 3311 0ed9 00        		.sleb128 0
 3312 0eda 14        		.uleb128 0x14
 3313 0edb 0000 0C11 		.long	0xc11
 3314 0edf 02        		.uleb128 0x2
 3315 0ee0 91        		.byte	0x91
 3316 0ee1 04        		.sleb128 4
 3317 0ee2 00        		.byte	0
 3318 0ee3 1A        		.uleb128 0x1a
 3319 0ee4 0000 0000 		.long	.LASF126
 3320 0ee8 0000 0000 		.long	.LASF128
 3321 0eec 3E        		.uleb128 0x3e
 3322 0eed 0000 0000 		.long	.LASF136
 3323 0ef1 0000 0000 		.long	.LASF136
 3324 0ef5 1A        		.uleb128 0x1a
 3325 0ef6 0000 0000 		.long	.LASF127
 3326 0efa 0000 0000 		.long	.LASF129
 3327 0efe 1A        		.uleb128 0x1a
 3328 0eff 0000 0000 		.long	.LASF113


 3329 0f03 0000 0000 		.long	.LASF130
 3330 0f07 00        		.byte	0
 3331               		.section	.debug_abbrev,"",@progbits
 3332               	.Ldebug_abbrev0:
 3333 0000 01        		.uleb128 0x1
 3334 0001 48        		.uleb128 0x48
 3335 0002 00        		.byte	0
 3336 0003 7D        		.uleb128 0x7d
 3337 0004 01        		.uleb128 0x1
 3338 0005 7F        		.uleb128 0x7f
 3339 0006 13        		.uleb128 0x13
 3340 0007 00        		.byte	0
 3341 0008 00        		.byte	0
 3342 0009 02        		.uleb128 0x2
 3343 000a 0D        		.uleb128 0xd
 3344 000b 00        		.byte	0
 3345 000c 03        		.uleb128 0x3
 3346 000d 0E        		.uleb128 0xe
 3347 000e 3A        		.uleb128 0x3a
 3348 000f 21        		.uleb128 0x21
 3349 0010 04        		.sleb128 4
 3350 0011 3B        		.uleb128 0x3b
 3351 0012 05        		.uleb128 0x5
 3352 0013 39        		.uleb128 0x39
 3353 0014 0B        		.uleb128 0xb
 3354 0015 49        		.uleb128 0x49
 3355 0016 13        		.uleb128 0x13
 3356 0017 38        		.uleb128 0x38
 3357 0018 0B        		.uleb128 0xb
 3358 0019 00        		.byte	0
 3359 001a 00        		.byte	0
 3360 001b 03        		.uleb128 0x3
 3361 001c 0D        		.uleb128 0xd
 3362 001d 00        		.byte	0
 3363 001e 03        		.uleb128 0x3
 3364 001f 0E        		.uleb128 0xe
 3365 0020 3A        		.uleb128 0x3a
 3366 0021 0B        		.uleb128 0xb
 3367 0022 3B        		.uleb128 0x3b
 3368 0023 0B        		.uleb128 0xb
 3369 0024 39        		.uleb128 0x39
 3370 0025 0B        		.uleb128 0xb
 3371 0026 49        		.uleb128 0x49
 3372 0027 13        		.uleb128 0x13
 3373 0028 38        		.uleb128 0x38
 3374 0029 0B        		.uleb128 0xb
 3375 002a 00        		.byte	0
 3376 002b 00        		.byte	0
 3377 002c 04        		.uleb128 0x4
 3378 002d 05        		.uleb128 0x5
 3379 002e 00        		.byte	0
 3380 002f 49        		.uleb128 0x49
 3381 0030 13        		.uleb128 0x13
 3382 0031 00        		.byte	0
 3383 0032 00        		.byte	0
 3384 0033 05        		.uleb128 0x5
 3385 0034 0F        		.uleb128 0xf


 3386 0035 00        		.byte	0
 3387 0036 0B        		.uleb128 0xb
 3388 0037 21        		.uleb128 0x21
 3389 0038 04        		.sleb128 4
 3390 0039 49        		.uleb128 0x49
 3391 003a 13        		.uleb128 0x13
 3392 003b 00        		.byte	0
 3393 003c 00        		.byte	0
 3394 003d 06        		.uleb128 0x6
 3395 003e 05        		.uleb128 0x5
 3396 003f 00        		.byte	0
 3397 0040 31        		.uleb128 0x31
 3398 0041 13        		.uleb128 0x13
 3399 0042 02        		.uleb128 0x2
 3400 0043 17        		.uleb128 0x17
 3401 0044 B742      		.uleb128 0x2137
 3402 0046 17        		.uleb128 0x17
 3403 0047 00        		.byte	0
 3404 0048 00        		.byte	0
 3405 0049 07        		.uleb128 0x7
 3406 004a 21        		.uleb128 0x21
 3407 004b 00        		.byte	0
 3408 004c 49        		.uleb128 0x49
 3409 004d 13        		.uleb128 0x13
 3410 004e 2F        		.uleb128 0x2f
 3411 004f 0B        		.uleb128 0xb
 3412 0050 00        		.byte	0
 3413 0051 00        		.byte	0
 3414 0052 08        		.uleb128 0x8
 3415 0053 0D        		.uleb128 0xd
 3416 0054 00        		.byte	0
 3417 0055 03        		.uleb128 0x3
 3418 0056 08        		.uleb128 0x8
 3419 0057 3A        		.uleb128 0x3a
 3420 0058 0B        		.uleb128 0xb
 3421 0059 3B        		.uleb128 0x3b
 3422 005a 0B        		.uleb128 0xb
 3423 005b 39        		.uleb128 0x39
 3424 005c 0B        		.uleb128 0xb
 3425 005d 49        		.uleb128 0x49
 3426 005e 13        		.uleb128 0x13
 3427 005f 38        		.uleb128 0x38
 3428 0060 0B        		.uleb128 0xb
 3429 0061 00        		.byte	0
 3430 0062 00        		.byte	0
 3431 0063 09        		.uleb128 0x9
 3432 0064 34        		.uleb128 0x34
 3433 0065 00        		.byte	0
 3434 0066 03        		.uleb128 0x3
 3435 0067 08        		.uleb128 0x8
 3436 0068 3A        		.uleb128 0x3a
 3437 0069 21        		.uleb128 0x21
 3438 006a 01        		.sleb128 1
 3439 006b 3B        		.uleb128 0x3b
 3440 006c 0B        		.uleb128 0xb
 3441 006d 39        		.uleb128 0x39
 3442 006e 0B        		.uleb128 0xb


 3443 006f 49        		.uleb128 0x49
 3444 0070 13        		.uleb128 0x13
 3445 0071 02        		.uleb128 0x2
 3446 0072 17        		.uleb128 0x17
 3447 0073 B742      		.uleb128 0x2137
 3448 0075 17        		.uleb128 0x17
 3449 0076 00        		.byte	0
 3450 0077 00        		.byte	0
 3451 0078 0A        		.uleb128 0xa
 3452 0079 24        		.uleb128 0x24
 3453 007a 00        		.byte	0
 3454 007b 0B        		.uleb128 0xb
 3455 007c 0B        		.uleb128 0xb
 3456 007d 3E        		.uleb128 0x3e
 3457 007e 0B        		.uleb128 0xb
 3458 007f 03        		.uleb128 0x3
 3459 0080 0E        		.uleb128 0xe
 3460 0081 00        		.byte	0
 3461 0082 00        		.byte	0
 3462 0083 0B        		.uleb128 0xb
 3463 0084 01        		.uleb128 0x1
 3464 0085 01        		.byte	0x1
 3465 0086 49        		.uleb128 0x49
 3466 0087 13        		.uleb128 0x13
 3467 0088 01        		.uleb128 0x1
 3468 0089 13        		.uleb128 0x13
 3469 008a 00        		.byte	0
 3470 008b 00        		.byte	0
 3471 008c 0C        		.uleb128 0xc
 3472 008d 16        		.uleb128 0x16
 3473 008e 00        		.byte	0
 3474 008f 03        		.uleb128 0x3
 3475 0090 0E        		.uleb128 0xe
 3476 0091 3A        		.uleb128 0x3a
 3477 0092 0B        		.uleb128 0xb
 3478 0093 3B        		.uleb128 0x3b
 3479 0094 0B        		.uleb128 0xb
 3480 0095 39        		.uleb128 0x39
 3481 0096 0B        		.uleb128 0xb
 3482 0097 49        		.uleb128 0x49
 3483 0098 13        		.uleb128 0x13
 3484 0099 00        		.byte	0
 3485 009a 00        		.byte	0
 3486 009b 0D        		.uleb128 0xd
 3487 009c 18        		.uleb128 0x18
 3488 009d 00        		.byte	0
 3489 009e 00        		.byte	0
 3490 009f 00        		.byte	0
 3491 00a0 0E        		.uleb128 0xe
 3492 00a1 34        		.uleb128 0x34
 3493 00a2 00        		.byte	0
 3494 00a3 03        		.uleb128 0x3
 3495 00a4 0E        		.uleb128 0xe
 3496 00a5 3A        		.uleb128 0x3a
 3497 00a6 21        		.uleb128 0x21
 3498 00a7 01        		.sleb128 1
 3499 00a8 3B        		.uleb128 0x3b


 3500 00a9 0B        		.uleb128 0xb
 3501 00aa 39        		.uleb128 0x39
 3502 00ab 0B        		.uleb128 0xb
 3503 00ac 49        		.uleb128 0x49
 3504 00ad 13        		.uleb128 0x13
 3505 00ae 3F        		.uleb128 0x3f
 3506 00af 19        		.uleb128 0x19
 3507 00b0 02        		.uleb128 0x2
 3508 00b1 18        		.uleb128 0x18
 3509 00b2 00        		.byte	0
 3510 00b3 00        		.byte	0
 3511 00b4 0F        		.uleb128 0xf
 3512 00b5 2E        		.uleb128 0x2e
 3513 00b6 01        		.byte	0x1
 3514 00b7 3F        		.uleb128 0x3f
 3515 00b8 19        		.uleb128 0x19
 3516 00b9 03        		.uleb128 0x3
 3517 00ba 0E        		.uleb128 0xe
 3518 00bb 3A        		.uleb128 0x3a
 3519 00bc 21        		.uleb128 0x21
 3520 00bd 01        		.sleb128 1
 3521 00be 3B        		.uleb128 0x3b
 3522 00bf 0B        		.uleb128 0xb
 3523 00c0 39        		.uleb128 0x39
 3524 00c1 21        		.uleb128 0x21
 3525 00c2 06        		.sleb128 6
 3526 00c3 11        		.uleb128 0x11
 3527 00c4 01        		.uleb128 0x1
 3528 00c5 12        		.uleb128 0x12
 3529 00c6 06        		.uleb128 0x6
 3530 00c7 40        		.uleb128 0x40
 3531 00c8 18        		.uleb128 0x18
 3532 00c9 7A        		.uleb128 0x7a
 3533 00ca 19        		.uleb128 0x19
 3534 00cb 01        		.uleb128 0x1
 3535 00cc 13        		.uleb128 0x13
 3536 00cd 00        		.byte	0
 3537 00ce 00        		.byte	0
 3538 00cf 10        		.uleb128 0x10
 3539 00d0 1D        		.uleb128 0x1d
 3540 00d1 01        		.byte	0x1
 3541 00d2 31        		.uleb128 0x31
 3542 00d3 13        		.uleb128 0x13
 3543 00d4 52        		.uleb128 0x52
 3544 00d5 01        		.uleb128 0x1
 3545 00d6 B842      		.uleb128 0x2138
 3546 00d8 0B        		.uleb128 0xb
 3547 00d9 55        		.uleb128 0x55
 3548 00da 17        		.uleb128 0x17
 3549 00db 58        		.uleb128 0x58
 3550 00dc 21        		.uleb128 0x21
 3551 00dd 01        		.sleb128 1
 3552 00de 59        		.uleb128 0x59
 3553 00df 0B        		.uleb128 0xb
 3554 00e0 57        		.uleb128 0x57
 3555 00e1 0B        		.uleb128 0xb
 3556 00e2 01        		.uleb128 0x1


 3557 00e3 13        		.uleb128 0x13
 3558 00e4 00        		.byte	0
 3559 00e5 00        		.byte	0
 3560 00e6 11        		.uleb128 0x11
 3561 00e7 13        		.uleb128 0x13
 3562 00e8 01        		.byte	0x1
 3563 00e9 03        		.uleb128 0x3
 3564 00ea 0E        		.uleb128 0xe
 3565 00eb 0B        		.uleb128 0xb
 3566 00ec 0B        		.uleb128 0xb
 3567 00ed 3A        		.uleb128 0x3a
 3568 00ee 21        		.uleb128 0x21
 3569 00ef 04        		.sleb128 4
 3570 00f0 3B        		.uleb128 0x3b
 3571 00f1 0B        		.uleb128 0xb
 3572 00f2 39        		.uleb128 0x39
 3573 00f3 21        		.uleb128 0x21
 3574 00f4 08        		.sleb128 8
 3575 00f5 01        		.uleb128 0x1
 3576 00f6 13        		.uleb128 0x13
 3577 00f7 00        		.byte	0
 3578 00f8 00        		.byte	0
 3579 00f9 12        		.uleb128 0x12
 3580 00fa 15        		.uleb128 0x15
 3581 00fb 01        		.byte	0x1
 3582 00fc 27        		.uleb128 0x27
 3583 00fd 19        		.uleb128 0x19
 3584 00fe 49        		.uleb128 0x49
 3585 00ff 13        		.uleb128 0x13
 3586 0100 01        		.uleb128 0x1
 3587 0101 13        		.uleb128 0x13
 3588 0102 00        		.byte	0
 3589 0103 00        		.byte	0
 3590 0104 13        		.uleb128 0x13
 3591 0105 0B        		.uleb128 0xb
 3592 0106 01        		.byte	0x1
 3593 0107 11        		.uleb128 0x11
 3594 0108 01        		.uleb128 0x1
 3595 0109 12        		.uleb128 0x12
 3596 010a 06        		.uleb128 0x6
 3597 010b 01        		.uleb128 0x1
 3598 010c 13        		.uleb128 0x13
 3599 010d 00        		.byte	0
 3600 010e 00        		.byte	0
 3601 010f 14        		.uleb128 0x14
 3602 0110 05        		.uleb128 0x5
 3603 0111 00        		.byte	0
 3604 0112 31        		.uleb128 0x31
 3605 0113 13        		.uleb128 0x13
 3606 0114 02        		.uleb128 0x2
 3607 0115 18        		.uleb128 0x18
 3608 0116 00        		.byte	0
 3609 0117 00        		.byte	0
 3610 0118 15        		.uleb128 0x15
 3611 0119 2E        		.uleb128 0x2e
 3612 011a 01        		.byte	0x1
 3613 011b 3F        		.uleb128 0x3f


 3614 011c 19        		.uleb128 0x19
 3615 011d 03        		.uleb128 0x3
 3616 011e 0E        		.uleb128 0xe
 3617 011f 3A        		.uleb128 0x3a
 3618 0120 21        		.uleb128 0x21
 3619 0121 07        		.sleb128 7
 3620 0122 3B        		.uleb128 0x3b
 3621 0123 0B        		.uleb128 0xb
 3622 0124 39        		.uleb128 0x39
 3623 0125 21        		.uleb128 0x21
 3624 0126 06        		.sleb128 6
 3625 0127 3C        		.uleb128 0x3c
 3626 0128 19        		.uleb128 0x19
 3627 0129 01        		.uleb128 0x1
 3628 012a 13        		.uleb128 0x13
 3629 012b 00        		.byte	0
 3630 012c 00        		.byte	0
 3631 012d 16        		.uleb128 0x16
 3632 012e 1D        		.uleb128 0x1d
 3633 012f 01        		.byte	0x1
 3634 0130 31        		.uleb128 0x31
 3635 0131 13        		.uleb128 0x13
 3636 0132 52        		.uleb128 0x52
 3637 0133 01        		.uleb128 0x1
 3638 0134 B842      		.uleb128 0x2138
 3639 0136 0B        		.uleb128 0xb
 3640 0137 11        		.uleb128 0x11
 3641 0138 01        		.uleb128 0x1
 3642 0139 12        		.uleb128 0x12
 3643 013a 06        		.uleb128 0x6
 3644 013b 58        		.uleb128 0x58
 3645 013c 21        		.uleb128 0x21
 3646 013d 01        		.sleb128 1
 3647 013e 59        		.uleb128 0x59
 3648 013f 0B        		.uleb128 0xb
 3649 0140 57        		.uleb128 0x57
 3650 0141 0B        		.uleb128 0xb
 3651 0142 01        		.uleb128 0x1
 3652 0143 13        		.uleb128 0x13
 3653 0144 00        		.byte	0
 3654 0145 00        		.byte	0
 3655 0146 17        		.uleb128 0x17
 3656 0147 34        		.uleb128 0x34
 3657 0148 00        		.byte	0
 3658 0149 31        		.uleb128 0x31
 3659 014a 13        		.uleb128 0x13
 3660 014b 02        		.uleb128 0x2
 3661 014c 17        		.uleb128 0x17
 3662 014d B742      		.uleb128 0x2137
 3663 014f 17        		.uleb128 0x17
 3664 0150 00        		.byte	0
 3665 0151 00        		.byte	0
 3666 0152 18        		.uleb128 0x18
 3667 0153 05        		.uleb128 0x5
 3668 0154 00        		.byte	0
 3669 0155 03        		.uleb128 0x3
 3670 0156 08        		.uleb128 0x8


 3671 0157 3A        		.uleb128 0x3a
 3672 0158 21        		.uleb128 0x21
 3673 0159 01        		.sleb128 1
 3674 015a 3B        		.uleb128 0x3b
 3675 015b 0B        		.uleb128 0xb
 3676 015c 39        		.uleb128 0x39
 3677 015d 0B        		.uleb128 0xb
 3678 015e 49        		.uleb128 0x49
 3679 015f 13        		.uleb128 0x13
 3680 0160 00        		.byte	0
 3681 0161 00        		.byte	0
 3682 0162 19        		.uleb128 0x19
 3683 0163 2E        		.uleb128 0x2e
 3684 0164 01        		.byte	0x1
 3685 0165 31        		.uleb128 0x31
 3686 0166 13        		.uleb128 0x13
 3687 0167 11        		.uleb128 0x11
 3688 0168 01        		.uleb128 0x1
 3689 0169 12        		.uleb128 0x12
 3690 016a 06        		.uleb128 0x6
 3691 016b 40        		.uleb128 0x40
 3692 016c 18        		.uleb128 0x18
 3693 016d 7A        		.uleb128 0x7a
 3694 016e 19        		.uleb128 0x19
 3695 016f 01        		.uleb128 0x1
 3696 0170 13        		.uleb128 0x13
 3697 0171 00        		.byte	0
 3698 0172 00        		.byte	0
 3699 0173 1A        		.uleb128 0x1a
 3700 0174 2E        		.uleb128 0x2e
 3701 0175 00        		.byte	0
 3702 0176 3F        		.uleb128 0x3f
 3703 0177 19        		.uleb128 0x19
 3704 0178 3C        		.uleb128 0x3c
 3705 0179 19        		.uleb128 0x19
 3706 017a 6E        		.uleb128 0x6e
 3707 017b 0E        		.uleb128 0xe
 3708 017c 03        		.uleb128 0x3
 3709 017d 0E        		.uleb128 0xe
 3710 017e 3A        		.uleb128 0x3a
 3711 017f 21        		.uleb128 0x21
 3712 0180 09        		.sleb128 9
 3713 0181 3B        		.uleb128 0x3b
 3714 0182 21        		.uleb128 0x21
 3715 0183 00        		.sleb128 0
 3716 0184 00        		.byte	0
 3717 0185 00        		.byte	0
 3718 0186 1B        		.uleb128 0x1b
 3719 0187 16        		.uleb128 0x16
 3720 0188 00        		.byte	0
 3721 0189 03        		.uleb128 0x3
 3722 018a 0E        		.uleb128 0xe
 3723 018b 3A        		.uleb128 0x3a
 3724 018c 0B        		.uleb128 0xb
 3725 018d 3B        		.uleb128 0x3b
 3726 018e 05        		.uleb128 0x5
 3727 018f 39        		.uleb128 0x39


 3728 0190 0B        		.uleb128 0xb
 3729 0191 49        		.uleb128 0x49
 3730 0192 13        		.uleb128 0x13
 3731 0193 00        		.byte	0
 3732 0194 00        		.byte	0
 3733 0195 1C        		.uleb128 0x1c
 3734 0196 0D        		.uleb128 0xd
 3735 0197 00        		.byte	0
 3736 0198 03        		.uleb128 0x3
 3737 0199 0E        		.uleb128 0xe
 3738 019a 3A        		.uleb128 0x3a
 3739 019b 21        		.uleb128 0x21
 3740 019c 03        		.sleb128 3
 3741 019d 3B        		.uleb128 0x3b
 3742 019e 0B        		.uleb128 0xb
 3743 019f 39        		.uleb128 0x39
 3744 01a0 0B        		.uleb128 0xb
 3745 01a1 49        		.uleb128 0x49
 3746 01a2 13        		.uleb128 0x13
 3747 01a3 00        		.byte	0
 3748 01a4 00        		.byte	0
 3749 01a5 1D        		.uleb128 0x1d
 3750 01a6 13        		.uleb128 0x13
 3751 01a7 01        		.byte	0x1
 3752 01a8 0B        		.uleb128 0xb
 3753 01a9 21        		.uleb128 0x21
 3754 01aa 08        		.sleb128 8
 3755 01ab 3A        		.uleb128 0x3a
 3756 01ac 0B        		.uleb128 0xb
 3757 01ad 3B        		.uleb128 0x3b
 3758 01ae 0B        		.uleb128 0xb
 3759 01af 39        		.uleb128 0x39
 3760 01b0 21        		.uleb128 0x21
 3761 01b1 09        		.sleb128 9
 3762 01b2 01        		.uleb128 0x1
 3763 01b3 13        		.uleb128 0x13
 3764 01b4 00        		.byte	0
 3765 01b5 00        		.byte	0
 3766 01b6 1E        		.uleb128 0x1e
 3767 01b7 37        		.uleb128 0x37
 3768 01b8 00        		.byte	0
 3769 01b9 49        		.uleb128 0x49
 3770 01ba 13        		.uleb128 0x13
 3771 01bb 00        		.byte	0
 3772 01bc 00        		.byte	0
 3773 01bd 1F        		.uleb128 0x1f
 3774 01be 15        		.uleb128 0x15
 3775 01bf 01        		.byte	0x1
 3776 01c0 27        		.uleb128 0x27
 3777 01c1 19        		.uleb128 0x19
 3778 01c2 01        		.uleb128 0x1
 3779 01c3 13        		.uleb128 0x13
 3780 01c4 00        		.byte	0
 3781 01c5 00        		.byte	0
 3782 01c6 20        		.uleb128 0x20
 3783 01c7 34        		.uleb128 0x34
 3784 01c8 00        		.byte	0


 3785 01c9 03        		.uleb128 0x3
 3786 01ca 0E        		.uleb128 0xe
 3787 01cb 3A        		.uleb128 0x3a
 3788 01cc 21        		.uleb128 0x21
 3789 01cd 07        		.sleb128 7
 3790 01ce 3B        		.uleb128 0x3b
 3791 01cf 0B        		.uleb128 0xb
 3792 01d0 39        		.uleb128 0x39
 3793 01d1 21        		.uleb128 0x21
 3794 01d2 0E        		.sleb128 14
 3795 01d3 49        		.uleb128 0x49
 3796 01d4 13        		.uleb128 0x13
 3797 01d5 3F        		.uleb128 0x3f
 3798 01d6 19        		.uleb128 0x19
 3799 01d7 3C        		.uleb128 0x3c
 3800 01d8 19        		.uleb128 0x19
 3801 01d9 00        		.byte	0
 3802 01da 00        		.byte	0
 3803 01db 21        		.uleb128 0x21
 3804 01dc 34        		.uleb128 0x34
 3805 01dd 00        		.byte	0
 3806 01de 03        		.uleb128 0x3
 3807 01df 08        		.uleb128 0x8
 3808 01e0 3A        		.uleb128 0x3a
 3809 01e1 21        		.uleb128 0x21
 3810 01e2 01        		.sleb128 1
 3811 01e3 3B        		.uleb128 0x3b
 3812 01e4 0B        		.uleb128 0xb
 3813 01e5 39        		.uleb128 0x39
 3814 01e6 21        		.uleb128 0x21
 3815 01e7 05        		.sleb128 5
 3816 01e8 49        		.uleb128 0x49
 3817 01e9 13        		.uleb128 0x13
 3818 01ea 3F        		.uleb128 0x3f
 3819 01eb 19        		.uleb128 0x19
 3820 01ec 02        		.uleb128 0x2
 3821 01ed 18        		.uleb128 0x18
 3822 01ee 00        		.byte	0
 3823 01ef 00        		.byte	0
 3824 01f0 22        		.uleb128 0x22
 3825 01f1 2E        		.uleb128 0x2e
 3826 01f2 01        		.byte	0x1
 3827 01f3 3F        		.uleb128 0x3f
 3828 01f4 19        		.uleb128 0x19
 3829 01f5 03        		.uleb128 0x3
 3830 01f6 0E        		.uleb128 0xe
 3831 01f7 3A        		.uleb128 0x3a
 3832 01f8 0B        		.uleb128 0xb
 3833 01f9 3B        		.uleb128 0x3b
 3834 01fa 0B        		.uleb128 0xb
 3835 01fb 39        		.uleb128 0x39
 3836 01fc 21        		.uleb128 0x21
 3837 01fd 06        		.sleb128 6
 3838 01fe 27        		.uleb128 0x27
 3839 01ff 19        		.uleb128 0x19
 3840 0200 3C        		.uleb128 0x3c
 3841 0201 19        		.uleb128 0x19


 3842 0202 01        		.uleb128 0x1
 3843 0203 13        		.uleb128 0x13
 3844 0204 00        		.byte	0
 3845 0205 00        		.byte	0
 3846 0206 23        		.uleb128 0x23
 3847 0207 2E        		.uleb128 0x2e
 3848 0208 01        		.byte	0x1
 3849 0209 3F        		.uleb128 0x3f
 3850 020a 19        		.uleb128 0x19
 3851 020b 03        		.uleb128 0x3
 3852 020c 08        		.uleb128 0x8
 3853 020d 3A        		.uleb128 0x3a
 3854 020e 21        		.uleb128 0x21
 3855 020f 07        		.sleb128 7
 3856 0210 3B        		.uleb128 0x3b
 3857 0211 0B        		.uleb128 0xb
 3858 0212 39        		.uleb128 0x39
 3859 0213 21        		.uleb128 0x21
 3860 0214 0D        		.sleb128 13
 3861 0215 27        		.uleb128 0x27
 3862 0216 19        		.uleb128 0x19
 3863 0217 3C        		.uleb128 0x3c
 3864 0218 19        		.uleb128 0x19
 3865 0219 01        		.uleb128 0x1
 3866 021a 13        		.uleb128 0x13
 3867 021b 00        		.byte	0
 3868 021c 00        		.byte	0
 3869 021d 24        		.uleb128 0x24
 3870 021e 2E        		.uleb128 0x2e
 3871 021f 01        		.byte	0x1
 3872 0220 3F        		.uleb128 0x3f
 3873 0221 19        		.uleb128 0x19
 3874 0222 03        		.uleb128 0x3
 3875 0223 0E        		.uleb128 0xe
 3876 0224 3A        		.uleb128 0x3a
 3877 0225 0B        		.uleb128 0xb
 3878 0226 3B        		.uleb128 0x3b
 3879 0227 0B        		.uleb128 0xb
 3880 0228 39        		.uleb128 0x39
 3881 0229 0B        		.uleb128 0xb
 3882 022a 27        		.uleb128 0x27
 3883 022b 19        		.uleb128 0x19
 3884 022c 49        		.uleb128 0x49
 3885 022d 13        		.uleb128 0x13
 3886 022e 3C        		.uleb128 0x3c
 3887 022f 19        		.uleb128 0x19
 3888 0230 01        		.uleb128 0x1
 3889 0231 13        		.uleb128 0x13
 3890 0232 00        		.byte	0
 3891 0233 00        		.byte	0
 3892 0234 25        		.uleb128 0x25
 3893 0235 2E        		.uleb128 0x2e
 3894 0236 01        		.byte	0x1
 3895 0237 3F        		.uleb128 0x3f
 3896 0238 19        		.uleb128 0x19
 3897 0239 03        		.uleb128 0x3
 3898 023a 0E        		.uleb128 0xe


 3899 023b 3A        		.uleb128 0x3a
 3900 023c 21        		.uleb128 0x21
 3901 023d 01        		.sleb128 1
 3902 023e 3B        		.uleb128 0x3b
 3903 023f 0B        		.uleb128 0xb
 3904 0240 39        		.uleb128 0x39
 3905 0241 21        		.uleb128 0x21
 3906 0242 05        		.sleb128 5
 3907 0243 49        		.uleb128 0x49
 3908 0244 13        		.uleb128 0x13
 3909 0245 11        		.uleb128 0x11
 3910 0246 01        		.uleb128 0x1
 3911 0247 12        		.uleb128 0x12
 3912 0248 06        		.uleb128 0x6
 3913 0249 40        		.uleb128 0x40
 3914 024a 18        		.uleb128 0x18
 3915 024b 7A        		.uleb128 0x7a
 3916 024c 19        		.uleb128 0x19
 3917 024d 01        		.uleb128 0x1
 3918 024e 13        		.uleb128 0x13
 3919 024f 00        		.byte	0
 3920 0250 00        		.byte	0
 3921 0251 26        		.uleb128 0x26
 3922 0252 0B        		.uleb128 0xb
 3923 0253 01        		.byte	0x1
 3924 0254 11        		.uleb128 0x11
 3925 0255 01        		.uleb128 0x1
 3926 0256 12        		.uleb128 0x12
 3927 0257 06        		.uleb128 0x6
 3928 0258 00        		.byte	0
 3929 0259 00        		.byte	0
 3930 025a 27        		.uleb128 0x27
 3931 025b 34        		.uleb128 0x34
 3932 025c 00        		.byte	0
 3933 025d 03        		.uleb128 0x3
 3934 025e 08        		.uleb128 0x8
 3935 025f 3A        		.uleb128 0x3a
 3936 0260 21        		.uleb128 0x21
 3937 0261 01        		.sleb128 1
 3938 0262 3B        		.uleb128 0x3b
 3939 0263 0B        		.uleb128 0xb
 3940 0264 39        		.uleb128 0x39
 3941 0265 21        		.uleb128 0x21
 3942 0266 0D        		.sleb128 13
 3943 0267 49        		.uleb128 0x49
 3944 0268 13        		.uleb128 0x13
 3945 0269 1C        		.uleb128 0x1c
 3946 026a 0B        		.uleb128 0xb
 3947 026b 00        		.byte	0
 3948 026c 00        		.byte	0
 3949 026d 28        		.uleb128 0x28
 3950 026e 2E        		.uleb128 0x2e
 3951 026f 01        		.byte	0x1
 3952 0270 3F        		.uleb128 0x3f
 3953 0271 19        		.uleb128 0x19
 3954 0272 03        		.uleb128 0x3
 3955 0273 0E        		.uleb128 0xe


 3956 0274 3A        		.uleb128 0x3a
 3957 0275 21        		.uleb128 0x21
 3958 0276 01        		.sleb128 1
 3959 0277 3B        		.uleb128 0x3b
 3960 0278 0B        		.uleb128 0xb
 3961 0279 39        		.uleb128 0x39
 3962 027a 21        		.uleb128 0x21
 3963 027b 06        		.sleb128 6
 3964 027c 27        		.uleb128 0x27
 3965 027d 19        		.uleb128 0x19
 3966 027e 20        		.uleb128 0x20
 3967 027f 21        		.uleb128 0x21
 3968 0280 01        		.sleb128 1
 3969 0281 01        		.uleb128 0x1
 3970 0282 13        		.uleb128 0x13
 3971 0283 00        		.byte	0
 3972 0284 00        		.byte	0
 3973 0285 29        		.uleb128 0x29
 3974 0286 0B        		.uleb128 0xb
 3975 0287 01        		.byte	0x1
 3976 0288 55        		.uleb128 0x55
 3977 0289 17        		.uleb128 0x17
 3978 028a 01        		.uleb128 0x1
 3979 028b 13        		.uleb128 0x13
 3980 028c 00        		.byte	0
 3981 028d 00        		.byte	0
 3982 028e 2A        		.uleb128 0x2a
 3983 028f 0B        		.uleb128 0xb
 3984 0290 01        		.byte	0x1
 3985 0291 55        		.uleb128 0x55
 3986 0292 17        		.uleb128 0x17
 3987 0293 00        		.byte	0
 3988 0294 00        		.byte	0
 3989 0295 2B        		.uleb128 0x2b
 3990 0296 11        		.uleb128 0x11
 3991 0297 01        		.byte	0x1
 3992 0298 25        		.uleb128 0x25
 3993 0299 0E        		.uleb128 0xe
 3994 029a 13        		.uleb128 0x13
 3995 029b 0B        		.uleb128 0xb
 3996 029c 03        		.uleb128 0x3
 3997 029d 0E        		.uleb128 0xe
 3998 029e 1B        		.uleb128 0x1b
 3999 029f 0E        		.uleb128 0xe
 4000 02a0 55        		.uleb128 0x55
 4001 02a1 17        		.uleb128 0x17
 4002 02a2 11        		.uleb128 0x11
 4003 02a3 01        		.uleb128 0x1
 4004 02a4 10        		.uleb128 0x10
 4005 02a5 17        		.uleb128 0x17
 4006 02a6 00        		.byte	0
 4007 02a7 00        		.byte	0
 4008 02a8 2C        		.uleb128 0x2c
 4009 02a9 24        		.uleb128 0x24
 4010 02aa 00        		.byte	0
 4011 02ab 0B        		.uleb128 0xb
 4012 02ac 0B        		.uleb128 0xb


 4013 02ad 3E        		.uleb128 0x3e
 4014 02ae 0B        		.uleb128 0xb
 4015 02af 03        		.uleb128 0x3
 4016 02b0 08        		.uleb128 0x8
 4017 02b1 00        		.byte	0
 4018 02b2 00        		.byte	0
 4019 02b3 2D        		.uleb128 0x2d
 4020 02b4 17        		.uleb128 0x17
 4021 02b5 01        		.byte	0x1
 4022 02b6 0B        		.uleb128 0xb
 4023 02b7 0B        		.uleb128 0xb
 4024 02b8 3A        		.uleb128 0x3a
 4025 02b9 0B        		.uleb128 0xb
 4026 02ba 3B        		.uleb128 0x3b
 4027 02bb 0B        		.uleb128 0xb
 4028 02bc 39        		.uleb128 0x39
 4029 02bd 0B        		.uleb128 0xb
 4030 02be 01        		.uleb128 0x1
 4031 02bf 13        		.uleb128 0x13
 4032 02c0 00        		.byte	0
 4033 02c1 00        		.byte	0
 4034 02c2 2E        		.uleb128 0x2e
 4035 02c3 0F        		.uleb128 0xf
 4036 02c4 00        		.byte	0
 4037 02c5 0B        		.uleb128 0xb
 4038 02c6 0B        		.uleb128 0xb
 4039 02c7 00        		.byte	0
 4040 02c8 00        		.byte	0
 4041 02c9 2F        		.uleb128 0x2f
 4042 02ca 13        		.uleb128 0x13
 4043 02cb 01        		.byte	0x1
 4044 02cc 03        		.uleb128 0x3
 4045 02cd 0E        		.uleb128 0xe
 4046 02ce 0B        		.uleb128 0xb
 4047 02cf 05        		.uleb128 0x5
 4048 02d0 3A        		.uleb128 0x3a
 4049 02d1 0B        		.uleb128 0xb
 4050 02d2 3B        		.uleb128 0x3b
 4051 02d3 05        		.uleb128 0x5
 4052 02d4 39        		.uleb128 0x39
 4053 02d5 0B        		.uleb128 0xb
 4054 02d6 01        		.uleb128 0x1
 4055 02d7 13        		.uleb128 0x13
 4056 02d8 00        		.byte	0
 4057 02d9 00        		.byte	0
 4058 02da 30        		.uleb128 0x30
 4059 02db 0D        		.uleb128 0xd
 4060 02dc 00        		.byte	0
 4061 02dd 03        		.uleb128 0x3
 4062 02de 0E        		.uleb128 0xe
 4063 02df 3A        		.uleb128 0x3a
 4064 02e0 0B        		.uleb128 0xb
 4065 02e1 3B        		.uleb128 0x3b
 4066 02e2 05        		.uleb128 0x5
 4067 02e3 39        		.uleb128 0x39
 4068 02e4 0B        		.uleb128 0xb
 4069 02e5 49        		.uleb128 0x49


 4070 02e6 13        		.uleb128 0x13
 4071 02e7 38        		.uleb128 0x38
 4072 02e8 05        		.uleb128 0x5
 4073 02e9 00        		.byte	0
 4074 02ea 00        		.byte	0
 4075 02eb 31        		.uleb128 0x31
 4076 02ec 26        		.uleb128 0x26
 4077 02ed 00        		.byte	0
 4078 02ee 49        		.uleb128 0x49
 4079 02ef 13        		.uleb128 0x13
 4080 02f0 00        		.byte	0
 4081 02f1 00        		.byte	0
 4082 02f2 32        		.uleb128 0x32
 4083 02f3 13        		.uleb128 0x13
 4084 02f4 01        		.byte	0x1
 4085 02f5 03        		.uleb128 0x3
 4086 02f6 0E        		.uleb128 0xe
 4087 02f7 0B        		.uleb128 0xb
 4088 02f8 0B        		.uleb128 0xb
 4089 02f9 3A        		.uleb128 0x3a
 4090 02fa 0B        		.uleb128 0xb
 4091 02fb 3B        		.uleb128 0x3b
 4092 02fc 05        		.uleb128 0x5
 4093 02fd 39        		.uleb128 0x39
 4094 02fe 0B        		.uleb128 0xb
 4095 02ff 01        		.uleb128 0x1
 4096 0300 13        		.uleb128 0x13
 4097 0301 00        		.byte	0
 4098 0302 00        		.byte	0
 4099 0303 33        		.uleb128 0x33
 4100 0304 13        		.uleb128 0x13
 4101 0305 01        		.byte	0x1
 4102 0306 0B        		.uleb128 0xb
 4103 0307 0B        		.uleb128 0xb
 4104 0308 3A        		.uleb128 0x3a
 4105 0309 0B        		.uleb128 0xb
 4106 030a 3B        		.uleb128 0x3b
 4107 030b 05        		.uleb128 0x5
 4108 030c 39        		.uleb128 0x39
 4109 030d 0B        		.uleb128 0xb
 4110 030e 01        		.uleb128 0x1
 4111 030f 13        		.uleb128 0x13
 4112 0310 00        		.byte	0
 4113 0311 00        		.byte	0
 4114 0312 34        		.uleb128 0x34
 4115 0313 17        		.uleb128 0x17
 4116 0314 01        		.byte	0x1
 4117 0315 0B        		.uleb128 0xb
 4118 0316 0B        		.uleb128 0xb
 4119 0317 3A        		.uleb128 0x3a
 4120 0318 0B        		.uleb128 0xb
 4121 0319 3B        		.uleb128 0x3b
 4122 031a 05        		.uleb128 0x5
 4123 031b 39        		.uleb128 0x39
 4124 031c 0B        		.uleb128 0xb
 4125 031d 01        		.uleb128 0x1
 4126 031e 13        		.uleb128 0x13


 4127 031f 00        		.byte	0
 4128 0320 00        		.byte	0
 4129 0321 35        		.uleb128 0x35
 4130 0322 0D        		.uleb128 0xd
 4131 0323 00        		.byte	0
 4132 0324 03        		.uleb128 0x3
 4133 0325 0E        		.uleb128 0xe
 4134 0326 3A        		.uleb128 0x3a
 4135 0327 0B        		.uleb128 0xb
 4136 0328 3B        		.uleb128 0x3b
 4137 0329 05        		.uleb128 0x5
 4138 032a 39        		.uleb128 0x39
 4139 032b 0B        		.uleb128 0xb
 4140 032c 49        		.uleb128 0x49
 4141 032d 13        		.uleb128 0x13
 4142 032e 00        		.byte	0
 4143 032f 00        		.byte	0
 4144 0330 36        		.uleb128 0x36
 4145 0331 13        		.uleb128 0x13
 4146 0332 00        		.byte	0
 4147 0333 03        		.uleb128 0x3
 4148 0334 0E        		.uleb128 0xe
 4149 0335 3C        		.uleb128 0x3c
 4150 0336 19        		.uleb128 0x19
 4151 0337 00        		.byte	0
 4152 0338 00        		.byte	0
 4153 0339 37        		.uleb128 0x37
 4154 033a 15        		.uleb128 0x15
 4155 033b 01        		.byte	0x1
 4156 033c 01        		.uleb128 0x1
 4157 033d 13        		.uleb128 0x13
 4158 033e 00        		.byte	0
 4159 033f 00        		.byte	0
 4160 0340 38        		.uleb128 0x38
 4161 0341 2E        		.uleb128 0x2e
 4162 0342 00        		.byte	0
 4163 0343 3F        		.uleb128 0x3f
 4164 0344 19        		.uleb128 0x19
 4165 0345 03        		.uleb128 0x3
 4166 0346 0E        		.uleb128 0xe
 4167 0347 3A        		.uleb128 0x3a
 4168 0348 0B        		.uleb128 0xb
 4169 0349 3B        		.uleb128 0x3b
 4170 034a 0B        		.uleb128 0xb
 4171 034b 39        		.uleb128 0x39
 4172 034c 0B        		.uleb128 0xb
 4173 034d 27        		.uleb128 0x27
 4174 034e 19        		.uleb128 0x19
 4175 034f 49        		.uleb128 0x49
 4176 0350 13        		.uleb128 0x13
 4177 0351 3C        		.uleb128 0x3c
 4178 0352 19        		.uleb128 0x19
 4179 0353 00        		.byte	0
 4180 0354 00        		.byte	0
 4181 0355 39        		.uleb128 0x39
 4182 0356 2E        		.uleb128 0x2e
 4183 0357 01        		.byte	0x1


 4184 0358 3F        		.uleb128 0x3f
 4185 0359 19        		.uleb128 0x19
 4186 035a 03        		.uleb128 0x3
 4187 035b 0E        		.uleb128 0xe
 4188 035c 3A        		.uleb128 0x3a
 4189 035d 0B        		.uleb128 0xb
 4190 035e 3B        		.uleb128 0x3b
 4191 035f 0B        		.uleb128 0xb
 4192 0360 39        		.uleb128 0x39
 4193 0361 0B        		.uleb128 0xb
 4194 0362 27        		.uleb128 0x27
 4195 0363 19        		.uleb128 0x19
 4196 0364 11        		.uleb128 0x11
 4197 0365 01        		.uleb128 0x1
 4198 0366 12        		.uleb128 0x12
 4199 0367 06        		.uleb128 0x6
 4200 0368 40        		.uleb128 0x40
 4201 0369 18        		.uleb128 0x18
 4202 036a 7A        		.uleb128 0x7a
 4203 036b 19        		.uleb128 0x19
 4204 036c 01        		.uleb128 0x1
 4205 036d 13        		.uleb128 0x13
 4206 036e 00        		.byte	0
 4207 036f 00        		.byte	0
 4208 0370 3A        		.uleb128 0x3a
 4209 0371 05        		.uleb128 0x5
 4210 0372 00        		.byte	0
 4211 0373 03        		.uleb128 0x3
 4212 0374 08        		.uleb128 0x8
 4213 0375 3A        		.uleb128 0x3a
 4214 0376 0B        		.uleb128 0xb
 4215 0377 3B        		.uleb128 0x3b
 4216 0378 0B        		.uleb128 0xb
 4217 0379 39        		.uleb128 0x39
 4218 037a 0B        		.uleb128 0xb
 4219 037b 49        		.uleb128 0x49
 4220 037c 13        		.uleb128 0x13
 4221 037d 02        		.uleb128 0x2
 4222 037e 18        		.uleb128 0x18
 4223 037f 00        		.byte	0
 4224 0380 00        		.byte	0
 4225 0381 3B        		.uleb128 0x3b
 4226 0382 2E        		.uleb128 0x2e
 4227 0383 01        		.byte	0x1
 4228 0384 3F        		.uleb128 0x3f
 4229 0385 19        		.uleb128 0x19
 4230 0386 03        		.uleb128 0x3
 4231 0387 0E        		.uleb128 0xe
 4232 0388 3A        		.uleb128 0x3a
 4233 0389 0B        		.uleb128 0xb
 4234 038a 3B        		.uleb128 0x3b
 4235 038b 0B        		.uleb128 0xb
 4236 038c 39        		.uleb128 0x39
 4237 038d 0B        		.uleb128 0xb
 4238 038e 27        		.uleb128 0x27
 4239 038f 19        		.uleb128 0x19
 4240 0390 49        		.uleb128 0x49


 4241 0391 13        		.uleb128 0x13
 4242 0392 20        		.uleb128 0x20
 4243 0393 0B        		.uleb128 0xb
 4244 0394 01        		.uleb128 0x1
 4245 0395 13        		.uleb128 0x13
 4246 0396 00        		.byte	0
 4247 0397 00        		.byte	0
 4248 0398 3C        		.uleb128 0x3c
 4249 0399 34        		.uleb128 0x34
 4250 039a 00        		.byte	0
 4251 039b 03        		.uleb128 0x3
 4252 039c 08        		.uleb128 0x8
 4253 039d 3A        		.uleb128 0x3a
 4254 039e 0B        		.uleb128 0xb
 4255 039f 3B        		.uleb128 0x3b
 4256 03a0 0B        		.uleb128 0xb
 4257 03a1 39        		.uleb128 0x39
 4258 03a2 0B        		.uleb128 0xb
 4259 03a3 49        		.uleb128 0x49
 4260 03a4 13        		.uleb128 0x13
 4261 03a5 00        		.byte	0
 4262 03a6 00        		.byte	0
 4263 03a7 3D        		.uleb128 0x3d
 4264 03a8 05        		.uleb128 0x5
 4265 03a9 00        		.byte	0
 4266 03aa 03        		.uleb128 0x3
 4267 03ab 0E        		.uleb128 0xe
 4268 03ac 3A        		.uleb128 0x3a
 4269 03ad 0B        		.uleb128 0xb
 4270 03ae 3B        		.uleb128 0x3b
 4271 03af 0B        		.uleb128 0xb
 4272 03b0 39        		.uleb128 0x39
 4273 03b1 0B        		.uleb128 0xb
 4274 03b2 49        		.uleb128 0x49
 4275 03b3 13        		.uleb128 0x13
 4276 03b4 00        		.byte	0
 4277 03b5 00        		.byte	0
 4278 03b6 3E        		.uleb128 0x3e
 4279 03b7 2E        		.uleb128 0x2e
 4280 03b8 00        		.byte	0
 4281 03b9 3F        		.uleb128 0x3f
 4282 03ba 19        		.uleb128 0x19
 4283 03bb 3C        		.uleb128 0x3c
 4284 03bc 19        		.uleb128 0x19
 4285 03bd 6E        		.uleb128 0x6e
 4286 03be 0E        		.uleb128 0xe
 4287 03bf 03        		.uleb128 0x3
 4288 03c0 0E        		.uleb128 0xe
 4289 03c1 00        		.byte	0
 4290 03c2 00        		.byte	0
 4291 03c3 00        		.byte	0
 4292               		.section	.debug_loclists,"",@progbits
 4293 0000 0000 030F 		.long	.Ldebug_loc3-.Ldebug_loc2
 4294               	.Ldebug_loc2:
 4295 0004 0005      		.word	0x5
 4296 0006 04        		.byte	0x4
 4297 0007 00        		.byte	0


 4298 0008 0000 0000 		.long	0
 4299               	.Ldebug_loc0:
 4300               	.LVUS35:
 4301 000c 03        		.uleb128 .LVU319
 4302 000d 01        		.uleb128 .LVU329
 4303 000e 00        		.uleb128 .LVU345
 4304 000f 00        		.uleb128 0
 4305               	.LLST35:
 4306 0010 06        		.byte	0x6
 4307 0011 0000 0000 		.long	.LVL106
 4308 0015 04        		.byte	0x4
 4309 0016 00        		.uleb128 .LVL106-.LVL106
 4310 0017 34        		.uleb128 .LVL108-.LVL106
 4311 0018 02        		.uleb128 0x2
 4312 0019 31        		.byte	0x31
 4313 001a 9F        		.byte	0x9f
 4314 001b 04        		.byte	0x4
 4315 001c AA01      		.uleb128 .LVL120-.LVL106
 4316 001e B601      		.uleb128 .LFE12-.LVL106
 4317 0020 02        		.uleb128 0x2
 4318 0021 31        		.byte	0x31
 4319 0022 9F        		.byte	0x9f
 4320 0023 00        		.byte	0
 4321               	.LVUS36:
 4322 0024 00        		.uleb128 .LVU323
 4323 0025 01        		.uleb128 .LVU329
 4324 0026 00        		.uleb128 .LVU345
 4325 0027 00        		.uleb128 0
 4326               	.LLST36:
 4327 0028 06        		.byte	0x6
 4328 0029 0000 0000 		.long	.LVL107
 4329 002d 04        		.byte	0x4
 4330 002e 00        		.uleb128 .LVL107-.LVL107
 4331 002f 2E        		.uleb128 .LVL108-.LVL107
 4332 0030 01        		.uleb128 0x1
 4333 0031 50        		.byte	0x50
 4334 0032 04        		.byte	0x4
 4335 0033 A401      		.uleb128 .LVL120-.LVL107
 4336 0035 B001      		.uleb128 .LFE12-.LVL107
 4337 0037 01        		.uleb128 0x1
 4338 0038 50        		.byte	0x50
 4339 0039 00        		.byte	0
 4340               	.LVUS33:
 4341 003a 03        		.uleb128 .LVU288
 4342 003b 01        		.uleb128 .LVU298
 4343 003c 00        		.uleb128 .LVU314
 4344 003d 00        		.uleb128 0
 4345               	.LLST33:
 4346 003e 06        		.byte	0x6
 4347 003f 0000 0000 		.long	.LVL91
 4348 0043 04        		.byte	0x4
 4349 0044 00        		.uleb128 .LVL91-.LVL91
 4350 0045 2E        		.uleb128 .LVL93-.LVL91
 4351 0046 02        		.uleb128 0x2
 4352 0047 30        		.byte	0x30
 4353 0048 9F        		.byte	0x9f
 4354 0049 04        		.byte	0x4


 4355 004a A601      		.uleb128 .LVL105-.LVL91
 4356 004c B201      		.uleb128 .LFE11-.LVL91
 4357 004e 02        		.uleb128 0x2
 4358 004f 30        		.byte	0x30
 4359 0050 9F        		.byte	0x9f
 4360 0051 00        		.byte	0
 4361               	.LVUS34:
 4362 0052 00        		.uleb128 .LVU292
 4363 0053 01        		.uleb128 .LVU298
 4364 0054 00        		.uleb128 .LVU314
 4365 0055 00        		.uleb128 0
 4366               	.LLST34:
 4367 0056 06        		.byte	0x6
 4368 0057 0000 0000 		.long	.LVL92
 4369 005b 04        		.byte	0x4
 4370 005c 00        		.uleb128 .LVL92-.LVL92
 4371 005d 2A        		.uleb128 .LVL93-.LVL92
 4372 005e 01        		.uleb128 0x1
 4373 005f 50        		.byte	0x50
 4374 0060 04        		.byte	0x4
 4375 0061 A201      		.uleb128 .LVL105-.LVL92
 4376 0063 AE01      		.uleb128 .LFE11-.LVL92
 4377 0065 01        		.uleb128 0x1
 4378 0066 50        		.byte	0x50
 4379 0067 00        		.byte	0
 4380               	.LVUS15:
 4381 0068 01        		.uleb128 .LVU149
 4382 0069 00        		.uleb128 .LVU175
 4383 006a 00        		.uleb128 .LVU181
 4384 006b 00        		.uleb128 0
 4385               	.LLST15:
 4386 006c 06        		.byte	0x6
 4387 006d 0000 0000 		.long	.LVL61
 4388 0071 04        		.byte	0x4
 4389 0072 00        		.uleb128 .LVL61-.LVL61
 4390 0073 8D02      		.uleb128 .LVL65-1-.LVL61
 4391 0075 09        		.uleb128 0x9
 4392 0076 91        		.byte	0x91
 4393 0077 6C        		.sleb128 -20
 4394 0078 06        		.byte	0x6
 4395 0079 03        		.byte	0x3
 4396 007a 0000 0000 		.long	input_buf
 4397 007e 22        		.byte	0x22
 4398 007f 04        		.byte	0x4
 4399 0080 A402      		.uleb128 .LVL67-.LVL61
 4400 0082 9205      		.uleb128 .LFE9-.LVL61
 4401 0084 09        		.uleb128 0x9
 4402 0085 91        		.byte	0x91
 4403 0086 6C        		.sleb128 -20
 4404 0087 06        		.byte	0x6
 4405 0088 03        		.byte	0x3
 4406 0089 0000 0000 		.long	input_buf
 4407 008d 22        		.byte	0x22
 4408 008e 00        		.byte	0
 4409               	.LVUS16:
 4410 008f 01        		.uleb128 .LVU156
 4411 0090 00        		.uleb128 .LVU174


 4412 0091 00        		.uleb128 .LVU174
 4413 0092 00        		.uleb128 .LVU175
 4414 0093 01        		.uleb128 .LVU187
 4415 0094 00        		.uleb128 .LVU227
 4416 0095 00        		.uleb128 .LVU227
 4417 0096 00        		.uleb128 .LVU230
 4418 0097 00        		.uleb128 .LVU230
 4419 0098 00        		.uleb128 .LVU242
 4420 0099 00        		.uleb128 .LVU257
 4421 009a 00        		.uleb128 .LVU278
 4422 009b 00        		.uleb128 .LVU278
 4423 009c 00        		.uleb128 .LVU282
 4424               	.LLST16:
 4425 009d 06        		.byte	0x6
 4426 009e 0000 0000 		.long	.LVL62
 4427 00a2 04        		.byte	0x4
 4428 00a3 00        		.uleb128 .LVL62-.LVL62
 4429 00a4 40        		.uleb128 .LVL64-.LVL62
 4430 00a5 01        		.uleb128 0x1
 4431 00a6 51        		.byte	0x51
 4432 00a7 04        		.byte	0x4
 4433 00a8 40        		.uleb128 .LVL64-.LVL62
 4434 00a9 43        		.uleb128 .LVL65-1-.LVL62
 4435 00aa 05        		.uleb128 0x5
 4436 00ab 03        		.byte	0x3
 4437 00ac 0000 0000 		.long	ch_p
 4438 00b0 04        		.byte	0x4
 4439 00b1 6C        		.uleb128 .LVL68-.LVL62
 4440 00b2 8202      		.uleb128 .LVL77-.LVL62
 4441 00b4 01        		.uleb128 0x1
 4442 00b5 51        		.byte	0x51
 4443 00b6 04        		.byte	0x4
 4444 00b7 8202      		.uleb128 .LVL77-.LVL62
 4445 00b9 9002      		.uleb128 .LVL78-.LVL62
 4446 00bb 05        		.uleb128 0x5
 4447 00bc 03        		.byte	0x3
 4448 00bd 0000 0000 		.long	ch_p
 4449 00c1 04        		.byte	0x4
 4450 00c2 9002      		.uleb128 .LVL78-.LVL62
 4451 00c4 BA02      		.uleb128 .LVL82-.LVL62
 4452 00c6 01        		.uleb128 0x1
 4453 00c7 51        		.byte	0x51
 4454 00c8 04        		.byte	0x4
 4455 00c9 E802      		.uleb128 .LVL83-.LVL62
 4456 00cb A803      		.uleb128 .LVL89-.LVL62
 4457 00cd 01        		.uleb128 0x1
 4458 00ce 51        		.byte	0x51
 4459 00cf 04        		.byte	0x4
 4460 00d0 A803      		.uleb128 .LVL89-.LVL62
 4461 00d2 B603      		.uleb128 .LVL90-.LVL62
 4462 00d4 05        		.uleb128 0x5
 4463 00d5 03        		.byte	0x3
 4464 00d6 0000 0000 		.long	ch_p
 4465 00da 00        		.byte	0
 4466               	.LVUS17:
 4467 00db 02        		.uleb128 .LVU157
 4468 00dc 00        		.uleb128 .LVU175


 4469 00dd 02        		.uleb128 .LVU188
 4470 00de 00        		.uleb128 .LVU194
 4471 00df 00        		.uleb128 .LVU194
 4472 00e0 00        		.uleb128 .LVU242
 4473 00e1 00        		.uleb128 .LVU257
 4474 00e2 00        		.uleb128 .LVU282
 4475               	.LLST17:
 4476 00e3 06        		.byte	0x6
 4477 00e4 0000 0000 		.long	.LVL62
 4478 00e8 04        		.byte	0x4
 4479 00e9 00        		.uleb128 .LVL62-.LVL62
 4480 00ea 43        		.uleb128 .LVL65-1-.LVL62
 4481 00eb 01        		.uleb128 0x1
 4482 00ec 58        		.byte	0x58
 4483 00ed 04        		.byte	0x4
 4484 00ee 6C        		.uleb128 .LVL68-.LVL62
 4485 00ef 8C01      		.uleb128 .LVL69-.LVL62
 4486 00f1 01        		.uleb128 0x1
 4487 00f2 51        		.byte	0x51
 4488 00f3 04        		.byte	0x4
 4489 00f4 8C01      		.uleb128 .LVL69-.LVL62
 4490 00f6 BA02      		.uleb128 .LVL82-.LVL62
 4491 00f8 01        		.uleb128 0x1
 4492 00f9 58        		.byte	0x58
 4493 00fa 04        		.byte	0x4
 4494 00fb E802      		.uleb128 .LVL83-.LVL62
 4495 00fd B603      		.uleb128 .LVL90-.LVL62
 4496 00ff 01        		.uleb128 0x1
 4497 0100 58        		.byte	0x58
 4498 0101 00        		.byte	0
 4499               	.LVUS19:
 4500 0102 03        		.uleb128 .LVU158
 4501 0103 00        		.uleb128 .LVU165
 4502 0104 03        		.uleb128 .LVU189
 4503 0105 00        		.uleb128 .LVU194
 4504 0106 00        		.uleb128 .LVU194
 4505 0107 00        		.uleb128 .LVU198
 4506               	.LLST19:
 4507 0108 06        		.byte	0x6
 4508 0109 0000 0000 		.long	.LVL62
 4509 010d 04        		.byte	0x4
 4510 010e 00        		.uleb128 .LVL62-.LVL62
 4511 010f 24        		.uleb128 .LVL63-.LVL62
 4512 0110 01        		.uleb128 0x1
 4513 0111 58        		.byte	0x58
 4514 0112 04        		.byte	0x4
 4515 0113 6C        		.uleb128 .LVL68-.LVL62
 4516 0114 8C01      		.uleb128 .LVL69-.LVL62
 4517 0116 01        		.uleb128 0x1
 4518 0117 51        		.byte	0x51
 4519 0118 04        		.byte	0x4
 4520 0119 8C01      		.uleb128 .LVL69-.LVL62
 4521 011b 9401      		.uleb128 .LVL70-.LVL62
 4522 011d 01        		.uleb128 0x1
 4523 011e 58        		.byte	0x58
 4524 011f 00        		.byte	0
 4525               	.LVUS20:


 4526 0120 03        		.uleb128 .LVU158
 4527 0121 00        		.uleb128 .LVU165
 4528 0122 03        		.uleb128 .LVU189
 4529 0123 00        		.uleb128 .LVU198
 4530               	.LLST20:
 4531 0124 06        		.byte	0x6
 4532 0125 0000 0000 		.long	.LVL62
 4533 0129 04        		.byte	0x4
 4534 012a 00        		.uleb128 .LVL62-.LVL62
 4535 012b 24        		.uleb128 .LVL63-.LVL62
 4536 012c 01        		.uleb128 0x1
 4537 012d 51        		.byte	0x51
 4538 012e 04        		.byte	0x4
 4539 012f 6C        		.uleb128 .LVL68-.LVL62
 4540 0130 9401      		.uleb128 .LVL70-.LVL62
 4541 0132 01        		.uleb128 0x1
 4542 0133 51        		.byte	0x51
 4543 0134 00        		.byte	0
 4544               	.LVUS22:
 4545 0135 01        		.uleb128 .LVU202
 4546 0136 00        		.uleb128 .LVU209
 4547 0137 00        		.uleb128 .LVU257
 4548 0138 00        		.uleb128 .LVU261
 4549               	.LLST22:
 4550 0139 06        		.byte	0x6
 4551 013a 0000 0000 		.long	.LVL71
 4552 013e 04        		.byte	0x4
 4553 013f 00        		.uleb128 .LVL71-.LVL71
 4554 0140 20        		.uleb128 .LVL72-.LVL71
 4555 0141 03        		.uleb128 0x3
 4556 0142 78        		.byte	0x78
 4557 0143 7F        		.sleb128 -1
 4558 0144 9F        		.byte	0x9f
 4559 0145 04        		.byte	0x4
 4560 0146 CE01      		.uleb128 .LVL83-.LVL71
 4561 0148 D801      		.uleb128 .LVL84-.LVL71
 4562 014a 03        		.uleb128 0x3
 4563 014b 78        		.byte	0x78
 4564 014c 7F        		.sleb128 -1
 4565 014d 9F        		.byte	0x9f
 4566 014e 00        		.byte	0
 4567               	.LVUS23:
 4568 014f 01        		.uleb128 .LVU202
 4569 0150 00        		.uleb128 .LVU209
 4570 0151 00        		.uleb128 .LVU257
 4571 0152 00        		.uleb128 .LVU261
 4572               	.LLST23:
 4573 0153 06        		.byte	0x6
 4574 0154 0000 0000 		.long	.LVL71
 4575 0158 04        		.byte	0x4
 4576 0159 00        		.uleb128 .LVL71-.LVL71
 4577 015a 20        		.uleb128 .LVL72-.LVL71
 4578 015b 01        		.uleb128 0x1
 4579 015c 51        		.byte	0x51
 4580 015d 04        		.byte	0x4
 4581 015e CE01      		.uleb128 .LVL83-.LVL71
 4582 0160 D801      		.uleb128 .LVL84-.LVL71


 4583 0162 01        		.uleb128 0x1
 4584 0163 51        		.byte	0x51
 4585 0164 00        		.byte	0
 4586               	.LVUS25:
 4587 0165 00        		.uleb128 .LVU213
 4588 0166 00        		.uleb128 .LVU220
 4589 0167 00        		.uleb128 .LVU264
 4590 0168 00        		.uleb128 .LVU268
 4591               	.LLST25:
 4592 0169 06        		.byte	0x6
 4593 016a 0000 0000 		.long	.LVL73
 4594 016e 04        		.byte	0x4
 4595 016f 00        		.uleb128 .LVL73-.LVL73
 4596 0170 1E        		.uleb128 .LVL75-.LVL73
 4597 0171 01        		.uleb128 0x1
 4598 0172 58        		.byte	0x58
 4599 0173 04        		.byte	0x4
 4600 0174 B401      		.uleb128 .LVL85-.LVL73
 4601 0176 BE01      		.uleb128 .LVL86-.LVL73
 4602 0178 01        		.uleb128 0x1
 4603 0179 58        		.byte	0x58
 4604 017a 00        		.byte	0
 4605               	.LVUS26:
 4606 017b 00        		.uleb128 .LVU213
 4607 017c 00        		.uleb128 .LVU216
 4608 017d 00        		.uleb128 .LVU216
 4609 017e 00        		.uleb128 .LVU220
 4610 017f 00        		.uleb128 .LVU264
 4611 0180 00        		.uleb128 .LVU268
 4612               	.LLST26:
 4613 0181 06        		.byte	0x6
 4614 0182 0000 0000 		.long	.LVL73
 4615 0186 04        		.byte	0x4
 4616 0187 00        		.uleb128 .LVL73-.LVL73
 4617 0188 10        		.uleb128 .LVL74-.LVL73
 4618 0189 01        		.uleb128 0x1
 4619 018a 5A        		.byte	0x5a
 4620 018b 04        		.byte	0x4
 4621 018c 10        		.uleb128 .LVL74-.LVL73
 4622 018d 1E        		.uleb128 .LVL75-.LVL73
 4623 018e 03        		.uleb128 0x3
 4624 018f 71        		.byte	0x71
 4625 0190 7F        		.sleb128 -1
 4626 0191 9F        		.byte	0x9f
 4627 0192 04        		.byte	0x4
 4628 0193 B401      		.uleb128 .LVL85-.LVL73
 4629 0195 BE01      		.uleb128 .LVL86-.LVL73
 4630 0197 03        		.uleb128 0x3
 4631 0198 71        		.byte	0x71
 4632 0199 7F        		.sleb128 -1
 4633 019a 9F        		.byte	0x9f
 4634 019b 00        		.byte	0
 4635               	.LVUS28:
 4636 019c 01        		.uleb128 .LVU224
 4637 019d 00        		.uleb128 .LVU230
 4638 019e 00        		.uleb128 .LVU278
 4639 019f 00        		.uleb128 .LVU282


 4640               	.LLST28:
 4641 01a0 06        		.byte	0x6
 4642 01a1 0000 0000 		.long	.LVL76
 4643 01a5 04        		.byte	0x4
 4644 01a6 00        		.uleb128 .LVL76-.LVL76
 4645 01a7 20        		.uleb128 .LVL78-.LVL76
 4646 01a8 03        		.uleb128 0x3
 4647 01a9 78        		.byte	0x78
 4648 01aa 01        		.sleb128 1
 4649 01ab 9F        		.byte	0x9f
 4650 01ac 04        		.byte	0x4
 4651 01ad B801      		.uleb128 .LVL89-.LVL76
 4652 01af C601      		.uleb128 .LVL90-.LVL76
 4653 01b1 03        		.uleb128 0x3
 4654 01b2 78        		.byte	0x78
 4655 01b3 01        		.sleb128 1
 4656 01b4 9F        		.byte	0x9f
 4657 01b5 00        		.byte	0
 4658               	.LVUS29:
 4659 01b6 01        		.uleb128 .LVU224
 4660 01b7 00        		.uleb128 .LVU227
 4661 01b8 00        		.uleb128 .LVU227
 4662 01b9 00        		.uleb128 .LVU230
 4663 01ba 00        		.uleb128 .LVU278
 4664 01bb 00        		.uleb128 .LVU282
 4665               	.LLST29:
 4666 01bc 06        		.byte	0x6
 4667 01bd 0000 0000 		.long	.LVL76
 4668 01c1 04        		.byte	0x4
 4669 01c2 00        		.uleb128 .LVL76-.LVL76
 4670 01c3 12        		.uleb128 .LVL77-.LVL76
 4671 01c4 01        		.uleb128 0x1
 4672 01c5 51        		.byte	0x51
 4673 01c6 04        		.byte	0x4
 4674 01c7 12        		.uleb128 .LVL77-.LVL76
 4675 01c8 20        		.uleb128 .LVL78-.LVL76
 4676 01c9 05        		.uleb128 0x5
 4677 01ca 03        		.byte	0x3
 4678 01cb 0000 0000 		.long	ch_p
 4679 01cf 04        		.byte	0x4
 4680 01d0 B801      		.uleb128 .LVL89-.LVL76
 4681 01d2 C601      		.uleb128 .LVL90-.LVL76
 4682 01d4 05        		.uleb128 0x5
 4683 01d5 03        		.byte	0x3
 4684 01d6 0000 0000 		.long	ch_p
 4685 01da 00        		.byte	0
 4686               	.LVUS31:
 4687 01db 00        		.uleb128 .LVU232
 4688 01dc 00        		.uleb128 .LVU239
 4689 01dd 00        		.uleb128 .LVU271
 4690 01de 00        		.uleb128 .LVU275
 4691               	.LLST31:
 4692 01df 06        		.byte	0x6
 4693 01e0 0000 0000 		.long	.LVL79
 4694 01e4 04        		.byte	0x4
 4695 01e5 00        		.uleb128 .LVL79-.LVL79
 4696 01e6 1C        		.uleb128 .LVL81-.LVL79


 4697 01e7 01        		.uleb128 0x1
 4698 01e8 58        		.byte	0x58
 4699 01e9 04        		.byte	0x4
 4700 01ea 7E        		.uleb128 .LVL87-.LVL79
 4701 01eb 8801      		.uleb128 .LVL88-.LVL79
 4702 01ed 01        		.uleb128 0x1
 4703 01ee 58        		.byte	0x58
 4704 01ef 00        		.byte	0
 4705               	.LVUS32:
 4706 01f0 00        		.uleb128 .LVU232
 4707 01f1 00        		.uleb128 .LVU235
 4708 01f2 00        		.uleb128 .LVU235
 4709 01f3 00        		.uleb128 .LVU239
 4710 01f4 00        		.uleb128 .LVU271
 4711 01f5 00        		.uleb128 .LVU275
 4712               	.LLST32:
 4713 01f6 06        		.byte	0x6
 4714 01f7 0000 0000 		.long	.LVL79
 4715 01fb 04        		.byte	0x4
 4716 01fc 00        		.uleb128 .LVL79-.LVL79
 4717 01fd 10        		.uleb128 .LVL80-.LVL79
 4718 01fe 01        		.uleb128 0x1
 4719 01ff 5A        		.byte	0x5a
 4720 0200 04        		.byte	0x4
 4721 0201 10        		.uleb128 .LVL80-.LVL79
 4722 0202 1C        		.uleb128 .LVL81-.LVL79
 4723 0203 03        		.uleb128 0x3
 4724 0204 71        		.byte	0x71
 4725 0205 01        		.sleb128 1
 4726 0206 9F        		.byte	0x9f
 4727 0207 04        		.byte	0x4
 4728 0208 7E        		.uleb128 .LVL87-.LVL79
 4729 0209 8801      		.uleb128 .LVL88-.LVL79
 4730 020b 03        		.uleb128 0x3
 4731 020c 71        		.byte	0x71
 4732 020d 01        		.sleb128 1
 4733 020e 9F        		.byte	0x9f
 4734 020f 00        		.byte	0
 4735               	.LVUS10:
 4736 0210 01        		.uleb128 .LVU106
 4737 0211 00        		.uleb128 .LVU112
 4738 0212 00        		.uleb128 .LVU112
 4739 0213 00        		.uleb128 .LVU130
 4740               	.LLST10:
 4741 0214 06        		.byte	0x6
 4742 0215 0000 0000 		.long	.LVL50
 4743 0219 04        		.byte	0x4
 4744 021a 00        		.uleb128 .LVL50-.LVL50
 4745 021b 18        		.uleb128 .LVL51-.LVL50
 4746 021c 02        		.uleb128 0x2
 4747 021d 30        		.byte	0x30
 4748 021e 9F        		.byte	0x9f
 4749 021f 04        		.byte	0x4
 4750 0220 18        		.uleb128 .LVL51-.LVL50
 4751 0221 54        		.uleb128 .LVL58-.LVL50
 4752 0222 01        		.uleb128 0x1
 4753 0223 52        		.byte	0x52


 4754 0224 00        		.byte	0
 4755               	.LVUS12:
 4756 0225 03        		.uleb128 .LVU108
 4757 0226 00        		.uleb128 .LVU112
 4758 0227 00        		.uleb128 .LVU112
 4759 0228 00        		.uleb128 .LVU127
 4760               	.LLST12:
 4761 0229 06        		.byte	0x6
 4762 022a 0000 0000 		.long	.LVL50
 4763 022e 04        		.byte	0x4
 4764 022f 00        		.uleb128 .LVL50-.LVL50
 4765 0230 18        		.uleb128 .LVL51-.LVL50
 4766 0231 02        		.uleb128 0x2
 4767 0232 30        		.byte	0x30
 4768 0233 9F        		.byte	0x9f
 4769 0234 04        		.byte	0x4
 4770 0235 18        		.uleb128 .LVL51-.LVL50
 4771 0236 43        		.uleb128 .LVL57-1-.LVL50
 4772 0237 01        		.uleb128 0x1
 4773 0238 59        		.byte	0x59
 4774 0239 00        		.byte	0
 4775               	.LVUS14:
 4776 023a 00        		.uleb128 .LVU112
 4777 023b 00        		.uleb128 .LVU114
 4778 023c 00        		.uleb128 .LVU114
 4779 023d 00        		.uleb128 .LVU120
 4780               	.LLST14:
 4781 023e 06        		.byte	0x6
 4782 023f 0000 0000 		.long	.LVL51
 4783 0243 04        		.byte	0x4
 4784 0244 00        		.uleb128 .LVL51-.LVL51
 4785 0245 08        		.uleb128 .LVL52-.LVL51
 4786 0246 02        		.uleb128 0x2
 4787 0247 30        		.byte	0x30
 4788 0248 9F        		.byte	0x9f
 4789 0249 04        		.byte	0x4
 4790 024a 08        		.uleb128 .LVL52-.LVL51
 4791 024b 14        		.uleb128 .LVL55-.LVL51
 4792 024c 01        		.uleb128 0x1
 4793 024d 50        		.byte	0x50
 4794 024e 00        		.byte	0
 4795               	.LVUS4:
 4796 024f 02        		.uleb128 .LVU42
 4797 0250 00        		.uleb128 .LVU44
 4798 0251 00        		.uleb128 .LVU44
 4799 0252 00        		.uleb128 .LVU48
 4800               	.LLST4:
 4801 0253 06        		.byte	0x6
 4802 0254 0000 0000 		.long	.LVL15
 4803 0258 04        		.byte	0x4
 4804 0259 00        		.uleb128 .LVL15-.LVL15
 4805 025a 18        		.uleb128 .LVL16-.LVL15
 4806 025b 02        		.uleb128 0x2
 4807 025c 30        		.byte	0x30
 4808 025d 9F        		.byte	0x9f
 4809 025e 04        		.byte	0x4
 4810 025f 18        		.uleb128 .LVL16-.LVL15


 4811 0260 40        		.uleb128 .LVL20-.LVL15
 4812 0261 01        		.uleb128 0x1
 4813 0262 52        		.byte	0x52
 4814 0263 00        		.byte	0
 4815               	.LVUS5:
 4816 0264 02        		.uleb128 .LVU53
 4817 0265 00        		.uleb128 .LVU55
 4818 0266 00        		.uleb128 .LVU55
 4819 0267 00        		.uleb128 .LVU70
 4820               	.LLST5:
 4821 0268 06        		.byte	0x6
 4822 0269 0000 0000 		.long	.LVL22
 4823 026d 04        		.byte	0x4
 4824 026e 00        		.uleb128 .LVL22-.LVL22
 4825 026f 28        		.uleb128 .LVL23-.LVL22
 4826 0270 02        		.uleb128 0x2
 4827 0271 30        		.byte	0x30
 4828 0272 9F        		.byte	0x9f
 4829 0273 04        		.byte	0x4
 4830 0274 28        		.uleb128 .LVL23-.LVL22
 4831 0275 BE01      		.uleb128 .LVL34-.LVL22
 4832 0277 01        		.uleb128 0x1
 4833 0278 53        		.byte	0x53
 4834 0279 00        		.byte	0
 4835               	.LVUS6:
 4836 027a 02        		.uleb128 .LVU59
 4837 027b 00        		.uleb128 .LVU61
 4838 027c 00        		.uleb128 .LVU61
 4839 027d 00        		.uleb128 .LVU65
 4840               	.LLST6:
 4841 027e 06        		.byte	0x6
 4842 027f 0000 0000 		.long	.LVL25
 4843 0283 04        		.byte	0x4
 4844 0284 00        		.uleb128 .LVL25-.LVL25
 4845 0285 10        		.uleb128 .LVL26-.LVL25
 4846 0286 02        		.uleb128 0x2
 4847 0287 30        		.byte	0x30
 4848 0288 9F        		.byte	0x9f
 4849 0289 04        		.byte	0x4
 4850 028a 10        		.uleb128 .LVL26-.LVL25
 4851 028b 3E        		.uleb128 .LVL30-.LVL25
 4852 028c 01        		.uleb128 0x1
 4853 028d 52        		.byte	0x52
 4854 028e 00        		.byte	0
 4855               	.LVUS7:
 4856 028f 00        		.uleb128 .LVU70
 4857 0290 00        		.uleb128 .LVU73
 4858 0291 00        		.uleb128 .LVU73
 4859 0292 00        		.uleb128 .LVU77
 4860               	.LLST7:
 4861 0293 06        		.byte	0x6
 4862 0294 0000 0000 		.long	.LVL34
 4863 0298 04        		.byte	0x4
 4864 0299 00        		.uleb128 .LVL34-.LVL34
 4865 029a 0C        		.uleb128 .LVL35-.LVL34
 4866 029b 02        		.uleb128 0x2
 4867 029c 30        		.byte	0x30


 4868 029d 9F        		.byte	0x9f
 4869 029e 04        		.byte	0x4
 4870 029f 0C        		.uleb128 .LVL35-.LVL34
 4871 02a0 34        		.uleb128 .LVL39-.LVL34
 4872 02a1 01        		.uleb128 0x1
 4873 02a2 52        		.byte	0x52
 4874 02a3 00        		.byte	0
 4875               	.LVUS8:
 4876 02a4 01        		.uleb128 .LVU81
 4877 02a5 00        		.uleb128 .LVU84
 4878               	.LLST8:
 4879 02a6 08        		.byte	0x8
 4880 02a7 0000 0000 		.long	.LVL41
 4881 02ab 24        		.uleb128 .LVL43-.LVL41
 4882 02ac 02        		.uleb128 0x2
 4883 02ad 35        		.byte	0x35
 4884 02ae 9F        		.byte	0x9f
 4885 02af 00        		.byte	0
 4886               	.LVUS1:
 4887 02b0 02        		.uleb128 .LVU20
 4888 02b1 00        		.uleb128 .LVU22
 4889 02b2 00        		.uleb128 .LVU22
 4890 02b3 00        		.uleb128 .LVU33
 4891 02b4 00        		.uleb128 .LVU35
 4892 02b5 00        		.uleb128 0
 4893               	.LLST1:
 4894 02b6 06        		.byte	0x6
 4895 02b7 0000 0000 		.long	.LVL5
 4896 02bb 04        		.byte	0x4
 4897 02bc 00        		.uleb128 .LVL5-.LVL5
 4898 02bd 18        		.uleb128 .LVL6-.LVL5
 4899 02be 02        		.uleb128 0x2
 4900 02bf 30        		.byte	0x30
 4901 02c0 9F        		.byte	0x9f
 4902 02c1 04        		.byte	0x4
 4903 02c2 18        		.uleb128 .LVL6-.LVL5
 4904 02c3 4C        		.uleb128 .LVL12-.LVL5
 4905 02c4 01        		.uleb128 0x1
 4906 02c5 53        		.byte	0x53
 4907 02c6 04        		.byte	0x4
 4908 02c7 52        		.uleb128 .LVL13-.LVL5
 4909 02c8 68        		.uleb128 .LFE4-.LVL5
 4910 02c9 01        		.uleb128 0x1
 4911 02ca 53        		.byte	0x53
 4912 02cb 00        		.byte	0
 4913               	.LVUS3:
 4914 02cc 00        		.uleb128 .LVU22
 4915 02cd 00        		.uleb128 .LVU24
 4916 02ce 00        		.uleb128 .LVU24
 4917 02cf 00        		.uleb128 .LVU30
 4918 02d0 00        		.uleb128 .LVU35
 4919 02d1 00        		.uleb128 0
 4920               	.LLST3:
 4921 02d2 06        		.byte	0x6
 4922 02d3 0000 0000 		.long	.LVL6
 4923 02d7 04        		.byte	0x4
 4924 02d8 00        		.uleb128 .LVL6-.LVL6


 4925 02d9 0C        		.uleb128 .LVL7-.LVL6
 4926 02da 02        		.uleb128 0x2
 4927 02db 30        		.byte	0x30
 4928 02dc 9F        		.byte	0x9f
 4929 02dd 04        		.byte	0x4
 4930 02de 0C        		.uleb128 .LVL7-.LVL6
 4931 02df 26        		.uleb128 .LVL10-.LVL6
 4932 02e0 01        		.uleb128 0x1
 4933 02e1 52        		.byte	0x52
 4934 02e2 04        		.byte	0x4
 4935 02e3 3A        		.uleb128 .LVL13-.LVL6
 4936 02e4 50        		.uleb128 .LFE4-.LVL6
 4937 02e5 01        		.uleb128 0x1
 4938 02e6 52        		.byte	0x52
 4939 02e7 00        		.byte	0
 4940               	.LVUS9:
 4941 02e8 00        		.uleb128 .LVU91
 4942 02e9 00        		.uleb128 .LVU96
 4943 02ea 00        		.uleb128 .LVU97
 4944 02eb 00        		.uleb128 .LVU102
 4945 02ec 00        		.uleb128 .LVU102
 4946 02ed 00        		.uleb128 .LVU103
 4947 02ee 00        		.uleb128 .LVU103
 4948 02ef 00        		.uleb128 0
 4949               	.LLST9:
 4950 02f0 06        		.byte	0x6
 4951 02f1 0000 0000 		.long	.LVL45
 4952 02f5 04        		.byte	0x4
 4953 02f6 00        		.uleb128 .LVL45-.LVL45
 4954 02f7 32        		.uleb128 .LVL46-.LVL45
 4955 02f8 01        		.uleb128 0x1
 4956 02f9 50        		.byte	0x50
 4957 02fa 04        		.byte	0x4
 4958 02fb 38        		.uleb128 .LVL47-.LVL45
 4959 02fc 44        		.uleb128 .LVL48-.LVL45
 4960 02fd 01        		.uleb128 0x1
 4961 02fe 50        		.byte	0x50
 4962 02ff 04        		.byte	0x4
 4963 0300 44        		.uleb128 .LVL48-.LVL45
 4964 0301 46        		.uleb128 .LVL49-.LVL45
 4965 0302 05        		.uleb128 0x5
 4966 0303 78        		.byte	0x78
 4967 0304 00        		.sleb128 0
 4968 0305 72        		.byte	0x72
 4969 0306 00        		.sleb128 0
 4970 0307 22        		.byte	0x22
 4971 0308 04        		.byte	0x4
 4972 0309 46        		.uleb128 .LVL49-.LVL45
 4973 030a 4A        		.uleb128 .LFE6-.LVL45
 4974 030b 06        		.uleb128 0x6
 4975 030c 78        		.byte	0x78
 4976 030d 00        		.sleb128 0
 4977 030e 91        		.byte	0x91
 4978 030f 70        		.sleb128 -16
 4979 0310 06        		.byte	0x6
 4980 0311 22        		.byte	0x22
 4981 0312 00        		.byte	0


 4982               	.Ldebug_loc3:
 4983               		.section	.debug_aranges,"",@progbits
 4984 0000 0000 0024 		.long	0x24
 4985 0004 0002      		.word	0x2
 4986 0006 0000 0000 		.long	.Ldebug_info0
 4987 000a 04        		.byte	0x4
 4988 000b 00        		.byte	0
 4989 000c 0000      		.word	0
 4990 000e 0000      		.word	0
 4991 0010 0000 0000 		.long	.Ltext0
 4992 0014 0000 07B8 		.long	.Letext0-.Ltext0
 4993 0018 0000 0000 		.long	.LFB13
 4994 001c 0000 0050 		.long	.LFE13-.LFB13
 4995 0020 0000 0000 		.long	0
 4996 0024 0000 0000 		.long	0
 4997               		.section	.debug_rnglists,"",@progbits
 4998               	.Ldebug_ranges0:
 4999 0000 0000 008A 		.long	.Ldebug_ranges3-.Ldebug_ranges2
 5000               	.Ldebug_ranges2:
 5001 0004 0005      		.word	0x5
 5002 0006 04        		.byte	0x4
 5003 0007 00        		.byte	0
 5004 0008 0000 0000 		.long	0
 5005               	.LLRL0:
 5006 000c 05        		.byte	0x5
 5007 000d 0000 0000 		.long	.LBB2
 5008 0011 04        		.byte	0x4
 5009 0012 00        		.uleb128 .LBB2-.LBB2
 5010 0013 4C        		.uleb128 .LBE2-.LBB2
 5011 0014 04        		.byte	0x4
 5012 0015 52        		.uleb128 .LBB5-.LBB2
 5013 0016 68        		.uleb128 .LBE5-.LBB2
 5014 0017 00        		.byte	0
 5015               	.LLRL2:
 5016 0018 05        		.byte	0x5
 5017 0019 0000 0000 		.long	.LBB3
 5018 001d 04        		.byte	0x4
 5019 001e 00        		.uleb128 .LBB3-.LBB3
 5020 001f 26        		.uleb128 .LBE3-.LBB3
 5021 0020 04        		.byte	0x4
 5022 0021 3A        		.uleb128 .LBB4-.LBB3
 5023 0022 50        		.uleb128 .LBE4-.LBB3
 5024 0023 00        		.byte	0
 5025               	.LLRL11:
 5026 0024 05        		.byte	0x5
 5027 0025 0000 0000 		.long	.LBB18
 5028 0029 04        		.byte	0x4
 5029 002a 00        		.uleb128 .LBB18-.LBB18
 5030 002b 16        		.uleb128 .LBE18-.LBB18
 5031 002c 04        		.byte	0x4
 5032 002d 18        		.uleb128 .LBB21-.LBB18
 5033 002e 36        		.uleb128 .LBE21-.LBB18
 5034 002f 00        		.byte	0
 5035               	.LLRL13:
 5036 0030 05        		.byte	0x5
 5037 0031 0000 0000 		.long	.LBB19
 5038 0035 04        		.byte	0x4


 5039 0036 00        		.uleb128 .LBB19-.LBB19
 5040 0037 0C        		.uleb128 .LBE19-.LBB19
 5041 0038 04        		.byte	0x4
 5042 0039 10        		.uleb128 .LBB20-.LBB19
 5043 003a 24        		.uleb128 .LBE20-.LBB19
 5044 003b 00        		.byte	0
 5045               	.LLRL18:
 5046 003c 05        		.byte	0x5
 5047 003d 0000 0000 		.long	.LBB32
 5048 0041 04        		.byte	0x4
 5049 0042 00        		.uleb128 .LBB32-.LBB32
 5050 0043 24        		.uleb128 .LBE32-.LBB32
 5051 0044 04        		.byte	0x4
 5052 0045 6C        		.uleb128 .LBB35-.LBB32
 5053 0046 9401      		.uleb128 .LBE35-.LBB32
 5054 0048 00        		.byte	0
 5055               	.LLRL21:
 5056 0049 05        		.byte	0x5
 5057 004a 0000 0000 		.long	.LBB36
 5058 004e 04        		.byte	0x4
 5059 004f 00        		.uleb128 .LBB36-.LBB36
 5060 0050 20        		.uleb128 .LBE36-.LBB36
 5061 0051 04        		.byte	0x4
 5062 0052 CE01      		.uleb128 .LBB48-.LBB36
 5063 0054 D801      		.uleb128 .LBE48-.LBB36
 5064 0056 00        		.byte	0
 5065               	.LLRL24:
 5066 0057 05        		.byte	0x5
 5067 0058 0000 0000 		.long	.LBB39
 5068 005c 04        		.byte	0x4
 5069 005d 00        		.uleb128 .LBB39-.LBB39
 5070 005e 1E        		.uleb128 .LBE39-.LBB39
 5071 005f 04        		.byte	0x4
 5072 0060 B401      		.uleb128 .LBB49-.LBB39
 5073 0062 BE01      		.uleb128 .LBE49-.LBB39
 5074 0064 00        		.byte	0
 5075               	.LLRL27:
 5076 0065 05        		.byte	0x5
 5077 0066 0000 0000 		.long	.LBB42
 5078 006a 04        		.byte	0x4
 5079 006b 00        		.uleb128 .LBB42-.LBB42
 5080 006c 20        		.uleb128 .LBE42-.LBB42
 5081 006d 04        		.byte	0x4
 5082 006e B801      		.uleb128 .LBB51-.LBB42
 5083 0070 C601      		.uleb128 .LBE51-.LBB42
 5084 0072 00        		.byte	0
 5085               	.LLRL30:
 5086 0073 05        		.byte	0x5
 5087 0074 0000 0000 		.long	.LBB45
 5088 0078 04        		.byte	0x4
 5089 0079 00        		.uleb128 .LBB45-.LBB45
 5090 007a 1C        		.uleb128 .LBE45-.LBB45
 5091 007b 04        		.byte	0x4
 5092 007c 7E        		.uleb128 .LBB50-.LBB45
 5093 007d 8801      		.uleb128 .LBE50-.LBB45
 5094 007f 00        		.byte	0
 5095               	.LLRL37:


 5096 0080 07        		.byte	0x7
 5097 0081 0000 0000 		.long	.Ltext0
 5098 0085 B80F      		.uleb128 .Letext0-.Ltext0
 5099 0087 07        		.byte	0x7
 5100 0088 0000 0000 		.long	.LFB13
 5101 008c 50        		.uleb128 .LFE13-.LFB13
 5102 008d 00        		.byte	0
 5103               	.Ldebug_ranges3:
 5104               		.section	.debug_line,"",@progbits
 5105               	.Ldebug_line0:
 5106 0000 0000 06EC 		.section	.debug_str,"MS",@progbits,1
 5106      0003 0000 
 5106      00E2 0201 
 5106      FB0E 0D00 
 5106      0101 0101 
 5107               	.LASF125:
 5108 0000 6D6F 7665 		.string	"move"
 5108      00
 5109               	.LASF39:
 5110 0005 5F73 697A 		.string	"_size"
 5110      6500 
 5111               	.LASF76:
 5112 000b 5F72 616E 		.string	"_rand48"
 5112      6434 3800 
 5113               	.LASF24:
 5114 0013 5F73 6967 		.string	"_sign"
 5114      6E00 
 5115               	.LASF53:
 5116 0019 5F64 6174 		.string	"_data"
 5116      6100 
 5117               	.LASF105:
 5118 001f 7769 6E5F 		.string	"win_flag"
 5118      666C 6167 
 5118      00
 5119               	.LASF95:
 5120 0028 5F77 6372 		.string	"_wcrtomb_state"
 5120      746F 6D62 
 5120      5F73 7461 
 5120      7465 00
 5121               	.LASF110:
 5122 0037 7365 745F 		.string	"set_task"
 5122      7461 736B 
 5122      00
 5123               	.LASF96:
 5124 0040 5F77 6373 		.string	"_wcsrtombs_state"
 5124      7274 6F6D 
 5124      6273 5F73 
 5124      7461 7465 
 5124      00
 5125               	.LASF7:
 5126 0051 6C6F 6E67 		.string	"long long unsigned int"
 5126      206C 6F6E 
 5126      6720 756E 
 5126      7369 676E 
 5126      6564 2069 
 5127               	.LASF108:
 5128 0068 696E 6974 		.string	"init_kernel"


 5128      5F6B 6572 
 5128      6E65 6C00 
 5129               	.LASF43:
 5130 0074 5F6C 6266 		.string	"_lbfsize"
 5130      7369 7A65 
 5130      00
 5131               	.LASF134:
 5132 007d 5F5F 6C6F 		.string	"__locale_t"
 5132      6361 6C65 
 5132      5F74 00
 5133               	.LASF93:
 5134 0088 5F6D 6272 		.string	"_mbrtowc_state"
 5134      746F 7763 
 5134      5F73 7461 
 5134      7465 00
 5135               	.LASF104:
 5136 0097 6D61 7472 		.string	"matrix"
 5136      6978 00
 5137               	.LASF88:
 5138 009e 5F77 6374 		.string	"_wctomb_state"
 5138      6F6D 625F 
 5138      7374 6174 
 5138      6500 
 5139               	.LASF28:
 5140 00ac 5F5F 746D 		.string	"__tm_sec"
 5140      5F73 6563 
 5140      00
 5141               	.LASF106:
 5142 00b5 696E 7075 		.string	"input_buf"
 5142      745F 6275 
 5142      6600 
 5143               	.LASF6:
 5144 00bf 6C6F 6E67 		.string	"long long int"
 5144      206C 6F6E 
 5144      6720 696E 
 5144      7400 
 5145               	.LASF0:
 5146 00cd 7369 676E 		.string	"signed char"
 5146      6564 2063 
 5146      6861 7200 
 5147               	.LASF128:
 5148 00d9 5F5F 6275 		.string	"__builtin_fwrite"
 5148      696C 7469 
 5148      6E5F 6677 
 5148      7269 7465 
 5148      00
 5149               	.LASF49:
 5150 00ea 5F75 6275 		.string	"_ubuf"
 5150      6600 
 5151               	.LASF132:
 5152 00f0 7465 7374 		.string	"test3.c"
 5152      332E 6300 
 5153               	.LASF38:
 5154 00f8 5F62 6173 		.string	"_base"
 5154      6500 
 5155               	.LASF30:
 5156 00fe 5F5F 746D 		.string	"__tm_hour"


 5156      5F68 6F75 
 5156      7200 
 5157               	.LASF129:
 5158 0108 5F5F 6275 		.string	"__builtin_fputc"
 5158      696C 7469 
 5158      6E5F 6670 
 5158      7574 6300 
 5159               	.LASF44:
 5160 0118 5F63 6F6F 		.string	"_cookie"
 5160      6B69 6500 
 5161               	.LASF4:
 5162 0120 6C6F 6E67 		.string	"long int"
 5162      2069 6E74 
 5162      00
 5163               	.LASF41:
 5164 0129 5F66 6C61 		.string	"_flags"
 5164      6773 00
 5165               	.LASF98:
 5166 0130 4649 4C45 		.string	"FILE"
 5166      00
 5167               	.LASF59:
 5168 0135 5F73 7464 		.string	"_stdin"
 5168      696E 00
 5169               	.LASF51:
 5170 013c 5F62 6C6B 		.string	"_blksize"
 5170      7369 7A65 
 5170      00
 5171               	.LASF99:
 5172 0145 636F 6D30 		.string	"com0out"
 5172      6F75 7400 
 5173               	.LASF71:
 5174 014d 5F63 7674 		.string	"_cvtbuf"
 5174      6275 6600 
 5175               	.LASF52:
 5176 0155 5F6F 6666 		.string	"_offset"
 5176      7365 7400 
 5177               	.LASF94:
 5178 015d 5F6D 6273 		.string	"_mbsrtowcs_state"
 5178      7274 6F77 
 5178      6373 5F73 
 5178      7461 7465 
 5178      00
 5179               	.LASF92:
 5180 016e 5F6D 6272 		.string	"_mbrlen_state"
 5180      6C65 6E5F 
 5180      7374 6174 
 5180      6500 
 5181               	.LASF133:
 5182 017c 2F68 6F6D 		.string	"/home/students/23nen/1TE23942W/os_group2/sw2"
 5182      652F 7374 
 5182      7564 656E 
 5182      7473 2F32 
 5182      336E 656E 
 5183               	.LASF21:
 5184 01a9 5F66 6C6F 		.string	"_flock_t"
 5184      636B 5F74 
 5184      00


 5185               	.LASF61:
 5186 01b2 5F73 7464 		.string	"_stderr"
 5186      6572 7200 
 5187               	.LASF26:
 5188 01ba 5F42 6967 		.string	"_Bigint"
 5188      696E 7400 
 5189               	.LASF83:
 5190 01c2 5F67 616D 		.string	"_gamma_signgam"
 5190      6D61 5F73 
 5190      6967 6E67 
 5190      616D 00
 5191               	.LASF45:
 5192 01d1 5F72 6561 		.string	"_read"
 5192      6400 
 5193               	.LASF67:
 5194 01d7 5F72 6573 		.string	"_result_k"
 5194      756C 745F 
 5194      6B00 
 5195               	.LASF27:
 5196 01e1 5F5F 746D 		.string	"__tm"
 5196      00
 5197               	.LASF9:
 5198 01e6 756E 7369 		.string	"unsigned int"
 5198      676E 6564 
 5198      2069 6E74 
 5198      00
 5199               	.LASF15:
 5200 01f3 5F5F 7763 		.string	"__wchb"
 5200      6862 00
 5201               	.LASF60:
 5202 01fa 5F73 7464 		.string	"_stdout"
 5202      6F75 7400 
 5203               	.LASF101:
 5204 0202 7365 6564 		.string	"seed"
 5204      00
 5205               	.LASF70:
 5206 0207 5F63 7674 		.string	"_cvtlen"
 5206      6C65 6E00 
 5207               	.LASF5:
 5208 020f 6C6F 6E67 		.string	"long unsigned int"
 5208      2075 6E73 
 5208      6967 6E65 
 5208      6420 696E 
 5208      7400 
 5209               	.LASF42:
 5210 0221 5F66 696C 		.string	"_file"
 5210      6500 
 5211               	.LASF135:
 5212 0227 7261 6E64 		.string	"rand"
 5212      00
 5213               	.LASF100:
 5214 022c 636F 6D31 		.string	"com1out"
 5214      6F75 7400 
 5215               	.LASF3:
 5216 0234 7368 6F72 		.string	"short unsigned int"
 5216      7420 756E 
 5216      7369 676E 


 5216      6564 2069 
 5216      6E74 00
 5217               	.LASF120:
 5218 0247 6368 6563 		.string	"check_board"
 5218      6B5F 626F 
 5218      6172 6400 
 5219               	.LASF90:
 5220 0253 5F73 6967 		.string	"_signal_buf"
 5220      6E61 6C5F 
 5220      6275 6600 
 5221               	.LASF81:
 5222 025f 5F61 7363 		.string	"_asctime_buf"
 5222      7469 6D65 
 5222      5F62 7566 
 5222      00
 5223               	.LASF66:
 5224 026c 5F72 6573 		.string	"_result"
 5224      756C 7400 
 5225               	.LASF14:
 5226 0274 5F5F 7763 		.string	"__wch"
 5226      6800 
 5227               	.LASF10:
 5228 027a 7769 6E74 		.string	"wint_t"
 5228      5F74 00
 5229               	.LASF54:
 5230 0281 5F6C 6F63 		.string	"_lock"
 5230      6B00 
 5231               	.LASF56:
 5232 0287 5F66 6C61 		.string	"_flags2"
 5232      6773 3200 
 5233               	.LASF124:
 5234 028f 7265 7365 		.string	"reset_cur"
 5234      745F 6375 
 5234      7200 
 5235               	.LASF46:
 5236 0299 5F77 7269 		.string	"_write"
 5236      7465 00
 5237               	.LASF33:
 5238 02a0 5F5F 746D 		.string	"__tm_year"
 5238      5F79 6561 
 5238      7200 
 5239               	.LASF130:
 5240 02aa 5F5F 6275 		.string	"__builtin_fprintf"
 5240      696C 7469 
 5240      6E5F 6670 
 5240      7269 6E74 
 5240      6600 
 5241               	.LASF103:
 5242 02bc 6368 5F70 		.string	"ch_p"
 5242      00
 5243               	.LASF20:
 5244 02c1 5F4C 4F43 		.string	"_LOCK_RECURSIVE_T"
 5244      4B5F 5245 
 5244      4355 5253 
 5244      4956 455F 
 5244      5400 
 5245               	.LASF122:


 5246 02d3 6472 6177 		.string	"draw_board"
 5246      5F62 6F61 
 5246      7264 00
 5247               	.LASF121:
 5248 02de 696E 6B65 		.string	"inkey"
 5248      7900 
 5249               	.LASF127:
 5250 02e4 6670 7574 		.string	"fputc"
 5250      6300 
 5251               	.LASF116:
 5252 02ea 7365 6564 		.string	"seed_task"
 5252      5F74 6173 
 5252      6B00 
 5253               	.LASF32:
 5254 02f4 5F5F 746D 		.string	"__tm_mon"
 5254      5F6D 6F6E 
 5254      00
 5255               	.LASF11:
 5256 02fd 5F6F 6666 		.string	"_off_t"
 5256      5F74 00
 5257               	.LASF118:
 5258 0304 6368 616E 		.string	"change_board"
 5258      6765 5F62 
 5258      6F61 7264 
 5258      00
 5259               	.LASF69:
 5260 0311 5F66 7265 		.string	"_freelist"
 5260      656C 6973 
 5260      7400 
 5261               	.LASF131:
 5262 031b 474E 5520 		.string	"GNU C17 11.4.0 -mcpu=68000 -msoft-float -g -O2 -fomit-frame-pointer"
 5262      4331 3720 
 5262      3131 2E34 
 5262      2E30 202D 
 5262      6D63 7075 
 5263               	.LASF111:
 5264 035f 7372 616E 		.string	"srand"
 5264      6400 
 5265               	.LASF107:
 5266 0365 6265 6769 		.string	"begin_sch"
 5266      6E5F 7363 
 5266      6800 
 5267               	.LASF1:
 5268 036f 756E 7369 		.string	"unsigned char"
 5268      676E 6564 
 5268      2063 6861 
 5268      7200 
 5269               	.LASF72:
 5270 037d 5F6E 6577 		.string	"_new"
 5270      00
 5271               	.LASF97:
 5272 0382 5F68 5F65 		.string	"_h_errno"
 5272      7272 6E6F 
 5272      00
 5273               	.LASF2:
 5274 038b 7368 6F72 		.string	"short int"
 5274      7420 696E 


 5274      7400 
 5275               	.LASF35:
 5276 0395 5F5F 746D 		.string	"__tm_yday"
 5276      5F79 6461 
 5276      7900 
 5277               	.LASF37:
 5278 039f 5F5F 7362 		.string	"__sbuf"
 5278      7566 00
 5279               	.LASF75:
 5280 03a6 5F5F 4649 		.string	"__FILE"
 5280      4C45 00
 5281               	.LASF18:
 5282 03ad 5F6D 6273 		.string	"_mbstate_t"
 5282      7461 7465 
 5282      5F74 00
 5283               	.LASF40:
 5284 03b8 5F5F 7346 		.string	"__sFILE"
 5284      494C 4500 
 5285               	.LASF55:
 5286 03c0 5F6D 6273 		.string	"_mbstate"
 5286      7461 7465 
 5286      00
 5287               	.LASF84:
 5288 03c9 5F72 616E 		.string	"_rand_next"
 5288      645F 6E65 
 5288      7874 00
 5289               	.LASF86:
 5290 03d4 5F6D 626C 		.string	"_mblen_state"
 5290      656E 5F73 
 5290      7461 7465 
 5290      00
 5291               	.LASF62:
 5292 03e1 5F69 6E63 		.string	"_inc"
 5292      00
 5293               	.LASF136:
 5294 03e6 5F5F 6D75 		.string	"__mulsi3"
 5294      6C73 6933 
 5294      00
 5295               	.LASF64:
 5296 03ef 5F6C 6F63 		.string	"_locale"
 5296      616C 6500 
 5297               	.LASF65:
 5298 03f7 5F5F 636C 		.string	"__cleanup"
 5298      6561 6E75 
 5298      7000 
 5299               	.LASF115:
 5300 0401 706C 6179 		.string	"player1_task"
 5300      6572 315F 
 5300      7461 736B 
 5300      00
 5301               	.LASF23:
 5302 040e 5F6D 6178 		.string	"_maxwds"
 5302      7764 7300 
 5303               	.LASF57:
 5304 0416 5F72 6565 		.string	"_reent"
 5304      6E74 00
 5305               	.LASF77:


 5306 041d 5F73 6565 		.string	"_seed"
 5306      6400 
 5307               	.LASF16:
 5308 0423 5F5F 636F 		.string	"__count"
 5308      756E 7400 
 5309               	.LASF119:
 5310 042b 7265 765F 		.string	"rev_matrix"
 5310      6D61 7472 
 5310      6978 00
 5311               	.LASF17:
 5312 0436 5F5F 7661 		.string	"__value"
 5312      6C75 6500 
 5313               	.LASF47:
 5314 043e 5F73 6565 		.string	"_seek"
 5314      6B00 
 5315               	.LASF112:
 5316 0444 696E 6279 		.string	"inbyte"
 5316      7465 00
 5317               	.LASF12:
 5318 044b 5F66 706F 		.string	"_fpos_t"
 5318      735F 7400 
 5319               	.LASF8:
 5320 0453 6C6F 6E67 		.string	"long double"
 5320      2064 6F75 
 5320      626C 6500 
 5321               	.LASF58:
 5322 045f 5F65 7272 		.string	"_errno"
 5322      6E6F 00
 5323               	.LASF74:
 5324 0466 6368 6172 		.string	"char"
 5324      00
 5325               	.LASF29:
 5326 046b 5F5F 746D 		.string	"__tm_min"
 5326      5F6D 696E 
 5326      00
 5327               	.LASF63:
 5328 0474 5F65 6D65 		.string	"_emergency"
 5328      7267 656E 
 5328      6379 00
 5329               	.LASF78:
 5330 047f 5F6D 756C 		.string	"_mult"
 5330      7400 
 5331               	.LASF22:
 5332 0485 5F6E 6578 		.string	"_next"
 5332      7400 
 5333               	.LASF80:
 5334 048b 5F73 7472 		.string	"_strtok_last"
 5334      746F 6B5F 
 5334      6C61 7374 
 5334      00
 5335               	.LASF123:
 5336 0498 7265 7365 		.string	"reset_matrix"
 5336      745F 6D61 
 5336      7472 6978 
 5336      00
 5337               	.LASF79:
 5338 04a5 5F61 6464 		.string	"_add"


 5338      00
 5339               	.LASF19:
 5340 04aa 5F5F 554C 		.string	"__ULong"
 5340      6F6E 6700 
 5341               	.LASF91:
 5342 04b2 5F67 6574 		.string	"_getdate_err"
 5342      6461 7465 
 5342      5F65 7272 
 5342      00
 5343               	.LASF109:
 5344 04bf 6664 5F6D 		.string	"fd_mapping"
 5344      6170 7069 
 5344      6E67 00
 5345               	.LASF25:
 5346 04ca 5F77 6473 		.string	"_wds"
 5346      00
 5347               	.LASF34:
 5348 04cf 5F5F 746D 		.string	"__tm_wday"
 5348      5F77 6461 
 5348      7900 
 5349               	.LASF13:
 5350 04d9 5F73 7369 		.string	"_ssize_t"
 5350      7A65 5F74 
 5350      00
 5351               	.LASF89:
 5352 04e2 5F6C 3634 		.string	"_l64a_buf"
 5352      615F 6275 
 5352      6600 
 5353               	.LASF114:
 5354 04ec 706C 6179 		.string	"player2_task"
 5354      6572 325F 
 5354      7461 736B 
 5354      00
 5355               	.LASF73:
 5356 04f9 5F73 6967 		.string	"_sig_func"
 5356      5F66 756E 
 5356      6300 
 5357               	.LASF50:
 5358 0503 5F6E 6275 		.string	"_nbuf"
 5358      6600 
 5359               	.LASF126:
 5360 0509 6677 7269 		.string	"fwrite"
 5360      7465 00
 5361               	.LASF36:
 5362 0510 5F5F 746D 		.string	"__tm_isdst"
 5362      5F69 7364 
 5362      7374 00
 5363               	.LASF82:
 5364 051b 5F6C 6F63 		.string	"_localtime_buf"
 5364      616C 7469 
 5364      6D65 5F62 
 5364      7566 00
 5365               	.LASF48:
 5366 052a 5F63 6C6F 		.string	"_close"
 5366      7365 00
 5367               	.LASF85:
 5368 0531 5F72 3438 		.string	"_r48"


 5368      00
 5369               	.LASF87:
 5370 0536 5F6D 6274 		.string	"_mbtowc_state"
 5370      6F77 635F 
 5370      7374 6174 
 5370      6500 
 5371               	.LASF68:
 5372 0544 5F70 3573 		.string	"_p5s"
 5372      00
 5373               	.LASF117:
 5374 0549 6D61 696E 		.string	"main"
 5374      00
 5375               	.LASF113:
 5376 054e 6670 7269 		.string	"fprintf"
 5376      6E74 6600 
 5377               	.LASF31:
 5378 0556 5F5F 746D 		.string	"__tm_mday"
 5378      5F6D 6461 
 5378      7900 
 5379               	.LASF102:
 5380 0560 696E 6469 		.string	"indicator"
 5380      6361 746F 
 5380      7200 
 5381               		.ident	"GCC: (GNU) 11.4.0"


